
D:/picobuild4/build/apps/sprite_bounce/sprite_bounce.elf:     file format elf32-littlearm

Sections:
Idx Name          Size      VMA       LMA       File off  Algn
  0 .boot2        00000100  10000000  10000000  00001000  2**0
                  CONTENTS, ALLOC, LOAD, READONLY, CODE
  1 .text         00004150  10000100  10000100  00001100  2**3
                  CONTENTS, ALLOC, LOAD, READONLY, CODE
  2 .rodata       00000240  10004250  10004250  00005250  2**2
                  CONTENTS, ALLOC, LOAD, READONLY, DATA
  3 .binary_info  00000024  10004490  10004490  00005490  2**2
                  CONTENTS, ALLOC, LOAD, DATA
  4 .ram_vector_table 000000c0  20000000  20000000  00019164  2**2
                  CONTENTS
  5 .data         00012134  200000c0  100044b4  000060c0  2**4
                  CONTENTS, ALLOC, LOAD, CODE
  6 .uninitialized_data 00000000  200121f4  200121f4  00019224  2**0
                  CONTENTS
  7 .scratch_x    00000164  20040000  100165e8  00019000  2**2
                  CONTENTS, ALLOC, LOAD, READONLY, CODE
  8 .scratch_y    00000000  20041000  20041000  00019224  2**0
                  CONTENTS
  9 .bss          00001d70  200121f8  200121f8  000191f8  2**3
                  ALLOC
 10 .heap         00000800  20013f68  20013f68  00019224  2**2
                  CONTENTS, READONLY
 11 .stack1_dummy 00000800  20040164  20040164  00019a24  2**2
                  CONTENTS
 12 .stack_dummy  00000800  20041000  20041000  0001a240  2**5
                  CONTENTS, READONLY
 13 .ARM.attributes 00000028  00000000  00000000  0001aa40  2**0
                  CONTENTS, READONLY
 14 .comment      00000079  00000000  00000000  0001aa68  2**0
                  CONTENTS, READONLY
 15 .debug_frame  000002e4  00000000  00000000  0001aae4  2**2
                  CONTENTS, READONLY, DEBUGGING

D:/picobuild4/build/apps/sprite_bounce/sprite_bounce.elf:     file format elf32-littlearm


Disassembly of section .boot2:

10000000 <__boot2_start__>:
10000000:	4b32b500 	.word	0x4b32b500
10000004:	60582021 	.word	0x60582021
10000008:	21026898 	.word	0x21026898
1000000c:	60984388 	.word	0x60984388
10000010:	611860d8 	.word	0x611860d8
10000014:	4b2e6158 	.word	0x4b2e6158
10000018:	60992100 	.word	0x60992100
1000001c:	61592102 	.word	0x61592102
10000020:	22f02101 	.word	0x22f02101
10000024:	492b5099 	.word	0x492b5099
10000028:	21016019 	.word	0x21016019
1000002c:	20356099 	.word	0x20356099
10000030:	f844f000 	.word	0xf844f000
10000034:	42902202 	.word	0x42902202
10000038:	2106d014 	.word	0x2106d014
1000003c:	f0006619 	.word	0xf0006619
10000040:	6e19f834 	.word	0x6e19f834
10000044:	66192101 	.word	0x66192101
10000048:	66182000 	.word	0x66182000
1000004c:	f000661a 	.word	0xf000661a
10000050:	6e19f82c 	.word	0x6e19f82c
10000054:	6e196e19 	.word	0x6e196e19
10000058:	f0002005 	.word	0xf0002005
1000005c:	2101f82f 	.word	0x2101f82f
10000060:	d1f94208 	.word	0xd1f94208
10000064:	60992100 	.word	0x60992100
10000068:	6019491b 	.word	0x6019491b
1000006c:	60592100 	.word	0x60592100
10000070:	481b491a 	.word	0x481b491a
10000074:	21016001 	.word	0x21016001
10000078:	21eb6099 	.word	0x21eb6099
1000007c:	21a06619 	.word	0x21a06619
10000080:	f0006619 	.word	0xf0006619
10000084:	2100f812 	.word	0x2100f812
10000088:	49166099 	.word	0x49166099
1000008c:	60014814 	.word	0x60014814
10000090:	60992101 	.word	0x60992101
10000094:	2800bc01 	.word	0x2800bc01
10000098:	4700d000 	.word	0x4700d000
1000009c:	49134812 	.word	0x49134812
100000a0:	c8036008 	.word	0xc8036008
100000a4:	8808f380 	.word	0x8808f380
100000a8:	b5034708 	.word	0xb5034708
100000ac:	20046a99 	.word	0x20046a99
100000b0:	d0fb4201 	.word	0xd0fb4201
100000b4:	42012001 	.word	0x42012001
100000b8:	bd03d1f8 	.word	0xbd03d1f8
100000bc:	6618b502 	.word	0x6618b502
100000c0:	f7ff6618 	.word	0xf7ff6618
100000c4:	6e18fff2 	.word	0x6e18fff2
100000c8:	bd026e18 	.word	0xbd026e18
100000cc:	40020000 	.word	0x40020000
100000d0:	18000000 	.word	0x18000000
100000d4:	00070000 	.word	0x00070000
100000d8:	005f0300 	.word	0x005f0300
100000dc:	00002221 	.word	0x00002221
100000e0:	180000f4 	.word	0x180000f4
100000e4:	a0002022 	.word	0xa0002022
100000e8:	10000100 	.word	0x10000100
100000ec:	e000ed08 	.word	0xe000ed08
	...
100000fc:	7a4eb274 	.word	0x7a4eb274

Disassembly of section .text:

10000100 <__VECTOR_TABLE>:
10000100:	20042000 	.word	0x20042000
10000104:	100001f7 	.word	0x100001f7
10000108:	100001c3 	.word	0x100001c3
1000010c:	100001c5 	.word	0x100001c5
10000110:	100001c1 	.word	0x100001c1
10000114:	100001c1 	.word	0x100001c1
10000118:	100001c1 	.word	0x100001c1
1000011c:	100001c1 	.word	0x100001c1
10000120:	100001c1 	.word	0x100001c1
10000124:	100001c1 	.word	0x100001c1
10000128:	100001c1 	.word	0x100001c1
1000012c:	100001c7 	.word	0x100001c7
10000130:	100001c1 	.word	0x100001c1
10000134:	100001c1 	.word	0x100001c1
10000138:	100001c9 	.word	0x100001c9
1000013c:	100001cb 	.word	0x100001cb
10000140:	100001cd 	.word	0x100001cd
10000144:	100001cd 	.word	0x100001cd
10000148:	100001cd 	.word	0x100001cd
1000014c:	100001cd 	.word	0x100001cd
10000150:	100001cd 	.word	0x100001cd
10000154:	100001cd 	.word	0x100001cd
10000158:	100001cd 	.word	0x100001cd
1000015c:	100001cd 	.word	0x100001cd
10000160:	100001cd 	.word	0x100001cd
10000164:	100001cd 	.word	0x100001cd
10000168:	100001cd 	.word	0x100001cd
1000016c:	100001cd 	.word	0x100001cd
10000170:	100001cd 	.word	0x100001cd
10000174:	100001cd 	.word	0x100001cd
10000178:	100001cd 	.word	0x100001cd
1000017c:	100001cd 	.word	0x100001cd
10000180:	100001cd 	.word	0x100001cd
10000184:	100001cd 	.word	0x100001cd
10000188:	100001cd 	.word	0x100001cd
1000018c:	100001cd 	.word	0x100001cd
10000190:	100001cd 	.word	0x100001cd
10000194:	100001cd 	.word	0x100001cd
10000198:	100001cd 	.word	0x100001cd
1000019c:	100001cd 	.word	0x100001cd
100001a0:	100001cd 	.word	0x100001cd
100001a4:	100001cd 	.word	0x100001cd
100001a8:	100001cd 	.word	0x100001cd
100001ac:	100001cd 	.word	0x100001cd
100001b0:	100001cd 	.word	0x100001cd
100001b4:	100001cd 	.word	0x100001cd
100001b8:	100001cd 	.word	0x100001cd
100001bc:	100001cd 	.word	0x100001cd

100001c0 <isr_invalid>:
100001c0:	be00      	bkpt	0x0000

100001c2 <isr_nmi>:
100001c2:	be00      	bkpt	0x0000

100001c4 <isr_hardfault>:
100001c4:	be00      	bkpt	0x0000

100001c6 <isr_svcall>:
100001c6:	be00      	bkpt	0x0000

100001c8 <isr_pendsv>:
100001c8:	be00      	bkpt	0x0000

100001ca <isr_systick>:
100001ca:	be00      	bkpt	0x0000

100001cc <__unhandled_user_irq>:
100001cc:	f000 f84b 	bl	10000266 <__get_current_exception>
100001d0:	3810      	subs	r0, #16

100001d2 <unhandled_user_irq_num_in_r0>:
100001d2:	be00      	bkpt	0x0000

100001d4 <binary_info_header>:
100001d4:	7188ebf2 	.word	0x7188ebf2
100001d8:	10004490 	.word	0x10004490
100001dc:	100044b4 	.word	0x100044b4
100001e0:	10000234 	.word	0x10000234
100001e4:	e71aa390 	.word	0xe71aa390

100001e8 <_entry_point>:
100001e8:	2000      	movs	r0, #0
100001ea:	4921      	ldr	r1, [pc, #132]	; (10000270 <__get_current_exception+0xa>)
100001ec:	6008      	str	r0, [r1, #0]
100001ee:	c806      	ldmia	r0!, {r1, r2}
100001f0:	f381 8808 	msr	MSP, r1
100001f4:	4710      	bx	r2

100001f6 <_reset_handler>:
100001f6:	481f      	ldr	r0, [pc, #124]	; (10000274 <__get_current_exception+0xe>)
100001f8:	6800      	ldr	r0, [r0, #0]
100001fa:	2800      	cmp	r0, #0
100001fc:	d12f      	bne.n	1000025e <hold_non_core0_in_bootrom>
100001fe:	a40d      	add	r4, pc, #52	; (adr r4, 10000234 <data_cpy_table>)
10000200:	cc0e      	ldmia	r4!, {r1, r2, r3}
10000202:	2900      	cmp	r1, #0
10000204:	d002      	beq.n	1000020c <_reset_handler+0x16>
10000206:	f000 f812 	bl	1000022e <data_cpy>
1000020a:	e7f9      	b.n	10000200 <_reset_handler+0xa>
1000020c:	491a      	ldr	r1, [pc, #104]	; (10000278 <__get_current_exception+0x12>)
1000020e:	4a1b      	ldr	r2, [pc, #108]	; (1000027c <__get_current_exception+0x16>)
10000210:	2000      	movs	r0, #0
10000212:	e000      	b.n	10000216 <bss_fill_test>

10000214 <bss_fill_loop>:
10000214:	c101      	stmia	r1!, {r0}

10000216 <bss_fill_test>:
10000216:	4291      	cmp	r1, r2
10000218:	d1fc      	bne.n	10000214 <bss_fill_loop>

1000021a <platform_entry>:
1000021a:	4919      	ldr	r1, [pc, #100]	; (10000280 <__get_current_exception+0x1a>)
1000021c:	4788      	blx	r1
1000021e:	4919      	ldr	r1, [pc, #100]	; (10000284 <__get_current_exception+0x1e>)
10000220:	4788      	blx	r1
10000222:	4919      	ldr	r1, [pc, #100]	; (10000288 <__get_current_exception+0x22>)
10000224:	4788      	blx	r1
10000226:	be00      	bkpt	0x0000
10000228:	e7fd      	b.n	10000226 <platform_entry+0xc>

1000022a <data_cpy_loop>:
1000022a:	c901      	ldmia	r1!, {r0}
1000022c:	c201      	stmia	r2!, {r0}

1000022e <data_cpy>:
1000022e:	429a      	cmp	r2, r3
10000230:	d3fb      	bcc.n	1000022a <data_cpy_loop>
10000232:	4770      	bx	lr

10000234 <data_cpy_table>:
10000234:	100044b4 	.word	0x100044b4
10000238:	200000c0 	.word	0x200000c0
1000023c:	200121f4 	.word	0x200121f4
10000240:	100165e8 	.word	0x100165e8
10000244:	20040000 	.word	0x20040000
10000248:	20040164 	.word	0x20040164
1000024c:	1001674c 	.word	0x1001674c
10000250:	20041000 	.word	0x20041000
10000254:	20041000 	.word	0x20041000
10000258:	00000000 	.word	0x00000000
1000025c:	4770      	bx	lr

1000025e <hold_non_core0_in_bootrom>:
1000025e:	480b      	ldr	r0, [pc, #44]	; (1000028c <__get_current_exception+0x26>)
10000260:	f001 ffc6 	bl	100021f0 <rom_func_lookup>
10000264:	4700      	bx	r0

10000266 <__get_current_exception>:
10000266:	f3ef 8005 	mrs	r0, IPSR
1000026a:	b2c0      	uxtb	r0, r0
1000026c:	4770      	bx	lr
1000026e:	0000      	.short	0x0000
10000270:	e000ed08 	.word	0xe000ed08
10000274:	d0000000 	.word	0xd0000000
10000278:	200121f8 	.word	0x200121f8
1000027c:	20013f68 	.word	0x20013f68
10000280:	10001b59 	.word	0x10001b59
10000284:	10000379 	.word	0x10000379
10000288:	10001c7d 	.word	0x10001c7d
1000028c:	00005657 	.word	0x00005657

10000290 <__bi_50>:
10000290:	50520006 5360b3ab 1000433c              ..RP..`S<C..

1000029c <__bi_38>:
1000029c:	50520006 02031c86 1000434c              ..RP....LC..

100002a8 <__bi_30>:
100002a8:	50520006 9da22254 1000435c              ..RPT"..\C..

100002b4 <__bi_22>:
100002b4:	50520005 68f465de 1001674c              ..RP.e.hLg..

100002c0 <_init>:
100002c0:	b5f8      	push	{r3, r4, r5, r6, r7, lr}
100002c2:	46c0      	nop			; (mov r8, r8)

100002c4 <__do_global_dtors_aux>:
100002c4:	b510      	push	{r4, lr}
100002c6:	4c06      	ldr	r4, [pc, #24]	; (100002e0 <__do_global_dtors_aux+0x1c>)
100002c8:	7823      	ldrb	r3, [r4, #0]
100002ca:	2b00      	cmp	r3, #0
100002cc:	d107      	bne.n	100002de <__do_global_dtors_aux+0x1a>
100002ce:	4b05      	ldr	r3, [pc, #20]	; (100002e4 <__do_global_dtors_aux+0x20>)
100002d0:	2b00      	cmp	r3, #0
100002d2:	d002      	beq.n	100002da <__do_global_dtors_aux+0x16>
100002d4:	4804      	ldr	r0, [pc, #16]	; (100002e8 <__do_global_dtors_aux+0x24>)
100002d6:	e000      	b.n	100002da <__do_global_dtors_aux+0x16>
100002d8:	bf00      	nop
100002da:	2301      	movs	r3, #1
100002dc:	7023      	strb	r3, [r4, #0]
100002de:	bd10      	pop	{r4, pc}
100002e0:	200122f8 	.word	0x200122f8
100002e4:	00000000 	.word	0x00000000
100002e8:	10004250 	.word	0x10004250

100002ec <frame_dummy>:
100002ec:	4b04      	ldr	r3, [pc, #16]	; (10000300 <frame_dummy+0x14>)
100002ee:	b510      	push	{r4, lr}
100002f0:	2b00      	cmp	r3, #0
100002f2:	d003      	beq.n	100002fc <frame_dummy+0x10>
100002f4:	4903      	ldr	r1, [pc, #12]	; (10000304 <frame_dummy+0x18>)
100002f6:	4804      	ldr	r0, [pc, #16]	; (10000308 <frame_dummy+0x1c>)
100002f8:	e000      	b.n	100002fc <frame_dummy+0x10>
100002fa:	bf00      	nop
100002fc:	bd10      	pop	{r4, pc}
100002fe:	46c0      	nop			; (mov r8, r8)
10000300:	00000000 	.word	0x00000000
10000304:	200122fc 	.word	0x200122fc
10000308:	10004250 	.word	0x10004250

1000030c <core1_main>:
1000030c:	b5f8      	push	{r3, r4, r5, r6, r7, lr}
1000030e:	4c17      	ldr	r4, [pc, #92]	; (1000036c <core1_main+0x60>)
10000310:	210b      	movs	r1, #11
10000312:	0020      	movs	r0, r4
10000314:	f002 fe26 	bl	10002f64 <dvi_register_irqs_this_core>
10000318:	27a7      	movs	r7, #167	; 0xa7
1000031a:	21a5      	movs	r1, #165	; 0xa5
1000031c:	4b14      	ldr	r3, [pc, #80]	; (10000370 <core1_main+0x64>)
1000031e:	2500      	movs	r5, #0
10000320:	469c      	mov	ip, r3
10000322:	4e14      	ldr	r6, [pc, #80]	; (10000374 <core1_main+0x68>)
10000324:	0089      	lsls	r1, r1, #2
10000326:	00bf      	lsls	r7, r7, #2
10000328:	e000      	b.n	1000032c <core1_main+0x20>
1000032a:	bf20      	wfe
1000032c:	5863      	ldr	r3, [r4, r1]
1000032e:	f3ef 8010 	mrs	r0, PRIMASK
10000332:	b672      	cpsid	i
10000334:	681a      	ldr	r2, [r3, #0]
10000336:	2a00      	cmp	r2, #0
10000338:	d0fc      	beq.n	10000334 <core1_main+0x28>
1000033a:	f3bf 8f5f 	dmb	sy
1000033e:	5be3      	ldrh	r3, [r4, r7]
10000340:	5ba2      	ldrh	r2, [r4, r6]
10000342:	1a9b      	subs	r3, r3, r2
10000344:	d503      	bpl.n	1000034e <core1_main+0x42>
10000346:	4662      	mov	r2, ip
10000348:	5aa2      	ldrh	r2, [r4, r2]
1000034a:	3201      	adds	r2, #1
1000034c:	18d3      	adds	r3, r2, r3
1000034e:	5862      	ldr	r2, [r4, r1]
10000350:	f3bf 8f5f 	dmb	sy
10000354:	6015      	str	r5, [r2, #0]
10000356:	f380 8810 	msr	PRIMASK, r0
1000035a:	2b00      	cmp	r3, #0
1000035c:	d0e5      	beq.n	1000032a <core1_main+0x1e>
1000035e:	0020      	movs	r0, r4
10000360:	f002 fe4e 	bl	10003000 <dvi_start>
10000364:	0020      	movs	r0, r4
10000366:	f003 ff4b 	bl	10004200 <__dvi_scanbuf_main_16bpp_veneer>
1000036a:	46c0      	nop			; (mov r8, r8)
1000036c:	2001296c 	.word	0x2001296c
10000370:	000002a2 	.word	0x000002a2
10000374:	0000029e 	.word	0x0000029e

10000378 <main>:
10000378:	b5f0      	push	{r4, r5, r6, r7, lr}
1000037a:	46de      	mov	lr, fp
1000037c:	4645      	mov	r5, r8
1000037e:	4657      	mov	r7, sl
10000380:	464e      	mov	r6, r9
10000382:	b5e0      	push	{r5, r6, r7, lr}
10000384:	200d      	movs	r0, #13
10000386:	b087      	sub	sp, #28
10000388:	f001 feda 	bl	10002140 <vreg_set_voltage>
1000038c:	200a      	movs	r0, #10
1000038e:	f000 ff67 	bl	10001260 <sleep_ms>
10000392:	4d7d      	ldr	r5, [pc, #500]	; (10000588 <main+0x210>)
10000394:	aa04      	add	r2, sp, #16
10000396:	6aab      	ldr	r3, [r5, #40]	; 0x28
10000398:	a903      	add	r1, sp, #12
1000039a:	9301      	str	r3, [sp, #4]
1000039c:	9801      	ldr	r0, [sp, #4]
1000039e:	ab05      	add	r3, sp, #20
100003a0:	f000 f95c 	bl	1000065c <check_sys_clock_khz>
100003a4:	2800      	cmp	r0, #0
100003a6:	d103      	bne.n	100003b0 <main+0x38>
100003a8:	9901      	ldr	r1, [sp, #4]
100003aa:	4878      	ldr	r0, [pc, #480]	; (1000058c <main+0x214>)
100003ac:	f001 fc68 	bl	10001c80 <panic>
100003b0:	9904      	ldr	r1, [sp, #16]
100003b2:	9a05      	ldr	r2, [sp, #20]
100003b4:	9803      	ldr	r0, [sp, #12]
100003b6:	f000 f915 	bl	100005e4 <set_sys_clock_pll>
100003ba:	f000 fa05 	bl	100007c8 <setup_default_uart>
100003be:	2015      	movs	r0, #21
100003c0:	f000 fa30 	bl	10000824 <gpio_init>
100003c4:	23d0      	movs	r3, #208	; 0xd0
100003c6:	2280      	movs	r2, #128	; 0x80
100003c8:	061b      	lsls	r3, r3, #24
100003ca:	0392      	lsls	r2, r2, #14
100003cc:	625a      	str	r2, [r3, #36]	; 0x24
100003ce:	4870      	ldr	r0, [pc, #448]	; (10000590 <main+0x218>)
100003d0:	f002 fbf2 	bl	10002bb8 <__wrap_puts>
100003d4:	4c6f      	ldr	r4, [pc, #444]	; (10000594 <main+0x21c>)
100003d6:	2224      	movs	r2, #36	; 0x24
100003d8:	0020      	movs	r0, r4
100003da:	2100      	movs	r1, #0
100003dc:	3040      	adds	r0, #64	; 0x40
100003de:	6025      	str	r5, [r4, #0]
100003e0:	f002 faba 	bl	10002958 <__wrap_memset>
100003e4:	4b6c      	ldr	r3, [pc, #432]	; (10000598 <main+0x220>)
100003e6:	63e3      	str	r3, [r4, #60]	; 0x3c
100003e8:	2301      	movs	r3, #1
100003ea:	6463      	str	r3, [r4, #68]	; 0x44
100003ec:	18db      	adds	r3, r3, r3
100003ee:	64a3      	str	r3, [r4, #72]	; 0x48
100003f0:	330a      	adds	r3, #10
100003f2:	64e3      	str	r3, [r4, #76]	; 0x4c
100003f4:	3306      	adds	r3, #6
100003f6:	6523      	str	r3, [r4, #80]	; 0x50
100003f8:	3b02      	subs	r3, #2
100003fa:	6563      	str	r3, [r4, #84]	; 0x54
100003fc:	3b02      	subs	r3, #2
100003fe:	65a3      	str	r3, [r4, #88]	; 0x58
10000400:	f000 facc 	bl	1000099c <next_striped_spin_lock_num>
10000404:	0005      	movs	r5, r0
10000406:	f000 fac9 	bl	1000099c <next_striped_spin_lock_num>
1000040a:	0029      	movs	r1, r5
1000040c:	0002      	movs	r2, r0
1000040e:	0020      	movs	r0, r4
10000410:	f002 fcde 	bl	10002dd0 <dvi_init>
10000414:	4861      	ldr	r0, [pc, #388]	; (1000059c <main+0x224>)
10000416:	f002 fbcf 	bl	10002bb8 <__wrap_puts>
1000041a:	4861      	ldr	r0, [pc, #388]	; (100005a0 <main+0x228>)
1000041c:	f002 fcb2 	bl	10002d84 <multicore_launch_core1>
10000420:	4860      	ldr	r0, [pc, #384]	; (100005a4 <main+0x22c>)
10000422:	f002 fbc9 	bl	10002bb8 <__wrap_puts>
10000426:	4c60      	ldr	r4, [pc, #384]	; (100005a8 <main+0x230>)
10000428:	4b60      	ldr	r3, [pc, #384]	; (100005ac <main+0x234>)
1000042a:	0020      	movs	r0, r4
1000042c:	a905      	add	r1, sp, #20
1000042e:	9305      	str	r3, [sp, #20]
10000430:	f001 fa90 	bl	10001954 <queue_add_blocking>
10000434:	4b5e      	ldr	r3, [pc, #376]	; (100005b0 <main+0x238>)
10000436:	0020      	movs	r0, r4
10000438:	a905      	add	r1, sp, #20
1000043a:	9305      	str	r3, [sp, #20]
1000043c:	f001 fa8a 	bl	10001954 <queue_add_blocking>
10000440:	4b5c      	ldr	r3, [pc, #368]	; (100005b4 <main+0x23c>)
10000442:	0020      	movs	r0, r4
10000444:	a905      	add	r1, sp, #20
10000446:	9305      	str	r3, [sp, #20]
10000448:	f001 fa84 	bl	10001954 <queue_add_blocking>
1000044c:	4b5a      	ldr	r3, [pc, #360]	; (100005b8 <main+0x240>)
1000044e:	0020      	movs	r0, r4
10000450:	a905      	add	r1, sp, #20
10000452:	9305      	str	r3, [sp, #20]
10000454:	f001 fa7e 	bl	10001954 <queue_add_blocking>
10000458:	f003 fd32 	bl	10003ec0 <rand>
1000045c:	2188      	movs	r1, #136	; 0x88
1000045e:	31ff      	adds	r1, #255	; 0xff
10000460:	f001 fef4 	bl	1000224c <__wrap___aeabi_idiv>
10000464:	4c55      	ldr	r4, [pc, #340]	; (100005bc <main+0x244>)
10000466:	3964      	subs	r1, #100	; 0x64
10000468:	8021      	strh	r1, [r4, #0]
1000046a:	f003 fd29 	bl	10003ec0 <rand>
1000046e:	2138      	movs	r1, #56	; 0x38
10000470:	31ff      	adds	r1, #255	; 0xff
10000472:	f001 feeb 	bl	1000224c <__wrap___aeabi_idiv>
10000476:	4b52      	ldr	r3, [pc, #328]	; (100005c0 <main+0x248>)
10000478:	3964      	subs	r1, #100	; 0x64
1000047a:	469a      	mov	sl, r3
1000047c:	4b51      	ldr	r3, [pc, #324]	; (100005c4 <main+0x24c>)
1000047e:	4d52      	ldr	r5, [pc, #328]	; (100005c8 <main+0x250>)
10000480:	4699      	mov	r9, r3
10000482:	4b52      	ldr	r3, [pc, #328]	; (100005cc <main+0x254>)
10000484:	4e52      	ldr	r6, [pc, #328]	; (100005d0 <main+0x258>)
10000486:	9301      	str	r3, [sp, #4]
10000488:	2300      	movs	r3, #0
1000048a:	4698      	mov	r8, r3
1000048c:	8061      	strh	r1, [r4, #2]
1000048e:	4647      	mov	r7, r8
10000490:	4b50      	ldr	r3, [pc, #320]	; (100005d4 <main+0x25c>)
10000492:	e01d      	b.n	100004d0 <main+0x158>
10000494:	f003 fd14 	bl	10003ec0 <rand>
10000498:	2188      	movs	r1, #136	; 0x88
1000049a:	31ff      	adds	r1, #255	; 0xff
1000049c:	f001 fed6 	bl	1000224c <__wrap___aeabi_idiv>
100004a0:	3964      	subs	r1, #100	; 0x64
100004a2:	8129      	strh	r1, [r5, #8]
100004a4:	f003 fd0c 	bl	10003ec0 <rand>
100004a8:	2138      	movs	r1, #56	; 0x38
100004aa:	31ff      	adds	r1, #255	; 0xff
100004ac:	f001 fece 	bl	1000224c <__wrap___aeabi_idiv>
100004b0:	4642      	mov	r2, r8
100004b2:	3964      	subs	r1, #100	; 0x64
100004b4:	4b48      	ldr	r3, [pc, #288]	; (100005d8 <main+0x260>)
100004b6:	8169      	strh	r1, [r5, #10]
100004b8:	07d2      	lsls	r2, r2, #31
100004ba:	d400      	bmi.n	100004be <main+0x146>
100004bc:	4b45      	ldr	r3, [pc, #276]	; (100005d4 <main+0x25c>)
100004be:	2204      	movs	r2, #4
100004c0:	4694      	mov	ip, r2
100004c2:	9a01      	ldr	r2, [sp, #4]
100004c4:	350c      	adds	r5, #12
100004c6:	3204      	adds	r2, #4
100004c8:	44e2      	add	sl, ip
100004ca:	3618      	adds	r6, #24
100004cc:	44e1      	add	r9, ip
100004ce:	9201      	str	r2, [sp, #4]
100004d0:	602b      	str	r3, [r5, #0]
100004d2:	2307      	movs	r3, #7
100004d4:	712b      	strb	r3, [r5, #4]
100004d6:	3b06      	subs	r3, #6
100004d8:	716b      	strb	r3, [r5, #5]
100004da:	71af      	strb	r7, [r5, #6]
100004dc:	71ef      	strb	r7, [r5, #7]
100004de:	f003 fcef 	bl	10003ec0 <rand>
100004e2:	2303      	movs	r3, #3
100004e4:	17c4      	asrs	r4, r0, #31
100004e6:	0fa4      	lsrs	r4, r4, #30
100004e8:	1900      	adds	r0, r0, r4
100004ea:	4018      	ands	r0, r3
100004ec:	1b04      	subs	r4, r0, r4
100004ee:	1c63      	adds	r3, r4, #1
100004f0:	469b      	mov	fp, r3
100004f2:	f003 fce5 	bl	10003ec0 <rand>
100004f6:	2380      	movs	r3, #128	; 0x80
100004f8:	021b      	lsls	r3, r3, #8
100004fa:	4218      	tst	r0, r3
100004fc:	d101      	bne.n	10000502 <main+0x18a>
100004fe:	43e3      	mvns	r3, r4
10000500:	469b      	mov	fp, r3
10000502:	465a      	mov	r2, fp
10000504:	9b01      	ldr	r3, [sp, #4]
10000506:	601a      	str	r2, [r3, #0]
10000508:	f003 fcda 	bl	10003ec0 <rand>
1000050c:	2303      	movs	r3, #3
1000050e:	17c4      	asrs	r4, r0, #31
10000510:	0fa4      	lsrs	r4, r4, #30
10000512:	1900      	adds	r0, r0, r4
10000514:	4018      	ands	r0, r3
10000516:	1b04      	subs	r4, r0, r4
10000518:	1c63      	adds	r3, r4, #1
1000051a:	469b      	mov	fp, r3
1000051c:	f003 fcd0 	bl	10003ec0 <rand>
10000520:	2380      	movs	r3, #128	; 0x80
10000522:	021b      	lsls	r3, r3, #8
10000524:	4218      	tst	r0, r3
10000526:	d101      	bne.n	1000052c <main+0x1b4>
10000528:	43e3      	mvns	r3, r4
1000052a:	469b      	mov	fp, r3
1000052c:	465a      	mov	r2, fp
1000052e:	464b      	mov	r3, r9
10000530:	601a      	str	r2, [r3, #0]
10000532:	f003 fcc5 	bl	10003ec0 <rand>
10000536:	2303      	movs	r3, #3
10000538:	17c4      	asrs	r4, r0, #31
1000053a:	0fa4      	lsrs	r4, r4, #30
1000053c:	1900      	adds	r0, r0, r4
1000053e:	4018      	ands	r0, r3
10000540:	1b04      	subs	r4, r0, r4
10000542:	1c63      	adds	r3, r4, #1
10000544:	469b      	mov	fp, r3
10000546:	f003 fcbb 	bl	10003ec0 <rand>
1000054a:	2380      	movs	r3, #128	; 0x80
1000054c:	021b      	lsls	r3, r3, #8
1000054e:	4218      	tst	r0, r3
10000550:	d101      	bne.n	10000556 <main+0x1de>
10000552:	43e3      	mvns	r3, r4
10000554:	469b      	mov	fp, r3
10000556:	4653      	mov	r3, sl
10000558:	465a      	mov	r2, fp
1000055a:	601a      	str	r2, [r3, #0]
1000055c:	4b1f      	ldr	r3, [pc, #124]	; (100005dc <main+0x264>)
1000055e:	6077      	str	r7, [r6, #4]
10000560:	4443      	add	r3, r8
10000562:	701f      	strb	r7, [r3, #0]
10000564:	2380      	movs	r3, #128	; 0x80
10000566:	025b      	lsls	r3, r3, #9
10000568:	6033      	str	r3, [r6, #0]
1000056a:	6133      	str	r3, [r6, #16]
1000056c:	2301      	movs	r3, #1
1000056e:	469c      	mov	ip, r3
10000570:	44e0      	add	r8, ip
10000572:	4643      	mov	r3, r8
10000574:	60b7      	str	r7, [r6, #8]
10000576:	60f7      	str	r7, [r6, #12]
10000578:	6177      	str	r7, [r6, #20]
1000057a:	2b41      	cmp	r3, #65	; 0x41
1000057c:	d18a      	bne.n	10000494 <main+0x11c>
1000057e:	4818      	ldr	r0, [pc, #96]	; (100005e0 <main+0x268>)
10000580:	f002 fb1a 	bl	10002bb8 <__wrap_puts>
10000584:	f003 fe54 	bl	10004230 <__render_loop_veneer>
10000588:	20001170 	.word	0x20001170
1000058c:	1000428c 	.word	0x1000428c
10000590:	10004250 	.word	0x10004250
10000594:	2001296c 	.word	0x2001296c
10000598:	50200000 	.word	0x50200000
1000059c:	10004260 	.word	0x10004260
100005a0:	1000030d 	.word	0x1000030d
100005a4:	10004270 	.word	0x10004270
100005a8:	20012c10 	.word	0x20012c10
100005ac:	2001333c 	.word	0x2001333c
100005b0:	200135bc 	.word	0x200135bc
100005b4:	2001383c 	.word	0x2001383c
100005b8:	20013abc 	.word	0x20013abc
100005bc:	2001261c 	.word	0x2001261c
100005c0:	20012518 	.word	0x20012518
100005c4:	20012c20 	.word	0x20012c20
100005c8:	20012620 	.word	0x20012620
100005cc:	20012414 	.word	0x20012414
100005d0:	20012d24 	.word	0x20012d24
100005d4:	200096e8 	.word	0x200096e8
100005d8:	200014e8 	.word	0x200014e8
100005dc:	20012928 	.word	0x20012928
100005e0:	100042c0 	.word	0x100042c0

100005e4 <set_sys_clock_pll>:
100005e4:	b5f0      	push	{r4, r5, r6, r7, lr}
100005e6:	b083      	sub	sp, #12
100005e8:	0005      	movs	r5, r0
100005ea:	000e      	movs	r6, r1
100005ec:	0014      	movs	r4, r2
100005ee:	f000 f9bf 	bl	10000970 <running_on_fpga>
100005f2:	2800      	cmp	r0, #0
100005f4:	d001      	beq.n	100005fa <set_sys_clock_pll+0x16>
100005f6:	b003      	add	sp, #12
100005f8:	bdf0      	pop	{r4, r5, r6, r7, pc}
100005fa:	4f15      	ldr	r7, [pc, #84]	; (10000650 <set_sys_clock_pll+0x6c>)
100005fc:	2201      	movs	r2, #1
100005fe:	003b      	movs	r3, r7
10000600:	2101      	movs	r1, #1
10000602:	9700      	str	r7, [sp, #0]
10000604:	3005      	adds	r0, #5
10000606:	f001 fb59 	bl	10001cbc <clock_configure>
1000060a:	0033      	movs	r3, r6
1000060c:	002a      	movs	r2, r5
1000060e:	9400      	str	r4, [sp, #0]
10000610:	2101      	movs	r1, #1
10000612:	4810      	ldr	r0, [pc, #64]	; (10000654 <set_sys_clock_pll+0x70>)
10000614:	f001 fd40 	bl	10002098 <pll_init>
10000618:	0021      	movs	r1, r4
1000061a:	0028      	movs	r0, r5
1000061c:	4371      	muls	r1, r6
1000061e:	f001 fe3d 	bl	1000229c <__wrap___aeabi_uidiv>
10000622:	0004      	movs	r4, r0
10000624:	4b0c      	ldr	r3, [pc, #48]	; (10000658 <set_sys_clock_pll+0x74>)
10000626:	2200      	movs	r2, #0
10000628:	9300      	str	r3, [sp, #0]
1000062a:	2102      	movs	r1, #2
1000062c:	2004      	movs	r0, #4
1000062e:	f001 fb45 	bl	10001cbc <clock_configure>
10000632:	0023      	movs	r3, r4
10000634:	2200      	movs	r2, #0
10000636:	2101      	movs	r1, #1
10000638:	9400      	str	r4, [sp, #0]
1000063a:	2005      	movs	r0, #5
1000063c:	f001 fb3e 	bl	10001cbc <clock_configure>
10000640:	003b      	movs	r3, r7
10000642:	2202      	movs	r2, #2
10000644:	2100      	movs	r1, #0
10000646:	9700      	str	r7, [sp, #0]
10000648:	2006      	movs	r0, #6
1000064a:	f001 fb37 	bl	10001cbc <clock_configure>
1000064e:	e7d2      	b.n	100005f6 <set_sys_clock_pll+0x12>
10000650:	02dc6c00 	.word	0x02dc6c00
10000654:	40028000 	.word	0x40028000
10000658:	00b71b00 	.word	0x00b71b00

1000065c <check_sys_clock_khz>:
1000065c:	b5f0      	push	{r4, r5, r6, r7, lr}
1000065e:	46de      	mov	lr, fp
10000660:	4657      	mov	r7, sl
10000662:	464e      	mov	r6, r9
10000664:	4645      	mov	r5, r8
10000666:	b5e0      	push	{r5, r6, r7, lr}
10000668:	0007      	movs	r7, r0
1000066a:	b083      	sub	sp, #12
1000066c:	2004      	movs	r0, #4
1000066e:	469b      	mov	fp, r3
10000670:	9100      	str	r1, [sp, #0]
10000672:	9201      	str	r2, [sp, #4]
10000674:	f001 fd0a 	bl	1000208c <clock_get_hz>
10000678:	21fa      	movs	r1, #250	; 0xfa
1000067a:	0089      	lsls	r1, r1, #2
1000067c:	f001 fe0e 	bl	1000229c <__wrap___aeabi_uidiv>
10000680:	2332      	movs	r3, #50	; 0x32
10000682:	4682      	mov	sl, r0
10000684:	33ff      	adds	r3, #255	; 0xff
10000686:	4699      	mov	r9, r3
10000688:	0086      	lsls	r6, r0, #2
1000068a:	4456      	add	r6, sl
1000068c:	01b6      	lsls	r6, r6, #6
1000068e:	4b4c      	ldr	r3, [pc, #304]	; (100007c0 <check_sys_clock_khz+0x164>)
10000690:	4a4c      	ldr	r2, [pc, #304]	; (100007c4 <check_sys_clock_khz+0x168>)
10000692:	18f3      	adds	r3, r6, r3
10000694:	2407      	movs	r4, #7
10000696:	4293      	cmp	r3, r2
10000698:	d90b      	bls.n	100006b2 <check_sys_clock_khz+0x56>
1000069a:	2301      	movs	r3, #1
1000069c:	425b      	negs	r3, r3
1000069e:	469c      	mov	ip, r3
100006a0:	4653      	mov	r3, sl
100006a2:	44e1      	add	r9, ip
100006a4:	1af6      	subs	r6, r6, r3
100006a6:	464b      	mov	r3, r9
100006a8:	2b00      	cmp	r3, #0
100006aa:	d1f0      	bne.n	1000068e <check_sys_clock_khz+0x32>
100006ac:	2000      	movs	r0, #0
100006ae:	e05a      	b.n	10000766 <check_sys_clock_khz+0x10a>
100006b0:	2401      	movs	r4, #1
100006b2:	0021      	movs	r1, r4
100006b4:	0030      	movs	r0, r6
100006b6:	4361      	muls	r1, r4
100006b8:	f001 fdf0 	bl	1000229c <__wrap___aeabi_uidiv>
100006bc:	4287      	cmp	r7, r0
100006be:	d059      	beq.n	10000774 <check_sys_clock_khz+0x118>
100006c0:	1e63      	subs	r3, r4, #1
100006c2:	4698      	mov	r8, r3
100006c4:	2c01      	cmp	r4, #1
100006c6:	d0e8      	beq.n	1000069a <check_sys_clock_khz+0x3e>
100006c8:	001d      	movs	r5, r3
100006ca:	4365      	muls	r5, r4
100006cc:	0030      	movs	r0, r6
100006ce:	0029      	movs	r1, r5
100006d0:	f001 fde4 	bl	1000229c <__wrap___aeabi_uidiv>
100006d4:	4287      	cmp	r7, r0
100006d6:	d051      	beq.n	1000077c <check_sys_clock_khz+0x120>
100006d8:	1ea3      	subs	r3, r4, #2
100006da:	4698      	mov	r8, r3
100006dc:	2c02      	cmp	r4, #2
100006de:	d0e7      	beq.n	100006b0 <check_sys_clock_khz+0x54>
100006e0:	1b2d      	subs	r5, r5, r4
100006e2:	0029      	movs	r1, r5
100006e4:	0030      	movs	r0, r6
100006e6:	f001 fdd9 	bl	1000229c <__wrap___aeabi_uidiv>
100006ea:	4287      	cmp	r7, r0
100006ec:	d049      	beq.n	10000782 <check_sys_clock_khz+0x126>
100006ee:	1ee3      	subs	r3, r4, #3
100006f0:	4698      	mov	r8, r3
100006f2:	2c03      	cmp	r4, #3
100006f4:	d04b      	beq.n	1000078e <check_sys_clock_khz+0x132>
100006f6:	1b2d      	subs	r5, r5, r4
100006f8:	0029      	movs	r1, r5
100006fa:	0030      	movs	r0, r6
100006fc:	f001 fdce 	bl	1000229c <__wrap___aeabi_uidiv>
10000700:	4287      	cmp	r7, r0
10000702:	d046      	beq.n	10000792 <check_sys_clock_khz+0x136>
10000704:	1f23      	subs	r3, r4, #4
10000706:	4698      	mov	r8, r3
10000708:	2c04      	cmp	r4, #4
1000070a:	d048      	beq.n	1000079e <check_sys_clock_khz+0x142>
1000070c:	1b2d      	subs	r5, r5, r4
1000070e:	0029      	movs	r1, r5
10000710:	0030      	movs	r0, r6
10000712:	f001 fdc3 	bl	1000229c <__wrap___aeabi_uidiv>
10000716:	4287      	cmp	r7, r0
10000718:	d043      	beq.n	100007a2 <check_sys_clock_khz+0x146>
1000071a:	1f63      	subs	r3, r4, #5
1000071c:	4698      	mov	r8, r3
1000071e:	2c05      	cmp	r4, #5
10000720:	d045      	beq.n	100007ae <check_sys_clock_khz+0x152>
10000722:	1b2d      	subs	r5, r5, r4
10000724:	0029      	movs	r1, r5
10000726:	0030      	movs	r0, r6
10000728:	f001 fdb8 	bl	1000229c <__wrap___aeabi_uidiv>
1000072c:	4287      	cmp	r7, r0
1000072e:	d040      	beq.n	100007b2 <check_sys_clock_khz+0x156>
10000730:	2c06      	cmp	r4, #6
10000732:	d042      	beq.n	100007ba <check_sys_clock_khz+0x15e>
10000734:	0030      	movs	r0, r6
10000736:	1fe9      	subs	r1, r5, #7
10000738:	f001 fdb0 	bl	1000229c <__wrap___aeabi_uidiv>
1000073c:	2406      	movs	r4, #6
1000073e:	4287      	cmp	r7, r0
10000740:	d1b7      	bne.n	100006b2 <check_sys_clock_khz+0x56>
10000742:	2900      	cmp	r1, #0
10000744:	d1b5      	bne.n	100006b2 <check_sys_clock_khz+0x56>
10000746:	2301      	movs	r3, #1
10000748:	2407      	movs	r4, #7
1000074a:	4698      	mov	r8, r3
1000074c:	0173      	lsls	r3, r6, #5
1000074e:	1b9b      	subs	r3, r3, r6
10000750:	009b      	lsls	r3, r3, #2
10000752:	199e      	adds	r6, r3, r6
10000754:	9b00      	ldr	r3, [sp, #0]
10000756:	00f6      	lsls	r6, r6, #3
10000758:	601e      	str	r6, [r3, #0]
1000075a:	9b01      	ldr	r3, [sp, #4]
1000075c:	4642      	mov	r2, r8
1000075e:	601c      	str	r4, [r3, #0]
10000760:	465b      	mov	r3, fp
10000762:	2001      	movs	r0, #1
10000764:	601a      	str	r2, [r3, #0]
10000766:	b003      	add	sp, #12
10000768:	bc3c      	pop	{r2, r3, r4, r5}
1000076a:	4690      	mov	r8, r2
1000076c:	4699      	mov	r9, r3
1000076e:	46a2      	mov	sl, r4
10000770:	46ab      	mov	fp, r5
10000772:	bdf0      	pop	{r4, r5, r6, r7, pc}
10000774:	2900      	cmp	r1, #0
10000776:	d1a3      	bne.n	100006c0 <check_sys_clock_khz+0x64>
10000778:	46a0      	mov	r8, r4
1000077a:	e7e7      	b.n	1000074c <check_sys_clock_khz+0xf0>
1000077c:	2900      	cmp	r1, #0
1000077e:	d1ab      	bne.n	100006d8 <check_sys_clock_khz+0x7c>
10000780:	e7e4      	b.n	1000074c <check_sys_clock_khz+0xf0>
10000782:	2900      	cmp	r1, #0
10000784:	d0e2      	beq.n	1000074c <check_sys_clock_khz+0xf0>
10000786:	1ee3      	subs	r3, r4, #3
10000788:	4698      	mov	r8, r3
1000078a:	2c03      	cmp	r4, #3
1000078c:	d1b3      	bne.n	100006f6 <check_sys_clock_khz+0x9a>
1000078e:	2402      	movs	r4, #2
10000790:	e78f      	b.n	100006b2 <check_sys_clock_khz+0x56>
10000792:	2900      	cmp	r1, #0
10000794:	d0da      	beq.n	1000074c <check_sys_clock_khz+0xf0>
10000796:	1f23      	subs	r3, r4, #4
10000798:	4698      	mov	r8, r3
1000079a:	2c04      	cmp	r4, #4
1000079c:	d1b6      	bne.n	1000070c <check_sys_clock_khz+0xb0>
1000079e:	2403      	movs	r4, #3
100007a0:	e787      	b.n	100006b2 <check_sys_clock_khz+0x56>
100007a2:	2900      	cmp	r1, #0
100007a4:	d0d2      	beq.n	1000074c <check_sys_clock_khz+0xf0>
100007a6:	1f63      	subs	r3, r4, #5
100007a8:	4698      	mov	r8, r3
100007aa:	2c05      	cmp	r4, #5
100007ac:	d1b9      	bne.n	10000722 <check_sys_clock_khz+0xc6>
100007ae:	2404      	movs	r4, #4
100007b0:	e77f      	b.n	100006b2 <check_sys_clock_khz+0x56>
100007b2:	2900      	cmp	r1, #0
100007b4:	d0ca      	beq.n	1000074c <check_sys_clock_khz+0xf0>
100007b6:	2c06      	cmp	r4, #6
100007b8:	d1bc      	bne.n	10000734 <check_sys_clock_khz+0xd8>
100007ba:	2405      	movs	r4, #5
100007bc:	e779      	b.n	100006b2 <check_sys_clock_khz+0x56>
100007be:	46c0      	nop			; (mov r8, r8)
100007c0:	fff48e50 	.word	0xfff48e50
100007c4:	000cf850 	.word	0x000cf850

100007c8 <setup_default_uart>:
100007c8:	b510      	push	{r4, lr}
100007ca:	f002 fa6d 	bl	10002ca8 <stdio_uart_init>
100007ce:	bd10      	pop	{r4, pc}

100007d0 <gpio_set_function>:
100007d0:	4a09      	ldr	r2, [pc, #36]	; (100007f8 <gpio_set_function+0x28>)
100007d2:	0083      	lsls	r3, r0, #2
100007d4:	4694      	mov	ip, r2
100007d6:	2240      	movs	r2, #64	; 0x40
100007d8:	4463      	add	r3, ip
100007da:	b510      	push	{r4, lr}
100007dc:	681c      	ldr	r4, [r3, #0]
100007de:	00c0      	lsls	r0, r0, #3
100007e0:	4062      	eors	r2, r4
100007e2:	24c0      	movs	r4, #192	; 0xc0
100007e4:	4014      	ands	r4, r2
100007e6:	2280      	movs	r2, #128	; 0x80
100007e8:	0152      	lsls	r2, r2, #5
100007ea:	4313      	orrs	r3, r2
100007ec:	601c      	str	r4, [r3, #0]
100007ee:	4b03      	ldr	r3, [pc, #12]	; (100007fc <gpio_set_function+0x2c>)
100007f0:	469c      	mov	ip, r3
100007f2:	4460      	add	r0, ip
100007f4:	6041      	str	r1, [r0, #4]
100007f6:	bd10      	pop	{r4, pc}
100007f8:	4001c004 	.word	0x4001c004
100007fc:	40014000 	.word	0x40014000

10000800 <gpio_set_outover>:
10000800:	4b07      	ldr	r3, [pc, #28]	; (10000820 <gpio_set_outover+0x20>)
10000802:	00c0      	lsls	r0, r0, #3
10000804:	469c      	mov	ip, r3
10000806:	4460      	add	r0, ip
10000808:	6803      	ldr	r3, [r0, #0]
1000080a:	0209      	lsls	r1, r1, #8
1000080c:	4059      	eors	r1, r3
1000080e:	23c0      	movs	r3, #192	; 0xc0
10000810:	009b      	lsls	r3, r3, #2
10000812:	4019      	ands	r1, r3
10000814:	2380      	movs	r3, #128	; 0x80
10000816:	015b      	lsls	r3, r3, #5
10000818:	4318      	orrs	r0, r3
1000081a:	6001      	str	r1, [r0, #0]
1000081c:	4770      	bx	lr
1000081e:	46c0      	nop			; (mov r8, r8)
10000820:	40014004 	.word	0x40014004

10000824 <gpio_init>:
10000824:	2301      	movs	r3, #1
10000826:	22d0      	movs	r2, #208	; 0xd0
10000828:	4083      	lsls	r3, r0
1000082a:	0612      	lsls	r2, r2, #24
1000082c:	6293      	str	r3, [r2, #40]	; 0x28
1000082e:	6193      	str	r3, [r2, #24]
10000830:	4a09      	ldr	r2, [pc, #36]	; (10000858 <gpio_init+0x34>)
10000832:	0083      	lsls	r3, r0, #2
10000834:	4694      	mov	ip, r2
10000836:	2240      	movs	r2, #64	; 0x40
10000838:	4463      	add	r3, ip
1000083a:	6819      	ldr	r1, [r3, #0]
1000083c:	00c0      	lsls	r0, r0, #3
1000083e:	404a      	eors	r2, r1
10000840:	21c0      	movs	r1, #192	; 0xc0
10000842:	4011      	ands	r1, r2
10000844:	2280      	movs	r2, #128	; 0x80
10000846:	0152      	lsls	r2, r2, #5
10000848:	4313      	orrs	r3, r2
1000084a:	6019      	str	r1, [r3, #0]
1000084c:	4b03      	ldr	r3, [pc, #12]	; (1000085c <gpio_init+0x38>)
1000084e:	469c      	mov	ip, r3
10000850:	2305      	movs	r3, #5
10000852:	4460      	add	r0, ip
10000854:	6043      	str	r3, [r0, #4]
10000856:	4770      	bx	lr
10000858:	4001c004 	.word	0x4001c004
1000085c:	40014000 	.word	0x40014000

10000860 <hw_claim_lock>:
10000860:	f3ef 8010 	mrs	r0, PRIMASK
10000864:	b672      	cpsid	i
10000866:	4a03      	ldr	r2, [pc, #12]	; (10000874 <hw_claim_lock+0x14>)
10000868:	6813      	ldr	r3, [r2, #0]
1000086a:	2b00      	cmp	r3, #0
1000086c:	d0fc      	beq.n	10000868 <hw_claim_lock+0x8>
1000086e:	f3bf 8f5f 	dmb	sy
10000872:	4770      	bx	lr
10000874:	d000012c 	.word	0xd000012c

10000878 <hw_claim_unlock>:
10000878:	f3bf 8f5f 	dmb	sy
1000087c:	2200      	movs	r2, #0
1000087e:	4b02      	ldr	r3, [pc, #8]	; (10000888 <hw_claim_unlock+0x10>)
10000880:	601a      	str	r2, [r3, #0]
10000882:	f380 8810 	msr	PRIMASK, r0
10000886:	4770      	bx	lr
10000888:	d000012c 	.word	0xd000012c

1000088c <hw_claim_or_assert>:
1000088c:	b5f8      	push	{r3, r4, r5, r6, r7, lr}
1000088e:	f3ef 8710 	mrs	r7, PRIMASK
10000892:	b672      	cpsid	i
10000894:	4e0e      	ldr	r6, [pc, #56]	; (100008d0 <hw_claim_or_assert+0x44>)
10000896:	6833      	ldr	r3, [r6, #0]
10000898:	2b00      	cmp	r3, #0
1000089a:	d0fc      	beq.n	10000896 <hw_claim_or_assert+0xa>
1000089c:	f3bf 8f5f 	dmb	sy
100008a0:	08cb      	lsrs	r3, r1, #3
100008a2:	18c4      	adds	r4, r0, r3
100008a4:	2507      	movs	r5, #7
100008a6:	46a4      	mov	ip, r4
100008a8:	5cc4      	ldrb	r4, [r0, r3]
100008aa:	2301      	movs	r3, #1
100008ac:	400d      	ands	r5, r1
100008ae:	40ab      	lsls	r3, r5
100008b0:	0018      	movs	r0, r3
100008b2:	4020      	ands	r0, r4
100008b4:	4223      	tst	r3, r4
100008b6:	d108      	bne.n	100008ca <hw_claim_or_assert+0x3e>
100008b8:	4662      	mov	r2, ip
100008ba:	4323      	orrs	r3, r4
100008bc:	7013      	strb	r3, [r2, #0]
100008be:	f3bf 8f5f 	dmb	sy
100008c2:	6030      	str	r0, [r6, #0]
100008c4:	f387 8810 	msr	PRIMASK, r7
100008c8:	bdf8      	pop	{r3, r4, r5, r6, r7, pc}
100008ca:	0010      	movs	r0, r2
100008cc:	f001 f9d8 	bl	10001c80 <panic>
100008d0:	d000012c 	.word	0xd000012c

100008d4 <hw_claim_unused_from_range>:
100008d4:	b5f8      	push	{r3, r4, r5, r6, r7, lr}
100008d6:	46ce      	mov	lr, r9
100008d8:	4647      	mov	r7, r8
100008da:	468c      	mov	ip, r1
100008dc:	b580      	push	{r7, lr}
100008de:	f3ef 8810 	mrs	r8, PRIMASK
100008e2:	b672      	cpsid	i
100008e4:	4d21      	ldr	r5, [pc, #132]	; (1000096c <hw_claim_unused_from_range+0x98>)
100008e6:	682c      	ldr	r4, [r5, #0]
100008e8:	2c00      	cmp	r4, #0
100008ea:	d0fc      	beq.n	100008e6 <hw_claim_unused_from_range+0x12>
100008ec:	f3bf 8f5f 	dmb	sy
100008f0:	429a      	cmp	r2, r3
100008f2:	d82c      	bhi.n	1000094e <hw_claim_unused_from_range+0x7a>
100008f4:	08d4      	lsrs	r4, r2, #3
100008f6:	2107      	movs	r1, #7
100008f8:	5d05      	ldrb	r5, [r0, r4]
100008fa:	1906      	adds	r6, r0, r4
100008fc:	2401      	movs	r4, #1
100008fe:	4011      	ands	r1, r2
10000900:	408c      	lsls	r4, r1
10000902:	422c      	tst	r4, r5
10000904:	d01f      	beq.n	10000946 <hw_claim_unused_from_range+0x72>
10000906:	2107      	movs	r1, #7
10000908:	4689      	mov	r9, r1
1000090a:	3906      	subs	r1, #6
1000090c:	e009      	b.n	10000922 <hw_claim_unused_from_range+0x4e>
1000090e:	08d4      	lsrs	r4, r2, #3
10000910:	5d05      	ldrb	r5, [r0, r4]
10000912:	1906      	adds	r6, r0, r4
10000914:	464c      	mov	r4, r9
10000916:	000f      	movs	r7, r1
10000918:	4014      	ands	r4, r2
1000091a:	40a7      	lsls	r7, r4
1000091c:	003c      	movs	r4, r7
1000091e:	422f      	tst	r7, r5
10000920:	d011      	beq.n	10000946 <hw_claim_unused_from_range+0x72>
10000922:	3201      	adds	r2, #1
10000924:	4293      	cmp	r3, r2
10000926:	d2f2      	bcs.n	1000090e <hw_claim_unused_from_range+0x3a>
10000928:	2001      	movs	r0, #1
1000092a:	4240      	negs	r0, r0
1000092c:	f3bf 8f5f 	dmb	sy
10000930:	2200      	movs	r2, #0
10000932:	4b0e      	ldr	r3, [pc, #56]	; (1000096c <hw_claim_unused_from_range+0x98>)
10000934:	601a      	str	r2, [r3, #0]
10000936:	f388 8810 	msr	PRIMASK, r8
1000093a:	2800      	cmp	r0, #0
1000093c:	db0f      	blt.n	1000095e <hw_claim_unused_from_range+0x8a>
1000093e:	bc0c      	pop	{r2, r3}
10000940:	4690      	mov	r8, r2
10000942:	4699      	mov	r9, r3
10000944:	bdf8      	pop	{r3, r4, r5, r6, r7, pc}
10000946:	432c      	orrs	r4, r5
10000948:	0010      	movs	r0, r2
1000094a:	7034      	strb	r4, [r6, #0]
1000094c:	e7ee      	b.n	1000092c <hw_claim_unused_from_range+0x58>
1000094e:	f3bf 8f5f 	dmb	sy
10000952:	2300      	movs	r3, #0
10000954:	602b      	str	r3, [r5, #0]
10000956:	f388 8810 	msr	PRIMASK, r8
1000095a:	2001      	movs	r0, #1
1000095c:	4240      	negs	r0, r0
1000095e:	4663      	mov	r3, ip
10000960:	2b00      	cmp	r3, #0
10000962:	d0ec      	beq.n	1000093e <hw_claim_unused_from_range+0x6a>
10000964:	9808      	ldr	r0, [sp, #32]
10000966:	f001 f98b 	bl	10001c80 <panic>
1000096a:	46c0      	nop			; (mov r8, r8)
1000096c:	d000012c 	.word	0xd000012c

10000970 <running_on_fpga>:
10000970:	4b02      	ldr	r3, [pc, #8]	; (1000097c <running_on_fpga+0xc>)
10000972:	6818      	ldr	r0, [r3, #0]
10000974:	0780      	lsls	r0, r0, #30
10000976:	0fc0      	lsrs	r0, r0, #31
10000978:	4770      	bx	lr
1000097a:	46c0      	nop			; (mov r8, r8)
1000097c:	4006c000 	.word	0x4006c000

10000980 <spin_locks_reset>:
10000980:	2100      	movs	r1, #0
10000982:	4b04      	ldr	r3, [pc, #16]	; (10000994 <spin_locks_reset+0x14>)
10000984:	4a04      	ldr	r2, [pc, #16]	; (10000998 <spin_locks_reset+0x18>)
10000986:	f3bf 8f5f 	dmb	sy
1000098a:	c302      	stmia	r3!, {r1}
1000098c:	4293      	cmp	r3, r2
1000098e:	d1fa      	bne.n	10000986 <spin_locks_reset+0x6>
10000990:	4770      	bx	lr
10000992:	46c0      	nop			; (mov r8, r8)
10000994:	d0000100 	.word	0xd0000100
10000998:	d0000180 	.word	0xd0000180

1000099c <next_striped_spin_lock_num>:
1000099c:	4a04      	ldr	r2, [pc, #16]	; (100009b0 <next_striped_spin_lock_num+0x14>)
1000099e:	7810      	ldrb	r0, [r2, #0]
100009a0:	1c43      	adds	r3, r0, #1
100009a2:	b2db      	uxtb	r3, r3
100009a4:	2b17      	cmp	r3, #23
100009a6:	d900      	bls.n	100009aa <next_striped_spin_lock_num+0xe>
100009a8:	2310      	movs	r3, #16
100009aa:	7013      	strb	r3, [r2, #0]
100009ac:	4770      	bx	lr
100009ae:	46c0      	nop			; (mov r8, r8)
100009b0:	200118e8 	.word	0x200118e8

100009b4 <irq_set_enabled>:
100009b4:	2301      	movs	r3, #1
100009b6:	4083      	lsls	r3, r0
100009b8:	2900      	cmp	r1, #0
100009ba:	d004      	beq.n	100009c6 <irq_set_enabled+0x12>
100009bc:	4a03      	ldr	r2, [pc, #12]	; (100009cc <irq_set_enabled+0x18>)
100009be:	6013      	str	r3, [r2, #0]
100009c0:	4a03      	ldr	r2, [pc, #12]	; (100009d0 <irq_set_enabled+0x1c>)
100009c2:	6013      	str	r3, [r2, #0]
100009c4:	4770      	bx	lr
100009c6:	4a03      	ldr	r2, [pc, #12]	; (100009d4 <irq_set_enabled+0x20>)
100009c8:	6013      	str	r3, [r2, #0]
100009ca:	e7fb      	b.n	100009c4 <irq_set_enabled+0x10>
100009cc:	e000e280 	.word	0xe000e280
100009d0:	e000e100 	.word	0xe000e100
100009d4:	e000e180 	.word	0xe000e180

100009d8 <irq_is_enabled>:
100009d8:	2201      	movs	r2, #1
100009da:	4082      	lsls	r2, r0
100009dc:	4b03      	ldr	r3, [pc, #12]	; (100009ec <irq_is_enabled+0x14>)
100009de:	681b      	ldr	r3, [r3, #0]
100009e0:	4013      	ands	r3, r2
100009e2:	1e58      	subs	r0, r3, #1
100009e4:	4183      	sbcs	r3, r0
100009e6:	b2d8      	uxtb	r0, r3
100009e8:	4770      	bx	lr
100009ea:	46c0      	nop			; (mov r8, r8)
100009ec:	e000e100 	.word	0xe000e100

100009f0 <irq_get_vtable_handler>:
100009f0:	4b02      	ldr	r3, [pc, #8]	; (100009fc <irq_get_vtable_handler+0xc>)
100009f2:	3010      	adds	r0, #16
100009f4:	689b      	ldr	r3, [r3, #8]
100009f6:	0080      	lsls	r0, r0, #2
100009f8:	58c0      	ldr	r0, [r0, r3]
100009fa:	4770      	bx	lr
100009fc:	e000ed00 	.word	0xe000ed00

10000a00 <irq_set_exclusive_handler>:
10000a00:	b570      	push	{r4, r5, r6, lr}
10000a02:	000d      	movs	r5, r1
10000a04:	f3ef 8610 	mrs	r6, PRIMASK
10000a08:	b672      	cpsid	i
10000a0a:	4a0f      	ldr	r2, [pc, #60]	; (10000a48 <irq_set_exclusive_handler+0x48>)
10000a0c:	6813      	ldr	r3, [r2, #0]
10000a0e:	2b00      	cmp	r3, #0
10000a10:	d0fc      	beq.n	10000a0c <irq_set_exclusive_handler+0xc>
10000a12:	f3bf 8f5f 	dmb	sy
10000a16:	4b0d      	ldr	r3, [pc, #52]	; (10000a4c <irq_set_exclusive_handler+0x4c>)
10000a18:	3010      	adds	r0, #16
10000a1a:	689b      	ldr	r3, [r3, #8]
10000a1c:	0084      	lsls	r4, r0, #2
10000a1e:	591b      	ldr	r3, [r3, r4]
10000a20:	4a0b      	ldr	r2, [pc, #44]	; (10000a50 <irq_set_exclusive_handler+0x50>)
10000a22:	4293      	cmp	r3, r2
10000a24:	d003      	beq.n	10000a2e <irq_set_exclusive_handler+0x2e>
10000a26:	429d      	cmp	r5, r3
10000a28:	d001      	beq.n	10000a2e <irq_set_exclusive_handler+0x2e>
10000a2a:	f001 f941 	bl	10001cb0 <hard_assertion_failure>
10000a2e:	4b07      	ldr	r3, [pc, #28]	; (10000a4c <irq_set_exclusive_handler+0x4c>)
10000a30:	689b      	ldr	r3, [r3, #8]
10000a32:	511d      	str	r5, [r3, r4]
10000a34:	f3bf 8f5f 	dmb	sy
10000a38:	f3bf 8f5f 	dmb	sy
10000a3c:	2200      	movs	r2, #0
10000a3e:	4b02      	ldr	r3, [pc, #8]	; (10000a48 <irq_set_exclusive_handler+0x48>)
10000a40:	601a      	str	r2, [r3, #0]
10000a42:	f386 8810 	msr	PRIMASK, r6
10000a46:	bd70      	pop	{r4, r5, r6, pc}
10000a48:	d0000124 	.word	0xd0000124
10000a4c:	e000ed00 	.word	0xe000ed00
10000a50:	100001cd 	.word	0x100001cd

10000a54 <irq_remove_handler>:
10000a54:	b5f0      	push	{r4, r5, r6, r7, lr}
10000a56:	46de      	mov	lr, fp
10000a58:	4657      	mov	r7, sl
10000a5a:	464e      	mov	r6, r9
10000a5c:	4645      	mov	r5, r8
10000a5e:	b5e0      	push	{r5, r6, r7, lr}
10000a60:	000c      	movs	r4, r1
10000a62:	b083      	sub	sp, #12
10000a64:	f3ef 8a10 	mrs	sl, PRIMASK
10000a68:	b672      	cpsid	i
10000a6a:	4a5a      	ldr	r2, [pc, #360]	; (10000bd4 <irq_remove_handler+0x180>)
10000a6c:	6813      	ldr	r3, [r2, #0]
10000a6e:	2b00      	cmp	r3, #0
10000a70:	d0fc      	beq.n	10000a6c <irq_remove_handler+0x18>
10000a72:	f3bf 8f5f 	dmb	sy
10000a76:	2210      	movs	r2, #16
10000a78:	4691      	mov	r9, r2
10000a7a:	4481      	add	r9, r0
10000a7c:	464a      	mov	r2, r9
10000a7e:	4b56      	ldr	r3, [pc, #344]	; (10000bd8 <irq_remove_handler+0x184>)
10000a80:	0096      	lsls	r6, r2, #2
10000a82:	689b      	ldr	r3, [r3, #8]
10000a84:	599d      	ldr	r5, [r3, r6]
10000a86:	4b55      	ldr	r3, [pc, #340]	; (10000bdc <irq_remove_handler+0x188>)
10000a88:	4698      	mov	r8, r3
10000a8a:	429d      	cmp	r5, r3
10000a8c:	d005      	beq.n	10000a9a <irq_remove_handler+0x46>
10000a8e:	42a5      	cmp	r5, r4
10000a90:	d016      	beq.n	10000ac0 <irq_remove_handler+0x6c>
10000a92:	4f53      	ldr	r7, [pc, #332]	; (10000be0 <irq_remove_handler+0x18c>)
10000a94:	1beb      	subs	r3, r5, r7
10000a96:	2b2f      	cmp	r3, #47	; 0x2f
10000a98:	d914      	bls.n	10000ac4 <irq_remove_handler+0x70>
10000a9a:	4b4f      	ldr	r3, [pc, #316]	; (10000bd8 <irq_remove_handler+0x184>)
10000a9c:	689b      	ldr	r3, [r3, #8]
10000a9e:	519d      	str	r5, [r3, r6]
10000aa0:	f3bf 8f5f 	dmb	sy
10000aa4:	f3bf 8f5f 	dmb	sy
10000aa8:	2200      	movs	r2, #0
10000aaa:	4b4a      	ldr	r3, [pc, #296]	; (10000bd4 <irq_remove_handler+0x180>)
10000aac:	601a      	str	r2, [r3, #0]
10000aae:	f38a 8810 	msr	PRIMASK, sl
10000ab2:	b003      	add	sp, #12
10000ab4:	bc3c      	pop	{r2, r3, r4, r5}
10000ab6:	4690      	mov	r8, r2
10000ab8:	4699      	mov	r9, r3
10000aba:	46a2      	mov	sl, r4
10000abc:	46ab      	mov	fp, r5
10000abe:	bdf0      	pop	{r4, r5, r6, r7, pc}
10000ac0:	001d      	movs	r5, r3
10000ac2:	e7ea      	b.n	10000a9a <irq_remove_handler+0x46>
10000ac4:	2301      	movs	r3, #1
10000ac6:	4083      	lsls	r3, r0
10000ac8:	469b      	mov	fp, r3
10000aca:	465a      	mov	r2, fp
10000acc:	4b45      	ldr	r3, [pc, #276]	; (10000be4 <irq_remove_handler+0x190>)
10000ace:	681b      	ldr	r3, [r3, #0]
10000ad0:	401a      	ands	r2, r3
10000ad2:	9200      	str	r2, [sp, #0]
10000ad4:	465a      	mov	r2, fp
10000ad6:	4b44      	ldr	r3, [pc, #272]	; (10000be8 <irq_remove_handler+0x194>)
10000ad8:	601a      	str	r2, [r3, #0]
10000ada:	f3bf 8f5f 	dmb	sy
10000ade:	f7ff fbc2 	bl	10000266 <__get_current_exception>
10000ae2:	9001      	str	r0, [sp, #4]
10000ae4:	2800      	cmp	r0, #0
10000ae6:	d003      	beq.n	10000af0 <irq_remove_handler+0x9c>
10000ae8:	4581      	cmp	r9, r0
10000aea:	d001      	beq.n	10000af0 <irq_remove_handler+0x9c>
10000aec:	f001 f8e0 	bl	10001cb0 <hard_assertion_failure>
10000af0:	2301      	movs	r3, #1
10000af2:	002a      	movs	r2, r5
10000af4:	439a      	bics	r2, r3
10000af6:	6893      	ldr	r3, [r2, #8]
10000af8:	429c      	cmp	r4, r3
10000afa:	d108      	bne.n	10000b0e <irq_remove_handler+0xba>
10000afc:	e060      	b.n	10000bc0 <irq_remove_handler+0x16c>
10000afe:	004b      	lsls	r3, r1, #1
10000b00:	185b      	adds	r3, r3, r1
10000b02:	009b      	lsls	r3, r3, #2
10000b04:	18fb      	adds	r3, r7, r3
10000b06:	6899      	ldr	r1, [r3, #8]
10000b08:	42a1      	cmp	r1, r4
10000b0a:	d011      	beq.n	10000b30 <irq_remove_handler+0xdc>
10000b0c:	001a      	movs	r2, r3
10000b0e:	2106      	movs	r1, #6
10000b10:	5651      	ldrsb	r1, [r2, r1]
10000b12:	2900      	cmp	r1, #0
10000b14:	daf3      	bge.n	10000afe <irq_remove_handler+0xaa>
10000b16:	9b00      	ldr	r3, [sp, #0]
10000b18:	2b00      	cmp	r3, #0
10000b1a:	d005      	beq.n	10000b28 <irq_remove_handler+0xd4>
10000b1c:	465a      	mov	r2, fp
10000b1e:	4b33      	ldr	r3, [pc, #204]	; (10000bec <irq_remove_handler+0x198>)
10000b20:	601a      	str	r2, [r3, #0]
10000b22:	4b30      	ldr	r3, [pc, #192]	; (10000be4 <irq_remove_handler+0x190>)
10000b24:	601a      	str	r2, [r3, #0]
10000b26:	e7b8      	b.n	10000a9a <irq_remove_handler+0x46>
10000b28:	465a      	mov	r2, fp
10000b2a:	4b2f      	ldr	r3, [pc, #188]	; (10000be8 <irq_remove_handler+0x194>)
10000b2c:	601a      	str	r2, [r3, #0]
10000b2e:	e7b4      	b.n	10000a9a <irq_remove_handler+0x46>
10000b30:	2106      	movs	r1, #6
10000b32:	5659      	ldrsb	r1, [r3, r1]
10000b34:	2900      	cmp	r1, #0
10000b36:	db22      	blt.n	10000b7e <irq_remove_handler+0x12a>
10000b38:	004a      	lsls	r2, r1, #1
10000b3a:	1850      	adds	r0, r2, r1
10000b3c:	0080      	lsls	r0, r0, #2
10000b3e:	183c      	adds	r4, r7, r0
10000b40:	4680      	mov	r8, r0
10000b42:	68a0      	ldr	r0, [r4, #8]
10000b44:	6098      	str	r0, [r3, #8]
10000b46:	79e0      	ldrb	r0, [r4, #7]
10000b48:	71d8      	strb	r0, [r3, #7]
10000b4a:	2006      	movs	r0, #6
10000b4c:	5620      	ldrsb	r0, [r4, r0]
10000b4e:	7198      	strb	r0, [r3, #6]
10000b50:	79a0      	ldrb	r0, [r4, #6]
10000b52:	287f      	cmp	r0, #127	; 0x7f
10000b54:	d824      	bhi.n	10000ba0 <irq_remove_handler+0x14c>
10000b56:	88a4      	ldrh	r4, [r4, #4]
10000b58:	1af8      	subs	r0, r7, r3
10000b5a:	0564      	lsls	r4, r4, #21
10000b5c:	1524      	asrs	r4, r4, #20
10000b5e:	4444      	add	r4, r8
10000b60:	1900      	adds	r0, r0, r4
10000b62:	24e0      	movs	r4, #224	; 0xe0
10000b64:	0500      	lsls	r0, r0, #20
10000b66:	0d40      	lsrs	r0, r0, #21
10000b68:	0224      	lsls	r4, r4, #8
10000b6a:	4320      	orrs	r0, r4
10000b6c:	8098      	strh	r0, [r3, #4]
10000b6e:	1852      	adds	r2, r2, r1
10000b70:	4b1f      	ldr	r3, [pc, #124]	; (10000bf0 <irq_remove_handler+0x19c>)
10000b72:	0092      	lsls	r2, r2, #2
10000b74:	18bf      	adds	r7, r7, r2
10000b76:	781a      	ldrb	r2, [r3, #0]
10000b78:	7019      	strb	r1, [r3, #0]
10000b7a:	71ba      	strb	r2, [r7, #6]
10000b7c:	e7cb      	b.n	10000b16 <irq_remove_handler+0xc2>
10000b7e:	9901      	ldr	r1, [sp, #4]
10000b80:	2900      	cmp	r1, #0
10000b82:	d110      	bne.n	10000ba6 <irq_remove_handler+0x152>
10000b84:	31ff      	adds	r1, #255	; 0xff
10000b86:	7191      	strb	r1, [r2, #6]
10000b88:	491a      	ldr	r1, [pc, #104]	; (10000bf4 <irq_remove_handler+0x1a0>)
10000b8a:	8091      	strh	r1, [r2, #4]
10000b8c:	4918      	ldr	r1, [pc, #96]	; (10000bf0 <irq_remove_handler+0x19c>)
10000b8e:	780a      	ldrb	r2, [r1, #0]
10000b90:	719a      	strb	r2, [r3, #6]
10000b92:	4a19      	ldr	r2, [pc, #100]	; (10000bf8 <irq_remove_handler+0x1a4>)
10000b94:	1bdb      	subs	r3, r3, r7
10000b96:	415b      	adcs	r3, r3
10000b98:	435a      	muls	r2, r3
10000b9a:	0d12      	lsrs	r2, r2, #20
10000b9c:	700a      	strb	r2, [r1, #0]
10000b9e:	e7ba      	b.n	10000b16 <irq_remove_handler+0xc2>
10000ba0:	20bd      	movs	r0, #189	; 0xbd
10000ba2:	0200      	lsls	r0, r0, #8
10000ba4:	e7e2      	b.n	10000b6c <irq_remove_handler+0x118>
10000ba6:	4a15      	ldr	r2, [pc, #84]	; (10000bfc <irq_remove_handler+0x1a8>)
10000ba8:	4915      	ldr	r1, [pc, #84]	; (10000c00 <irq_remove_handler+0x1ac>)
10000baa:	1ad2      	subs	r2, r2, r3
10000bac:	3a08      	subs	r2, #8
10000bae:	0250      	lsls	r0, r2, #9
10000bb0:	0d40      	lsrs	r0, r0, #21
10000bb2:	4301      	orrs	r1, r0
10000bb4:	8099      	strh	r1, [r3, #4]
10000bb6:	4913      	ldr	r1, [pc, #76]	; (10000c04 <irq_remove_handler+0x1b0>)
10000bb8:	0852      	lsrs	r2, r2, #1
10000bba:	430a      	orrs	r2, r1
10000bbc:	80da      	strh	r2, [r3, #6]
10000bbe:	e7aa      	b.n	10000b16 <irq_remove_handler+0xc2>
10000bc0:	2106      	movs	r1, #6
10000bc2:	5651      	ldrsb	r1, [r2, r1]
10000bc4:	0013      	movs	r3, r2
10000bc6:	2900      	cmp	r1, #0
10000bc8:	dab6      	bge.n	10000b38 <irq_remove_handler+0xe4>
10000bca:	9a01      	ldr	r2, [sp, #4]
10000bcc:	2a00      	cmp	r2, #0
10000bce:	d1ea      	bne.n	10000ba6 <irq_remove_handler+0x152>
10000bd0:	4645      	mov	r5, r8
10000bd2:	e7db      	b.n	10000b8c <irq_remove_handler+0x138>
10000bd4:	d0000124 	.word	0xd0000124
10000bd8:	e000ed00 	.word	0xe000ed00
10000bdc:	100001cd 	.word	0x100001cd
10000be0:	200118ec 	.word	0x200118ec
10000be4:	e000e100 	.word	0xe000e100
10000be8:	e000e180 	.word	0xe000e180
10000bec:	e000e280 	.word	0xe000e280
10000bf0:	20012410 	.word	0x20012410
10000bf4:	ffffbd00 	.word	0xffffbd00
10000bf8:	0000aaaa 	.word	0x0000aaaa
10000bfc:	20011926 	.word	0x20011926
10000c00:	fffff000 	.word	0xfffff000
10000c04:	fffff800 	.word	0xfffff800

10000c08 <irq_add_tail_to_free_list>:
10000c08:	b5f8      	push	{r3, r4, r5, r6, r7, lr}
10000c0a:	2501      	movs	r5, #1
10000c0c:	0004      	movs	r4, r0
10000c0e:	4305      	orrs	r5, r0
10000c10:	f7ff fb29 	bl	10000266 <__get_current_exception>
10000c14:	0003      	movs	r3, r0
10000c16:	f3ef 8610 	mrs	r6, PRIMASK
10000c1a:	b672      	cpsid	i
10000c1c:	4921      	ldr	r1, [pc, #132]	; (10000ca4 <irq_add_tail_to_free_list+0x9c>)
10000c1e:	680a      	ldr	r2, [r1, #0]
10000c20:	2a00      	cmp	r2, #0
10000c22:	d0fc      	beq.n	10000c1e <irq_add_tail_to_free_list+0x16>
10000c24:	f3bf 8f5f 	dmb	sy
10000c28:	4a1f      	ldr	r2, [pc, #124]	; (10000ca8 <irq_add_tail_to_free_list+0xa0>)
10000c2a:	0020      	movs	r0, r4
10000c2c:	491f      	ldr	r1, [pc, #124]	; (10000cac <irq_add_tail_to_free_list+0xa4>)
10000c2e:	1a80      	subs	r0, r0, r2
10000c30:	4140      	adcs	r0, r0
10000c32:	4341      	muls	r1, r0
10000c34:	0d09      	lsrs	r1, r1, #20
10000c36:	481e      	ldr	r0, [pc, #120]	; (10000cb0 <irq_add_tail_to_free_list+0xa8>)
10000c38:	009b      	lsls	r3, r3, #2
10000c3a:	6887      	ldr	r7, [r0, #8]
10000c3c:	b249      	sxtb	r1, r1
10000c3e:	58ff      	ldr	r7, [r7, r3]
10000c40:	42af      	cmp	r7, r5
10000c42:	d01c      	beq.n	10000c7e <irq_add_tail_to_free_list+0x76>
10000c44:	2306      	movs	r3, #6
10000c46:	56d3      	ldrsb	r3, [r2, r3]
10000c48:	428b      	cmp	r3, r1
10000c4a:	d01c      	beq.n	10000c86 <irq_add_tail_to_free_list+0x7e>
10000c4c:	2312      	movs	r3, #18
10000c4e:	56d3      	ldrsb	r3, [r2, r3]
10000c50:	428b      	cmp	r3, r1
10000c52:	d022      	beq.n	10000c9a <irq_add_tail_to_free_list+0x92>
10000c54:	231e      	movs	r3, #30
10000c56:	56d3      	ldrsb	r3, [r2, r3]
10000c58:	428b      	cmp	r3, r1
10000c5a:	d020      	beq.n	10000c9e <irq_add_tail_to_free_list+0x96>
10000c5c:	232a      	movs	r3, #42	; 0x2a
10000c5e:	56d3      	ldrsb	r3, [r2, r3]
10000c60:	2003      	movs	r0, #3
10000c62:	428b      	cmp	r3, r1
10000c64:	d010      	beq.n	10000c88 <irq_add_tail_to_free_list+0x80>
10000c66:	4b13      	ldr	r3, [pc, #76]	; (10000cb4 <irq_add_tail_to_free_list+0xac>)
10000c68:	781a      	ldrb	r2, [r3, #0]
10000c6a:	7019      	strb	r1, [r3, #0]
10000c6c:	71a2      	strb	r2, [r4, #6]
10000c6e:	f3bf 8f5f 	dmb	sy
10000c72:	2200      	movs	r2, #0
10000c74:	4b0b      	ldr	r3, [pc, #44]	; (10000ca4 <irq_add_tail_to_free_list+0x9c>)
10000c76:	601a      	str	r2, [r3, #0]
10000c78:	f386 8810 	msr	PRIMASK, r6
10000c7c:	bdf8      	pop	{r3, r4, r5, r6, r7, pc}
10000c7e:	6882      	ldr	r2, [r0, #8]
10000c80:	480d      	ldr	r0, [pc, #52]	; (10000cb8 <irq_add_tail_to_free_list+0xb0>)
10000c82:	50d0      	str	r0, [r2, r3]
10000c84:	e7ef      	b.n	10000c66 <irq_add_tail_to_free_list+0x5e>
10000c86:	2000      	movs	r0, #0
10000c88:	0043      	lsls	r3, r0, #1
10000c8a:	181b      	adds	r3, r3, r0
10000c8c:	009b      	lsls	r3, r3, #2
10000c8e:	18d2      	adds	r2, r2, r3
10000c90:	23ff      	movs	r3, #255	; 0xff
10000c92:	7193      	strb	r3, [r2, #6]
10000c94:	4b09      	ldr	r3, [pc, #36]	; (10000cbc <irq_add_tail_to_free_list+0xb4>)
10000c96:	8093      	strh	r3, [r2, #4]
10000c98:	e7e5      	b.n	10000c66 <irq_add_tail_to_free_list+0x5e>
10000c9a:	2001      	movs	r0, #1
10000c9c:	e7f4      	b.n	10000c88 <irq_add_tail_to_free_list+0x80>
10000c9e:	2002      	movs	r0, #2
10000ca0:	e7f2      	b.n	10000c88 <irq_add_tail_to_free_list+0x80>
10000ca2:	46c0      	nop			; (mov r8, r8)
10000ca4:	d0000124 	.word	0xd0000124
10000ca8:	200118ec 	.word	0x200118ec
10000cac:	0000aaaa 	.word	0x0000aaaa
10000cb0:	e000ed00 	.word	0xe000ed00
10000cb4:	20012410 	.word	0x20012410
10000cb8:	100001cd 	.word	0x100001cd
10000cbc:	ffffbd00 	.word	0xffffbd00

10000cc0 <irq_init_priorities>:
10000cc0:	4b05      	ldr	r3, [pc, #20]	; (10000cd8 <irq_init_priorities+0x18>)
10000cc2:	4a06      	ldr	r2, [pc, #24]	; (10000cdc <irq_init_priorities+0x1c>)
10000cc4:	6013      	str	r3, [r2, #0]
10000cc6:	4a06      	ldr	r2, [pc, #24]	; (10000ce0 <irq_init_priorities+0x20>)
10000cc8:	6013      	str	r3, [r2, #0]
10000cca:	6053      	str	r3, [r2, #4]
10000ccc:	6093      	str	r3, [r2, #8]
10000cce:	60d3      	str	r3, [r2, #12]
10000cd0:	6113      	str	r3, [r2, #16]
10000cd2:	6153      	str	r3, [r2, #20]
10000cd4:	6193      	str	r3, [r2, #24]
10000cd6:	4770      	bx	lr
10000cd8:	80808080 	.word	0x80808080
10000cdc:	e000e400 	.word	0xe000e400
10000ce0:	e000e404 	.word	0xe000e404

10000ce4 <lock_init>:
10000ce4:	4b02      	ldr	r3, [pc, #8]	; (10000cf0 <lock_init+0xc>)
10000ce6:	469c      	mov	ip, r3
10000ce8:	4461      	add	r1, ip
10000cea:	0089      	lsls	r1, r1, #2
10000cec:	6001      	str	r1, [r0, #0]
10000cee:	4770      	bx	lr
10000cf0:	34000040 	.word	0x34000040

10000cf4 <timer_pool_entry_comparator>:
10000cf4:	6883      	ldr	r3, [r0, #8]
10000cf6:	480b      	ldr	r0, [pc, #44]	; (10000d24 <timer_pool_entry_comparator+0x30>)
10000cf8:	b510      	push	{r4, lr}
10000cfa:	4684      	mov	ip, r0
10000cfc:	4461      	add	r1, ip
10000cfe:	4462      	add	r2, ip
10000d00:	0109      	lsls	r1, r1, #4
10000d02:	0112      	lsls	r2, r2, #4
10000d04:	189a      	adds	r2, r3, r2
10000d06:	1859      	adds	r1, r3, r1
10000d08:	6854      	ldr	r4, [r2, #4]
10000d0a:	684b      	ldr	r3, [r1, #4]
10000d0c:	2001      	movs	r0, #1
10000d0e:	429c      	cmp	r4, r3
10000d10:	d801      	bhi.n	10000d16 <timer_pool_entry_comparator+0x22>
10000d12:	d002      	beq.n	10000d1a <timer_pool_entry_comparator+0x26>
10000d14:	2000      	movs	r0, #0
10000d16:	b2c0      	uxtb	r0, r0
10000d18:	bd10      	pop	{r4, pc}
10000d1a:	6812      	ldr	r2, [r2, #0]
10000d1c:	680b      	ldr	r3, [r1, #0]
10000d1e:	429a      	cmp	r2, r3
10000d20:	d8f9      	bhi.n	10000d16 <timer_pool_entry_comparator+0x22>
10000d22:	e7f7      	b.n	10000d14 <timer_pool_entry_comparator+0x20>
10000d24:	0fffffff 	.word	0x0fffffff

10000d28 <sleep_until_callback>:
10000d28:	4b0a      	ldr	r3, [pc, #40]	; (10000d54 <sleep_until_callback+0x2c>)
10000d2a:	6819      	ldr	r1, [r3, #0]
10000d2c:	f3ef 8010 	mrs	r0, PRIMASK
10000d30:	b672      	cpsid	i
10000d32:	680a      	ldr	r2, [r1, #0]
10000d34:	2a00      	cmp	r2, #0
10000d36:	d0fc      	beq.n	10000d32 <sleep_until_callback+0xa>
10000d38:	f3bf 8f5f 	dmb	sy
10000d3c:	681b      	ldr	r3, [r3, #0]
10000d3e:	f3bf 8f5f 	dmb	sy
10000d42:	2200      	movs	r2, #0
10000d44:	601a      	str	r2, [r3, #0]
10000d46:	f380 8810 	msr	PRIMASK, r0
10000d4a:	bf40      	sev
10000d4c:	2000      	movs	r0, #0
10000d4e:	2100      	movs	r1, #0
10000d50:	4770      	bx	lr
10000d52:	46c0      	nop			; (mov r8, r8)
10000d54:	200123f4 	.word	0x200123f4

10000d58 <alarm_pool_add_alarm_at.constprop.0>:
10000d58:	b5f8      	push	{r3, r4, r5, r6, r7, lr}
10000d5a:	4657      	mov	r7, sl
10000d5c:	464e      	mov	r6, r9
10000d5e:	4645      	mov	r5, r8
10000d60:	46de      	mov	lr, fp
10000d62:	b5e0      	push	{r5, r6, r7, lr}
10000d64:	4d43      	ldr	r5, [pc, #268]	; (10000e74 <alarm_pool_add_alarm_at.constprop.0+0x11c>)
10000d66:	4681      	mov	r9, r0
10000d68:	468a      	mov	sl, r1
10000d6a:	686a      	ldr	r2, [r5, #4]
10000d6c:	f3ef 8810 	mrs	r8, PRIMASK
10000d70:	b672      	cpsid	i
10000d72:	6813      	ldr	r3, [r2, #0]
10000d74:	2b00      	cmp	r3, #0
10000d76:	d0fc      	beq.n	10000d72 <alarm_pool_add_alarm_at.constprop.0+0x1a>
10000d78:	f3bf 8f5f 	dmb	sy
10000d7c:	682e      	ldr	r6, [r5, #0]
10000d7e:	7bb4      	ldrb	r4, [r6, #14]
10000d80:	2c00      	cmp	r4, #0
10000d82:	d03e      	beq.n	10000e02 <alarm_pool_add_alarm_at.constprop.0+0xaa>
10000d84:	0067      	lsls	r7, r4, #1
10000d86:	6833      	ldr	r3, [r6, #0]
10000d88:	193f      	adds	r7, r7, r4
10000d8a:	3f03      	subs	r7, #3
10000d8c:	19da      	adds	r2, r3, r7
10000d8e:	7853      	ldrb	r3, [r2, #1]
10000d90:	73b3      	strb	r3, [r6, #14]
10000d92:	2b00      	cmp	r3, #0
10000d94:	d100      	bne.n	10000d98 <alarm_pool_add_alarm_at.constprop.0+0x40>
10000d96:	73f3      	strb	r3, [r6, #15]
10000d98:	2300      	movs	r3, #0
10000d9a:	7093      	strb	r3, [r2, #2]
10000d9c:	7053      	strb	r3, [r2, #1]
10000d9e:	7013      	strb	r3, [r2, #0]
10000da0:	68a9      	ldr	r1, [r5, #8]
10000da2:	4a35      	ldr	r2, [pc, #212]	; (10000e78 <alarm_pool_add_alarm_at.constprop.0+0x120>)
10000da4:	468c      	mov	ip, r1
10000da6:	4649      	mov	r1, r9
10000da8:	18a2      	adds	r2, r4, r2
10000daa:	0112      	lsls	r2, r2, #4
10000dac:	4462      	add	r2, ip
10000dae:	6011      	str	r1, [r2, #0]
10000db0:	4651      	mov	r1, sl
10000db2:	6051      	str	r1, [r2, #4]
10000db4:	4931      	ldr	r1, [pc, #196]	; (10000e7c <alarm_pool_add_alarm_at.constprop.0+0x124>)
10000db6:	60d3      	str	r3, [r2, #12]
10000db8:	6091      	str	r1, [r2, #8]
10000dba:	6832      	ldr	r2, [r6, #0]
10000dbc:	19d2      	adds	r2, r2, r7
10000dbe:	7093      	strb	r3, [r2, #2]
10000dc0:	7053      	strb	r3, [r2, #1]
10000dc2:	7013      	strb	r3, [r2, #0]
10000dc4:	7b73      	ldrb	r3, [r6, #13]
10000dc6:	469b      	mov	fp, r3
10000dc8:	2b00      	cmp	r3, #0
10000dca:	d035      	beq.n	10000e38 <alarm_pool_add_alarm_at.constprop.0+0xe0>
10000dcc:	0022      	movs	r2, r4
10000dce:	0019      	movs	r1, r3
10000dd0:	68b0      	ldr	r0, [r6, #8]
10000dd2:	6873      	ldr	r3, [r6, #4]
10000dd4:	4798      	blx	r3
10000dd6:	6832      	ldr	r2, [r6, #0]
10000dd8:	2800      	cmp	r0, #0
10000dda:	d020      	beq.n	10000e1e <alarm_pool_add_alarm_at.constprop.0+0xc6>
10000ddc:	465b      	mov	r3, fp
10000dde:	4658      	mov	r0, fp
10000de0:	005b      	lsls	r3, r3, #1
10000de2:	445b      	add	r3, fp
10000de4:	19d7      	adds	r7, r2, r7
10000de6:	3b03      	subs	r3, #3
10000de8:	70b8      	strb	r0, [r7, #2]
10000dea:	18d1      	adds	r1, r2, r3
10000dec:	5cd3      	ldrb	r3, [r2, r3]
10000dee:	2b00      	cmp	r3, #0
10000df0:	d000      	beq.n	10000df4 <alarm_pool_add_alarm_at.constprop.0+0x9c>
10000df2:	707b      	strb	r3, [r7, #1]
10000df4:	465b      	mov	r3, fp
10000df6:	700c      	strb	r4, [r1, #0]
10000df8:	7373      	strb	r3, [r6, #13]
10000dfa:	455c      	cmp	r4, fp
10000dfc:	d01d      	beq.n	10000e3a <alarm_pool_add_alarm_at.constprop.0+0xe2>
10000dfe:	2600      	movs	r6, #0
10000e00:	e026      	b.n	10000e50 <alarm_pool_add_alarm_at.constprop.0+0xf8>
10000e02:	686b      	ldr	r3, [r5, #4]
10000e04:	f3bf 8f5f 	dmb	sy
10000e08:	601c      	str	r4, [r3, #0]
10000e0a:	f388 8810 	msr	PRIMASK, r8
10000e0e:	2001      	movs	r0, #1
10000e10:	4240      	negs	r0, r0
10000e12:	bc3c      	pop	{r2, r3, r4, r5}
10000e14:	4690      	mov	r8, r2
10000e16:	4699      	mov	r9, r3
10000e18:	46a2      	mov	sl, r4
10000e1a:	46ab      	mov	fp, r5
10000e1c:	bdf8      	pop	{r3, r4, r5, r6, r7, pc}
10000e1e:	465b      	mov	r3, fp
10000e20:	005b      	lsls	r3, r3, #1
10000e22:	445b      	add	r3, fp
10000e24:	3b03      	subs	r3, #3
10000e26:	18d3      	adds	r3, r2, r3
10000e28:	709c      	strb	r4, [r3, #2]
10000e2a:	19d1      	adds	r1, r2, r7
10000e2c:	5dd2      	ldrb	r2, [r2, r7]
10000e2e:	2a00      	cmp	r2, #0
10000e30:	d000      	beq.n	10000e34 <alarm_pool_add_alarm_at.constprop.0+0xdc>
10000e32:	705a      	strb	r2, [r3, #1]
10000e34:	465b      	mov	r3, fp
10000e36:	700b      	strb	r3, [r1, #0]
10000e38:	7374      	strb	r4, [r6, #13]
10000e3a:	464a      	mov	r2, r9
10000e3c:	4653      	mov	r3, sl
10000e3e:	7d28      	ldrb	r0, [r5, #20]
10000e40:	f000 faf2 	bl	10001428 <hardware_alarm_set_target>
10000e44:	1e06      	subs	r6, r0, #0
10000e46:	d0da      	beq.n	10000dfe <alarm_pool_add_alarm_at.constprop.0+0xa6>
10000e48:	0021      	movs	r1, r4
10000e4a:	6828      	ldr	r0, [r5, #0]
10000e4c:	f000 fd32 	bl	100018b4 <ph_remove_and_free_node>
10000e50:	68eb      	ldr	r3, [r5, #12]
10000e52:	686a      	ldr	r2, [r5, #4]
10000e54:	191b      	adds	r3, r3, r4
10000e56:	3b01      	subs	r3, #1
10000e58:	781b      	ldrb	r3, [r3, #0]
10000e5a:	f3bf 8f5f 	dmb	sy
10000e5e:	2100      	movs	r1, #0
10000e60:	6011      	str	r1, [r2, #0]
10000e62:	f388 8810 	msr	PRIMASK, r8
10000e66:	2000      	movs	r0, #0
10000e68:	2e00      	cmp	r6, #0
10000e6a:	d1d2      	bne.n	10000e12 <alarm_pool_add_alarm_at.constprop.0+0xba>
10000e6c:	0218      	lsls	r0, r3, #8
10000e6e:	4320      	orrs	r0, r4
10000e70:	e7cf      	b.n	10000e12 <alarm_pool_add_alarm_at.constprop.0+0xba>
10000e72:	46c0      	nop			; (mov r8, r8)
10000e74:	20011934 	.word	0x20011934
10000e78:	0fffffff 	.word	0x0fffffff
10000e7c:	10000d29 	.word	0x10000d29

10000e80 <add_alarm_under_lock>:
10000e80:	b5f8      	push	{r3, r4, r5, r6, r7, lr}
10000e82:	4657      	mov	r7, sl
10000e84:	4645      	mov	r5, r8
10000e86:	464e      	mov	r6, r9
10000e88:	46de      	mov	lr, fp
10000e8a:	b5e0      	push	{r5, r6, r7, lr}
10000e8c:	4699      	mov	r9, r3
10000e8e:	ab0c      	add	r3, sp, #48	; 0x30
10000e90:	7819      	ldrb	r1, [r3, #0]
10000e92:	ab0d      	add	r3, sp, #52	; 0x34
10000e94:	781b      	ldrb	r3, [r3, #0]
10000e96:	0005      	movs	r5, r0
10000e98:	4690      	mov	r8, r2
10000e9a:	469a      	mov	sl, r3
10000e9c:	6807      	ldr	r7, [r0, #0]
10000e9e:	2900      	cmp	r1, #0
10000ea0:	d112      	bne.n	10000ec8 <add_alarm_under_lock+0x48>
10000ea2:	7bbe      	ldrb	r6, [r7, #14]
10000ea4:	2e00      	cmp	r6, #0
10000ea6:	d045      	beq.n	10000f34 <add_alarm_under_lock+0xb4>
10000ea8:	0074      	lsls	r4, r6, #1
10000eaa:	683b      	ldr	r3, [r7, #0]
10000eac:	19a4      	adds	r4, r4, r6
10000eae:	3c03      	subs	r4, #3
10000eb0:	191b      	adds	r3, r3, r4
10000eb2:	785a      	ldrb	r2, [r3, #1]
10000eb4:	0031      	movs	r1, r6
10000eb6:	73ba      	strb	r2, [r7, #14]
10000eb8:	2a00      	cmp	r2, #0
10000eba:	d100      	bne.n	10000ebe <add_alarm_under_lock+0x3e>
10000ebc:	73fa      	strb	r2, [r7, #15]
10000ebe:	2200      	movs	r2, #0
10000ec0:	709a      	strb	r2, [r3, #2]
10000ec2:	705a      	strb	r2, [r3, #1]
10000ec4:	701a      	strb	r2, [r3, #0]
10000ec6:	e003      	b.n	10000ed0 <add_alarm_under_lock+0x50>
10000ec8:	000e      	movs	r6, r1
10000eca:	004c      	lsls	r4, r1, #1
10000ecc:	1864      	adds	r4, r4, r1
10000ece:	3c03      	subs	r4, #3
10000ed0:	4b2c      	ldr	r3, [pc, #176]	; (10000f84 <add_alarm_under_lock+0x104>)
10000ed2:	2200      	movs	r2, #0
10000ed4:	469c      	mov	ip, r3
10000ed6:	68ab      	ldr	r3, [r5, #8]
10000ed8:	4461      	add	r1, ip
10000eda:	469c      	mov	ip, r3
10000edc:	4643      	mov	r3, r8
10000ede:	0109      	lsls	r1, r1, #4
10000ee0:	4461      	add	r1, ip
10000ee2:	600b      	str	r3, [r1, #0]
10000ee4:	464b      	mov	r3, r9
10000ee6:	604b      	str	r3, [r1, #4]
10000ee8:	9b0a      	ldr	r3, [sp, #40]	; 0x28
10000eea:	608b      	str	r3, [r1, #8]
10000eec:	9b0b      	ldr	r3, [sp, #44]	; 0x2c
10000eee:	60cb      	str	r3, [r1, #12]
10000ef0:	683b      	ldr	r3, [r7, #0]
10000ef2:	191b      	adds	r3, r3, r4
10000ef4:	709a      	strb	r2, [r3, #2]
10000ef6:	705a      	strb	r2, [r3, #1]
10000ef8:	701a      	strb	r2, [r3, #0]
10000efa:	7b7b      	ldrb	r3, [r7, #13]
10000efc:	469b      	mov	fp, r3
10000efe:	2b00      	cmp	r3, #0
10000f00:	d02c      	beq.n	10000f5c <add_alarm_under_lock+0xdc>
10000f02:	0032      	movs	r2, r6
10000f04:	4659      	mov	r1, fp
10000f06:	68b8      	ldr	r0, [r7, #8]
10000f08:	687b      	ldr	r3, [r7, #4]
10000f0a:	4798      	blx	r3
10000f0c:	683a      	ldr	r2, [r7, #0]
10000f0e:	2800      	cmp	r0, #0
10000f10:	d017      	beq.n	10000f42 <add_alarm_under_lock+0xc2>
10000f12:	465b      	mov	r3, fp
10000f14:	4658      	mov	r0, fp
10000f16:	005b      	lsls	r3, r3, #1
10000f18:	445b      	add	r3, fp
10000f1a:	1914      	adds	r4, r2, r4
10000f1c:	3b03      	subs	r3, #3
10000f1e:	70a0      	strb	r0, [r4, #2]
10000f20:	18d1      	adds	r1, r2, r3
10000f22:	5cd3      	ldrb	r3, [r2, r3]
10000f24:	2b00      	cmp	r3, #0
10000f26:	d000      	beq.n	10000f2a <add_alarm_under_lock+0xaa>
10000f28:	7063      	strb	r3, [r4, #1]
10000f2a:	465b      	mov	r3, fp
10000f2c:	700e      	strb	r6, [r1, #0]
10000f2e:	737b      	strb	r3, [r7, #13]
10000f30:	45b3      	cmp	fp, r6
10000f32:	d014      	beq.n	10000f5e <add_alarm_under_lock+0xde>
10000f34:	0030      	movs	r0, r6
10000f36:	bc3c      	pop	{r2, r3, r4, r5}
10000f38:	4690      	mov	r8, r2
10000f3a:	4699      	mov	r9, r3
10000f3c:	46a2      	mov	sl, r4
10000f3e:	46ab      	mov	fp, r5
10000f40:	bdf8      	pop	{r3, r4, r5, r6, r7, pc}
10000f42:	465b      	mov	r3, fp
10000f44:	005b      	lsls	r3, r3, #1
10000f46:	445b      	add	r3, fp
10000f48:	3b03      	subs	r3, #3
10000f4a:	18d3      	adds	r3, r2, r3
10000f4c:	709e      	strb	r6, [r3, #2]
10000f4e:	1911      	adds	r1, r2, r4
10000f50:	5d12      	ldrb	r2, [r2, r4]
10000f52:	2a00      	cmp	r2, #0
10000f54:	d000      	beq.n	10000f58 <add_alarm_under_lock+0xd8>
10000f56:	705a      	strb	r2, [r3, #1]
10000f58:	465b      	mov	r3, fp
10000f5a:	700b      	strb	r3, [r1, #0]
10000f5c:	737e      	strb	r6, [r7, #13]
10000f5e:	4642      	mov	r2, r8
10000f60:	464b      	mov	r3, r9
10000f62:	7d28      	ldrb	r0, [r5, #20]
10000f64:	f000 fa60 	bl	10001428 <hardware_alarm_set_target>
10000f68:	1e04      	subs	r4, r0, #0
10000f6a:	d006      	beq.n	10000f7a <add_alarm_under_lock+0xfa>
10000f6c:	4653      	mov	r3, sl
10000f6e:	2b00      	cmp	r3, #0
10000f70:	d103      	bne.n	10000f7a <add_alarm_under_lock+0xfa>
10000f72:	0031      	movs	r1, r6
10000f74:	6828      	ldr	r0, [r5, #0]
10000f76:	f000 fc9d 	bl	100018b4 <ph_remove_and_free_node>
10000f7a:	9b0e      	ldr	r3, [sp, #56]	; 0x38
10000f7c:	2b00      	cmp	r3, #0
10000f7e:	d0d9      	beq.n	10000f34 <add_alarm_under_lock+0xb4>
10000f80:	701c      	strb	r4, [r3, #0]
10000f82:	e7d7      	b.n	10000f34 <add_alarm_under_lock+0xb4>
10000f84:	0fffffff 	.word	0x0fffffff

10000f88 <alarm_pool_alarm_callback>:
10000f88:	b5f0      	push	{r4, r5, r6, r7, lr}
10000f8a:	46de      	mov	lr, fp
10000f8c:	464e      	mov	r6, r9
10000f8e:	4657      	mov	r7, sl
10000f90:	4645      	mov	r5, r8
10000f92:	2300      	movs	r3, #0
10000f94:	b5e0      	push	{r5, r6, r7, lr}
10000f96:	b08d      	sub	sp, #52	; 0x34
10000f98:	930a      	str	r3, [sp, #40]	; 0x28
10000f9a:	4b6b      	ldr	r3, [pc, #428]	; (10001148 <alarm_pool_alarm_callback+0x1c0>)
10000f9c:	0082      	lsls	r2, r0, #2
10000f9e:	58d3      	ldr	r3, [r2, r3]
10000fa0:	900b      	str	r0, [sp, #44]	; 0x2c
10000fa2:	4699      	mov	r9, r3
10000fa4:	2300      	movs	r3, #0
10000fa6:	469b      	mov	fp, r3
10000fa8:	464b      	mov	r3, r9
10000faa:	9307      	str	r3, [sp, #28]
10000fac:	f000 f9dc 	bl	10001368 <time_us_64>
10000fb0:	9c07      	ldr	r4, [sp, #28]
10000fb2:	0006      	movs	r6, r0
10000fb4:	000f      	movs	r7, r1
10000fb6:	6862      	ldr	r2, [r4, #4]
10000fb8:	f3ef 8510 	mrs	r5, PRIMASK
10000fbc:	b672      	cpsid	i
10000fbe:	6813      	ldr	r3, [r2, #0]
10000fc0:	2b00      	cmp	r3, #0
10000fc2:	d0fc      	beq.n	10000fbe <alarm_pool_alarm_callback+0x36>
10000fc4:	0022      	movs	r2, r4
10000fc6:	9407      	str	r4, [sp, #28]
10000fc8:	f3bf 8f5f 	dmb	sy
10000fcc:	6824      	ldr	r4, [r4, #0]
10000fce:	7b63      	ldrb	r3, [r4, #13]
10000fd0:	4699      	mov	r9, r3
10000fd2:	2b00      	cmp	r3, #0
10000fd4:	d067      	beq.n	100010a6 <alarm_pool_alarm_callback+0x11e>
10000fd6:	6892      	ldr	r2, [r2, #8]
10000fd8:	4b5c      	ldr	r3, [pc, #368]	; (1000114c <alarm_pool_alarm_callback+0x1c4>)
10000fda:	4690      	mov	r8, r2
10000fdc:	444b      	add	r3, r9
10000fde:	011b      	lsls	r3, r3, #4
10000fe0:	4498      	add	r8, r3
10000fe2:	4643      	mov	r3, r8
10000fe4:	681a      	ldr	r2, [r3, #0]
10000fe6:	685b      	ldr	r3, [r3, #4]
10000fe8:	0010      	movs	r0, r2
10000fea:	0019      	movs	r1, r3
10000fec:	1b80      	subs	r0, r0, r6
10000fee:	41b9      	sbcs	r1, r7
10000ff0:	2900      	cmp	r1, #0
10000ff2:	dd5f      	ble.n	100010b4 <alarm_pool_alarm_callback+0x12c>
10000ff4:	980b      	ldr	r0, [sp, #44]	; 0x2c
10000ff6:	f000 fa17 	bl	10001428 <hardware_alarm_set_target>
10000ffa:	2300      	movs	r3, #0
10000ffc:	2600      	movs	r6, #0
10000ffe:	4698      	mov	r8, r3
10001000:	2700      	movs	r7, #0
10001002:	469a      	mov	sl, r3
10001004:	9c07      	ldr	r4, [sp, #28]
10001006:	6863      	ldr	r3, [r4, #4]
10001008:	f3bf 8f5f 	dmb	sy
1000100c:	465a      	mov	r2, fp
1000100e:	601a      	str	r2, [r3, #0]
10001010:	f385 8810 	msr	PRIMASK, r5
10001014:	4653      	mov	r3, sl
10001016:	2b00      	cmp	r3, #0
10001018:	d108      	bne.n	1000102c <alarm_pool_alarm_callback+0xa4>
1000101a:	2800      	cmp	r0, #0
1000101c:	d1c6      	bne.n	10000fac <alarm_pool_alarm_callback+0x24>
1000101e:	b00d      	add	sp, #52	; 0x34
10001020:	bc3c      	pop	{r2, r3, r4, r5}
10001022:	4690      	mov	r8, r2
10001024:	4699      	mov	r9, r3
10001026:	46a2      	mov	sl, r4
10001028:	46ab      	mov	fp, r5
1000102a:	bdf0      	pop	{r4, r5, r6, r7, pc}
1000102c:	9b0a      	ldr	r3, [sp, #40]	; 0x28
1000102e:	4641      	mov	r1, r8
10001030:	0218      	lsls	r0, r3, #8
10001032:	464b      	mov	r3, r9
10001034:	4318      	orrs	r0, r3
10001036:	47d0      	blx	sl
10001038:	9008      	str	r0, [sp, #32]
1000103a:	9109      	str	r1, [sp, #36]	; 0x24
1000103c:	6862      	ldr	r2, [r4, #4]
1000103e:	f3ef 8510 	mrs	r5, PRIMASK
10001042:	b672      	cpsid	i
10001044:	6813      	ldr	r3, [r2, #0]
10001046:	2b00      	cmp	r3, #0
10001048:	d0fc      	beq.n	10001044 <alarm_pool_alarm_callback+0xbc>
1000104a:	9407      	str	r4, [sp, #28]
1000104c:	f3bf 8f5f 	dmb	sy
10001050:	9908      	ldr	r1, [sp, #32]
10001052:	9a09      	ldr	r2, [sp, #36]	; 0x24
10001054:	2a00      	cmp	r2, #0
10001056:	db48      	blt.n	100010ea <alarm_pool_alarm_callback+0x162>
10001058:	4311      	orrs	r1, r2
1000105a:	d003      	beq.n	10001064 <alarm_pool_alarm_callback+0xdc>
1000105c:	9b07      	ldr	r3, [sp, #28]
1000105e:	691b      	ldr	r3, [r3, #16]
10001060:	2b00      	cmp	r3, #0
10001062:	d15d      	bne.n	10001120 <alarm_pool_alarm_callback+0x198>
10001064:	9b07      	ldr	r3, [sp, #28]
10001066:	681b      	ldr	r3, [r3, #0]
10001068:	7bda      	ldrb	r2, [r3, #15]
1000106a:	2a00      	cmp	r2, #0
1000106c:	d007      	beq.n	1000107e <alarm_pool_alarm_callback+0xf6>
1000106e:	0051      	lsls	r1, r2, #1
10001070:	188a      	adds	r2, r1, r2
10001072:	6819      	ldr	r1, [r3, #0]
10001074:	468c      	mov	ip, r1
10001076:	4649      	mov	r1, r9
10001078:	4462      	add	r2, ip
1000107a:	3a03      	subs	r2, #3
1000107c:	7051      	strb	r1, [r2, #1]
1000107e:	464a      	mov	r2, r9
10001080:	73da      	strb	r2, [r3, #15]
10001082:	464b      	mov	r3, r9
10001084:	9a07      	ldr	r2, [sp, #28]
10001086:	3b01      	subs	r3, #1
10001088:	68d1      	ldr	r1, [r2, #12]
1000108a:	5cca      	ldrb	r2, [r1, r3]
1000108c:	3201      	adds	r2, #1
1000108e:	54ca      	strb	r2, [r1, r3]
10001090:	465b      	mov	r3, fp
10001092:	9a07      	ldr	r2, [sp, #28]
10001094:	6113      	str	r3, [r2, #16]
10001096:	6853      	ldr	r3, [r2, #4]
10001098:	f3bf 8f5f 	dmb	sy
1000109c:	465a      	mov	r2, fp
1000109e:	601a      	str	r2, [r3, #0]
100010a0:	f385 8810 	msr	PRIMASK, r5
100010a4:	e782      	b.n	10000fac <alarm_pool_alarm_callback+0x24>
100010a6:	2300      	movs	r3, #0
100010a8:	2600      	movs	r6, #0
100010aa:	4698      	mov	r8, r3
100010ac:	2700      	movs	r7, #0
100010ae:	469a      	mov	sl, r3
100010b0:	2000      	movs	r0, #0
100010b2:	e7a7      	b.n	10001004 <alarm_pool_alarm_callback+0x7c>
100010b4:	2900      	cmp	r1, #0
100010b6:	d101      	bne.n	100010bc <alarm_pool_alarm_callback+0x134>
100010b8:	2800      	cmp	r0, #0
100010ba:	d19b      	bne.n	10000ff4 <alarm_pool_alarm_callback+0x6c>
100010bc:	2100      	movs	r1, #0
100010be:	0020      	movs	r0, r4
100010c0:	f000 fb5a 	bl	10001778 <ph_remove_head>
100010c4:	4643      	mov	r3, r8
100010c6:	681e      	ldr	r6, [r3, #0]
100010c8:	685f      	ldr	r7, [r3, #4]
100010ca:	689b      	ldr	r3, [r3, #8]
100010cc:	9a07      	ldr	r2, [sp, #28]
100010ce:	469a      	mov	sl, r3
100010d0:	4643      	mov	r3, r8
100010d2:	68db      	ldr	r3, [r3, #12]
100010d4:	4698      	mov	r8, r3
100010d6:	68d3      	ldr	r3, [r2, #12]
100010d8:	444b      	add	r3, r9
100010da:	3b01      	subs	r3, #1
100010dc:	781b      	ldrb	r3, [r3, #0]
100010de:	930a      	str	r3, [sp, #40]	; 0x28
100010e0:	021b      	lsls	r3, r3, #8
100010e2:	4303      	orrs	r3, r0
100010e4:	6113      	str	r3, [r2, #16]
100010e6:	2000      	movs	r0, #0
100010e8:	e78c      	b.n	10001004 <alarm_pool_alarm_callback+0x7c>
100010ea:	6923      	ldr	r3, [r4, #16]
100010ec:	2b00      	cmp	r3, #0
100010ee:	d0b9      	beq.n	10001064 <alarm_pool_alarm_callback+0xdc>
100010f0:	0033      	movs	r3, r6
100010f2:	003c      	movs	r4, r7
100010f4:	1a5b      	subs	r3, r3, r1
100010f6:	4194      	sbcs	r4, r2
100010f8:	001a      	movs	r2, r3
100010fa:	0023      	movs	r3, r4
100010fc:	42a7      	cmp	r7, r4
100010fe:	d819      	bhi.n	10001134 <alarm_pool_alarm_callback+0x1ac>
10001100:	429f      	cmp	r7, r3
10001102:	d01b      	beq.n	1000113c <alarm_pool_alarm_callback+0x1b4>
10001104:	4659      	mov	r1, fp
10001106:	9104      	str	r1, [sp, #16]
10001108:	2101      	movs	r1, #1
1000110a:	9103      	str	r1, [sp, #12]
1000110c:	4649      	mov	r1, r9
1000110e:	9102      	str	r1, [sp, #8]
10001110:	4641      	mov	r1, r8
10001112:	9101      	str	r1, [sp, #4]
10001114:	4651      	mov	r1, sl
10001116:	9807      	ldr	r0, [sp, #28]
10001118:	9100      	str	r1, [sp, #0]
1000111a:	f7ff feb1 	bl	10000e80 <add_alarm_under_lock>
1000111e:	e7b7      	b.n	10001090 <alarm_pool_alarm_callback+0x108>
10001120:	f000 f922 	bl	10001368 <time_us_64>
10001124:	9a08      	ldr	r2, [sp, #32]
10001126:	9b09      	ldr	r3, [sp, #36]	; 0x24
10001128:	0006      	movs	r6, r0
1000112a:	000f      	movs	r7, r1
1000112c:	1992      	adds	r2, r2, r6
1000112e:	417b      	adcs	r3, r7
10001130:	4299      	cmp	r1, r3
10001132:	d9e5      	bls.n	10001100 <alarm_pool_alarm_callback+0x178>
10001134:	2201      	movs	r2, #1
10001136:	4252      	negs	r2, r2
10001138:	17d3      	asrs	r3, r2, #31
1000113a:	e7e3      	b.n	10001104 <alarm_pool_alarm_callback+0x17c>
1000113c:	4296      	cmp	r6, r2
1000113e:	d9e1      	bls.n	10001104 <alarm_pool_alarm_callback+0x17c>
10001140:	2201      	movs	r2, #1
10001142:	4252      	negs	r2, r2
10001144:	17d3      	asrs	r3, r2, #31
10001146:	e7dd      	b.n	10001104 <alarm_pool_alarm_callback+0x17c>
10001148:	200123e0 	.word	0x200123e0
1000114c:	0fffffff 	.word	0x0fffffff

10001150 <alarm_pool_init_default>:
10001150:	b510      	push	{r4, lr}
10001152:	4c12      	ldr	r4, [pc, #72]	; (1000119c <alarm_pool_init_default+0x4c>)
10001154:	6863      	ldr	r3, [r4, #4]
10001156:	2b00      	cmp	r3, #0
10001158:	d004      	beq.n	10001164 <alarm_pool_init_default+0x14>
1000115a:	210a      	movs	r1, #10
1000115c:	4810      	ldr	r0, [pc, #64]	; (100011a0 <alarm_pool_init_default+0x50>)
1000115e:	f7ff fdc1 	bl	10000ce4 <lock_init>
10001162:	bd10      	pop	{r4, pc}
10001164:	0023      	movs	r3, r4
10001166:	4a0f      	ldr	r2, [pc, #60]	; (100011a4 <alarm_pool_init_default+0x54>)
10001168:	2110      	movs	r1, #16
1000116a:	6820      	ldr	r0, [r4, #0]
1000116c:	f000 fa22 	bl	100015b4 <ph_post_alloc_init>
10001170:	2003      	movs	r0, #3
10001172:	f000 f8ed 	bl	10001350 <hardware_alarm_claim>
10001176:	2003      	movs	r0, #3
10001178:	f000 f9c8 	bl	1000150c <hardware_alarm_cancel>
1000117c:	2003      	movs	r0, #3
1000117e:	490a      	ldr	r1, [pc, #40]	; (100011a8 <alarm_pool_init_default+0x58>)
10001180:	f000 f90c 	bl	1000139c <hardware_alarm_set_callback>
10001184:	f7ff fc0a 	bl	1000099c <next_striped_spin_lock_num>
10001188:	4b08      	ldr	r3, [pc, #32]	; (100011ac <alarm_pool_init_default+0x5c>)
1000118a:	469c      	mov	ip, r3
1000118c:	2303      	movs	r3, #3
1000118e:	4460      	add	r0, ip
10001190:	7523      	strb	r3, [r4, #20]
10001192:	4b07      	ldr	r3, [pc, #28]	; (100011b0 <alarm_pool_init_default+0x60>)
10001194:	0080      	lsls	r0, r0, #2
10001196:	6060      	str	r0, [r4, #4]
10001198:	60dc      	str	r4, [r3, #12]
1000119a:	e7de      	b.n	1000115a <alarm_pool_init_default+0xa>
1000119c:	20011934 	.word	0x20011934
100011a0:	200123f4 	.word	0x200123f4
100011a4:	10000cf5 	.word	0x10000cf5
100011a8:	10000f89 	.word	0x10000f89
100011ac:	34000040 	.word	0x34000040
100011b0:	200123e0 	.word	0x200123e0

100011b4 <sleep_until>:
100011b4:	b5f0      	push	{r4, r5, r6, r7, lr}
100011b6:	0004      	movs	r4, r0
100011b8:	000d      	movs	r5, r1
100011ba:	2606      	movs	r6, #6
100011bc:	4276      	negs	r6, r6
100011be:	17f7      	asrs	r7, r6, #31
100011c0:	46c6      	mov	lr, r8
100011c2:	1936      	adds	r6, r6, r4
100011c4:	416f      	adcs	r7, r5
100011c6:	b500      	push	{lr}
100011c8:	428f      	cmp	r7, r1
100011ca:	d813      	bhi.n	100011f4 <sleep_until+0x40>
100011cc:	d010      	beq.n	100011f0 <sleep_until+0x3c>
100011ce:	f000 f8cb 	bl	10001368 <time_us_64>
100011d2:	0032      	movs	r2, r6
100011d4:	003b      	movs	r3, r7
100011d6:	1a12      	subs	r2, r2, r0
100011d8:	418b      	sbcs	r3, r1
100011da:	2b00      	cmp	r3, #0
100011dc:	dc14      	bgt.n	10001208 <sleep_until+0x54>
100011de:	2b00      	cmp	r3, #0
100011e0:	d037      	beq.n	10001252 <sleep_until+0x9e>
100011e2:	0029      	movs	r1, r5
100011e4:	0020      	movs	r0, r4
100011e6:	f000 f8c9 	bl	1000137c <busy_wait_until>
100011ea:	bc04      	pop	{r2}
100011ec:	4690      	mov	r8, r2
100011ee:	bdf0      	pop	{r4, r5, r6, r7, pc}
100011f0:	4286      	cmp	r6, r0
100011f2:	d9ec      	bls.n	100011ce <sleep_until+0x1a>
100011f4:	2600      	movs	r6, #0
100011f6:	2700      	movs	r7, #0
100011f8:	f000 f8b6 	bl	10001368 <time_us_64>
100011fc:	0032      	movs	r2, r6
100011fe:	003b      	movs	r3, r7
10001200:	1a12      	subs	r2, r2, r0
10001202:	418b      	sbcs	r3, r1
10001204:	2b00      	cmp	r3, #0
10001206:	ddea      	ble.n	100011de <sleep_until+0x2a>
10001208:	0030      	movs	r0, r6
1000120a:	0039      	movs	r1, r7
1000120c:	f7ff fda4 	bl	10000d58 <alarm_pool_add_alarm_at.constprop.0>
10001210:	2800      	cmp	r0, #0
10001212:	dbe6      	blt.n	100011e2 <sleep_until+0x2e>
10001214:	2300      	movs	r3, #0
10001216:	4698      	mov	r8, r3
10001218:	46bc      	mov	ip, r7
1000121a:	4a0f      	ldr	r2, [pc, #60]	; (10001258 <sleep_until+0xa4>)
1000121c:	4f0f      	ldr	r7, [pc, #60]	; (1000125c <sleep_until+0xa8>)
1000121e:	6a7b      	ldr	r3, [r7, #36]	; 0x24
10001220:	459c      	cmp	ip, r3
10001222:	d804      	bhi.n	1000122e <sleep_until+0x7a>
10001224:	6ab9      	ldr	r1, [r7, #40]	; 0x28
10001226:	428e      	cmp	r6, r1
10001228:	d9db      	bls.n	100011e2 <sleep_until+0x2e>
1000122a:	459c      	cmp	ip, r3
1000122c:	d1d9      	bne.n	100011e2 <sleep_until+0x2e>
1000122e:	6811      	ldr	r1, [r2, #0]
10001230:	f3ef 8010 	mrs	r0, PRIMASK
10001234:	b672      	cpsid	i
10001236:	680b      	ldr	r3, [r1, #0]
10001238:	2b00      	cmp	r3, #0
1000123a:	d0fc      	beq.n	10001236 <sleep_until+0x82>
1000123c:	f3bf 8f5f 	dmb	sy
10001240:	6813      	ldr	r3, [r2, #0]
10001242:	f3bf 8f5f 	dmb	sy
10001246:	4641      	mov	r1, r8
10001248:	6019      	str	r1, [r3, #0]
1000124a:	f380 8810 	msr	PRIMASK, r0
1000124e:	bf20      	wfe
10001250:	e7e5      	b.n	1000121e <sleep_until+0x6a>
10001252:	2a00      	cmp	r2, #0
10001254:	d0c5      	beq.n	100011e2 <sleep_until+0x2e>
10001256:	e7d7      	b.n	10001208 <sleep_until+0x54>
10001258:	200123f4 	.word	0x200123f4
1000125c:	40054000 	.word	0x40054000

10001260 <sleep_ms>:
10001260:	b570      	push	{r4, r5, r6, lr}
10001262:	0006      	movs	r6, r0
10001264:	f000 f880 	bl	10001368 <time_us_64>
10001268:	22fa      	movs	r2, #250	; 0xfa
1000126a:	0004      	movs	r4, r0
1000126c:	000d      	movs	r5, r1
1000126e:	2300      	movs	r3, #0
10001270:	0030      	movs	r0, r6
10001272:	2100      	movs	r1, #0
10001274:	0092      	lsls	r2, r2, #2
10001276:	f001 fac7 	bl	10002808 <__wrap___aeabi_lmul>
1000127a:	1900      	adds	r0, r0, r4
1000127c:	4169      	adcs	r1, r5
1000127e:	428d      	cmp	r5, r1
10001280:	d805      	bhi.n	1000128e <sleep_ms+0x2e>
10001282:	d002      	beq.n	1000128a <sleep_ms+0x2a>
10001284:	f7ff ff96 	bl	100011b4 <sleep_until>
10001288:	bd70      	pop	{r4, r5, r6, pc}
1000128a:	4284      	cmp	r4, r0
1000128c:	d9fa      	bls.n	10001284 <sleep_ms+0x24>
1000128e:	2001      	movs	r0, #1
10001290:	4240      	negs	r0, r0
10001292:	17c1      	asrs	r1, r0, #31
10001294:	e7f6      	b.n	10001284 <sleep_ms+0x24>
10001296:	46c0      	nop			; (mov r8, r8)

10001298 <hardware_alarm_irq_handler>:
10001298:	b5f0      	push	{r4, r5, r6, r7, lr}
1000129a:	46d6      	mov	lr, sl
1000129c:	464f      	mov	r7, r9
1000129e:	4646      	mov	r6, r8
100012a0:	b5c0      	push	{r6, r7, lr}
100012a2:	f3ef 8305 	mrs	r3, IPSR
100012a6:	223f      	movs	r2, #63	; 0x3f
100012a8:	4013      	ands	r3, r2
100012aa:	0018      	movs	r0, r3
100012ac:	3810      	subs	r0, #16
100012ae:	f3ef 8c10 	mrs	ip, PRIMASK
100012b2:	b672      	cpsid	i
100012b4:	4d20      	ldr	r5, [pc, #128]	; (10001338 <hardware_alarm_irq_handler+0xa0>)
100012b6:	682a      	ldr	r2, [r5, #0]
100012b8:	2a00      	cmp	r2, #0
100012ba:	d0fc      	beq.n	100012b6 <hardware_alarm_irq_handler+0x1e>
100012bc:	f3bf 8f5f 	dmb	sy
100012c0:	2201      	movs	r2, #1
100012c2:	0011      	movs	r1, r2
100012c4:	4081      	lsls	r1, r0
100012c6:	4c1d      	ldr	r4, [pc, #116]	; (1000133c <hardware_alarm_irq_handler+0xa4>)
100012c8:	4688      	mov	r8, r1
100012ca:	6361      	str	r1, [r4, #52]	; 0x34
100012cc:	491c      	ldr	r1, [pc, #112]	; (10001340 <hardware_alarm_irq_handler+0xa8>)
100012ce:	0017      	movs	r7, r2
100012d0:	780e      	ldrb	r6, [r1, #0]
100012d2:	468a      	mov	sl, r1
100012d4:	0031      	movs	r1, r6
100012d6:	40c1      	lsrs	r1, r0
100012d8:	400f      	ands	r7, r1
100012da:	420a      	tst	r2, r1
100012dc:	d015      	beq.n	1000130a <hardware_alarm_irq_handler+0x72>
100012de:	4919      	ldr	r1, [pc, #100]	; (10001344 <hardware_alarm_irq_handler+0xac>)
100012e0:	0082      	lsls	r2, r0, #2
100012e2:	6a64      	ldr	r4, [r4, #36]	; 0x24
100012e4:	5851      	ldr	r1, [r2, r1]
100012e6:	428c      	cmp	r4, r1
100012e8:	d319      	bcc.n	1000131e <hardware_alarm_irq_handler+0x86>
100012ea:	4b17      	ldr	r3, [pc, #92]	; (10001348 <hardware_alarm_irq_handler+0xb0>)
100012ec:	58d2      	ldr	r2, [r2, r3]
100012ee:	4643      	mov	r3, r8
100012f0:	439e      	bics	r6, r3
100012f2:	4653      	mov	r3, sl
100012f4:	701e      	strb	r6, [r3, #0]
100012f6:	f3bf 8f5f 	dmb	sy
100012fa:	2300      	movs	r3, #0
100012fc:	602b      	str	r3, [r5, #0]
100012fe:	f38c 8810 	msr	PRIMASK, ip
10001302:	2a00      	cmp	r2, #0
10001304:	d006      	beq.n	10001314 <hardware_alarm_irq_handler+0x7c>
10001306:	4790      	blx	r2
10001308:	e004      	b.n	10001314 <hardware_alarm_irq_handler+0x7c>
1000130a:	f3bf 8f5f 	dmb	sy
1000130e:	602f      	str	r7, [r5, #0]
10001310:	f38c 8810 	msr	PRIMASK, ip
10001314:	bc1c      	pop	{r2, r3, r4}
10001316:	4690      	mov	r8, r2
10001318:	4699      	mov	r9, r3
1000131a:	46a2      	mov	sl, r4
1000131c:	bdf0      	pop	{r4, r5, r6, r7, pc}
1000131e:	4a0b      	ldr	r2, [pc, #44]	; (1000134c <hardware_alarm_irq_handler+0xb4>)
10001320:	009b      	lsls	r3, r3, #2
10001322:	4690      	mov	r8, r2
10001324:	4443      	add	r3, r8
10001326:	681a      	ldr	r2, [r3, #0]
10001328:	601a      	str	r2, [r3, #0]
1000132a:	f3bf 8f5f 	dmb	sy
1000132e:	2300      	movs	r3, #0
10001330:	602b      	str	r3, [r5, #0]
10001332:	f38c 8810 	msr	PRIMASK, ip
10001336:	e7ed      	b.n	10001314 <hardware_alarm_irq_handler+0x7c>
10001338:	d0000128 	.word	0xd0000128
1000133c:	40054000 	.word	0x40054000
10001340:	20012411 	.word	0x20012411
10001344:	200123f8 	.word	0x200123f8
10001348:	20012350 	.word	0x20012350
1000134c:	40053fd0 	.word	0x40053fd0

10001350 <hardware_alarm_claim>:
10001350:	b510      	push	{r4, lr}
10001352:	0001      	movs	r1, r0
10001354:	4a02      	ldr	r2, [pc, #8]	; (10001360 <hardware_alarm_claim+0x10>)
10001356:	4803      	ldr	r0, [pc, #12]	; (10001364 <hardware_alarm_claim+0x14>)
10001358:	f7ff fa98 	bl	1000088c <hw_claim_or_assert>
1000135c:	bd10      	pop	{r4, pc}
1000135e:	46c0      	nop			; (mov r8, r8)
10001360:	100042d0 	.word	0x100042d0
10001364:	2001240e 	.word	0x2001240e

10001368 <time_us_64>:
10001368:	4b03      	ldr	r3, [pc, #12]	; (10001378 <time_us_64+0x10>)
1000136a:	6a59      	ldr	r1, [r3, #36]	; 0x24
1000136c:	000a      	movs	r2, r1
1000136e:	6a98      	ldr	r0, [r3, #40]	; 0x28
10001370:	6a59      	ldr	r1, [r3, #36]	; 0x24
10001372:	428a      	cmp	r2, r1
10001374:	d1fa      	bne.n	1000136c <time_us_64+0x4>
10001376:	4770      	bx	lr
10001378:	40054000 	.word	0x40054000

1000137c <busy_wait_until>:
1000137c:	4a06      	ldr	r2, [pc, #24]	; (10001398 <busy_wait_until+0x1c>)
1000137e:	6a53      	ldr	r3, [r2, #36]	; 0x24
10001380:	4299      	cmp	r1, r3
10001382:	d8fc      	bhi.n	1000137e <busy_wait_until+0x2>
10001384:	d107      	bne.n	10001396 <busy_wait_until+0x1a>
10001386:	4b04      	ldr	r3, [pc, #16]	; (10001398 <busy_wait_until+0x1c>)
10001388:	e002      	b.n	10001390 <busy_wait_until+0x14>
1000138a:	6a5a      	ldr	r2, [r3, #36]	; 0x24
1000138c:	4291      	cmp	r1, r2
1000138e:	d102      	bne.n	10001396 <busy_wait_until+0x1a>
10001390:	6a9a      	ldr	r2, [r3, #40]	; 0x28
10001392:	4282      	cmp	r2, r0
10001394:	d3f9      	bcc.n	1000138a <busy_wait_until+0xe>
10001396:	4770      	bx	lr
10001398:	40054000 	.word	0x40054000

1000139c <hardware_alarm_set_callback>:
1000139c:	b570      	push	{r4, r5, r6, lr}
1000139e:	0004      	movs	r4, r0
100013a0:	000d      	movs	r5, r1
100013a2:	f3ef 8610 	mrs	r6, PRIMASK
100013a6:	b672      	cpsid	i
100013a8:	4a1a      	ldr	r2, [pc, #104]	; (10001414 <hardware_alarm_set_callback+0x78>)
100013aa:	6813      	ldr	r3, [r2, #0]
100013ac:	2b00      	cmp	r3, #0
100013ae:	d0fc      	beq.n	100013aa <hardware_alarm_set_callback+0xe>
100013b0:	f3bf 8f5f 	dmb	sy
100013b4:	2d00      	cmp	r5, #0
100013b6:	d01b      	beq.n	100013f0 <hardware_alarm_set_callback+0x54>
100013b8:	0020      	movs	r0, r4
100013ba:	f7ff fb19 	bl	100009f0 <irq_get_vtable_handler>
100013be:	4916      	ldr	r1, [pc, #88]	; (10001418 <hardware_alarm_set_callback+0x7c>)
100013c0:	4281      	cmp	r1, r0
100013c2:	d00a      	beq.n	100013da <hardware_alarm_set_callback+0x3e>
100013c4:	0020      	movs	r0, r4
100013c6:	f7ff fb1b 	bl	10000a00 <irq_set_exclusive_handler>
100013ca:	2101      	movs	r1, #1
100013cc:	0020      	movs	r0, r4
100013ce:	f7ff faf1 	bl	100009b4 <irq_set_enabled>
100013d2:	2301      	movs	r3, #1
100013d4:	40a3      	lsls	r3, r4
100013d6:	4a11      	ldr	r2, [pc, #68]	; (1000141c <hardware_alarm_set_callback+0x80>)
100013d8:	6013      	str	r3, [r2, #0]
100013da:	4b11      	ldr	r3, [pc, #68]	; (10001420 <hardware_alarm_set_callback+0x84>)
100013dc:	00a4      	lsls	r4, r4, #2
100013de:	50e5      	str	r5, [r4, r3]
100013e0:	f3bf 8f5f 	dmb	sy
100013e4:	2200      	movs	r2, #0
100013e6:	4b0b      	ldr	r3, [pc, #44]	; (10001414 <hardware_alarm_set_callback+0x78>)
100013e8:	601a      	str	r2, [r3, #0]
100013ea:	f386 8810 	msr	PRIMASK, r6
100013ee:	bd70      	pop	{r4, r5, r6, pc}
100013f0:	4b0b      	ldr	r3, [pc, #44]	; (10001420 <hardware_alarm_set_callback+0x84>)
100013f2:	00a2      	lsls	r2, r4, #2
100013f4:	50d5      	str	r5, [r2, r3]
100013f6:	2201      	movs	r2, #1
100013f8:	40a2      	lsls	r2, r4
100013fa:	490a      	ldr	r1, [pc, #40]	; (10001424 <hardware_alarm_set_callback+0x88>)
100013fc:	0020      	movs	r0, r4
100013fe:	780b      	ldrb	r3, [r1, #0]
10001400:	4393      	bics	r3, r2
10001402:	700b      	strb	r3, [r1, #0]
10001404:	4904      	ldr	r1, [pc, #16]	; (10001418 <hardware_alarm_set_callback+0x7c>)
10001406:	f7ff fb25 	bl	10000a54 <irq_remove_handler>
1000140a:	2100      	movs	r1, #0
1000140c:	0020      	movs	r0, r4
1000140e:	f7ff fad1 	bl	100009b4 <irq_set_enabled>
10001412:	e7e5      	b.n	100013e0 <hardware_alarm_set_callback+0x44>
10001414:	d0000128 	.word	0xd0000128
10001418:	10001299 	.word	0x10001299
1000141c:	40056038 	.word	0x40056038
10001420:	20012350 	.word	0x20012350
10001424:	20012411 	.word	0x20012411

10001428 <hardware_alarm_set_target>:
10001428:	b5f0      	push	{r4, r5, r6, r7, lr}
1000142a:	464f      	mov	r7, r9
1000142c:	46d6      	mov	lr, sl
1000142e:	4646      	mov	r6, r8
10001430:	b5c0      	push	{r6, r7, lr}
10001432:	0007      	movs	r7, r0
10001434:	4c30      	ldr	r4, [pc, #192]	; (100014f8 <hardware_alarm_set_target+0xd0>)
10001436:	6a61      	ldr	r1, [r4, #36]	; 0x24
10001438:	000d      	movs	r5, r1
1000143a:	6aa6      	ldr	r6, [r4, #40]	; 0x28
1000143c:	6a61      	ldr	r1, [r4, #36]	; 0x24
1000143e:	42a9      	cmp	r1, r5
10001440:	d1fa      	bne.n	10001438 <hardware_alarm_set_target+0x10>
10001442:	428b      	cmp	r3, r1
10001444:	d808      	bhi.n	10001458 <hardware_alarm_set_target+0x30>
10001446:	d005      	beq.n	10001454 <hardware_alarm_set_target+0x2c>
10001448:	2001      	movs	r0, #1
1000144a:	bc1c      	pop	{r2, r3, r4}
1000144c:	4690      	mov	r8, r2
1000144e:	4699      	mov	r9, r3
10001450:	46a2      	mov	sl, r4
10001452:	bdf0      	pop	{r4, r5, r6, r7, pc}
10001454:	42b2      	cmp	r2, r6
10001456:	d9f7      	bls.n	10001448 <hardware_alarm_set_target+0x20>
10001458:	f3ef 8910 	mrs	r9, PRIMASK
1000145c:	b672      	cpsid	i
1000145e:	4827      	ldr	r0, [pc, #156]	; (100014fc <hardware_alarm_set_target+0xd4>)
10001460:	6801      	ldr	r1, [r0, #0]
10001462:	2900      	cmp	r1, #0
10001464:	d0fc      	beq.n	10001460 <hardware_alarm_set_target+0x38>
10001466:	f3bf 8f5f 	dmb	sy
1000146a:	2501      	movs	r5, #1
1000146c:	4924      	ldr	r1, [pc, #144]	; (10001500 <hardware_alarm_set_target+0xd8>)
1000146e:	40bd      	lsls	r5, r7
10001470:	468c      	mov	ip, r1
10001472:	7809      	ldrb	r1, [r1, #0]
10001474:	4c20      	ldr	r4, [pc, #128]	; (100014f8 <hardware_alarm_set_target+0xd0>)
10001476:	000e      	movs	r6, r1
10001478:	432e      	orrs	r6, r5
1000147a:	4688      	mov	r8, r1
1000147c:	b2f1      	uxtb	r1, r6
1000147e:	468a      	mov	sl, r1
10001480:	4661      	mov	r1, ip
10001482:	4650      	mov	r0, sl
10001484:	7008      	strb	r0, [r1, #0]
10001486:	1d39      	adds	r1, r7, #4
10001488:	481e      	ldr	r0, [pc, #120]	; (10001504 <hardware_alarm_set_target+0xdc>)
1000148a:	0089      	lsls	r1, r1, #2
1000148c:	6365      	str	r5, [r4, #52]	; 0x34
1000148e:	510a      	str	r2, [r1, r4]
10001490:	00b9      	lsls	r1, r7, #2
10001492:	500b      	str	r3, [r1, r0]
10001494:	6a21      	ldr	r1, [r4, #32]
10001496:	2000      	movs	r0, #0
10001498:	4229      	tst	r1, r5
1000149a:	d019      	beq.n	100014d0 <hardware_alarm_set_target+0xa8>
1000149c:	6a61      	ldr	r1, [r4, #36]	; 0x24
1000149e:	0008      	movs	r0, r1
100014a0:	6aa6      	ldr	r6, [r4, #40]	; 0x28
100014a2:	6a61      	ldr	r1, [r4, #36]	; 0x24
100014a4:	4281      	cmp	r1, r0
100014a6:	d1fa      	bne.n	1000149e <hardware_alarm_set_target+0x76>
100014a8:	428b      	cmp	r3, r1
100014aa:	d819      	bhi.n	100014e0 <hardware_alarm_set_target+0xb8>
100014ac:	d101      	bne.n	100014b2 <hardware_alarm_set_target+0x8a>
100014ae:	42b2      	cmp	r2, r6
100014b0:	d816      	bhi.n	100014e0 <hardware_alarm_set_target+0xb8>
100014b2:	45c2      	cmp	sl, r8
100014b4:	d01d      	beq.n	100014f2 <hardware_alarm_set_target+0xca>
100014b6:	4b10      	ldr	r3, [pc, #64]	; (100014f8 <hardware_alarm_set_target+0xd0>)
100014b8:	201f      	movs	r0, #31
100014ba:	621d      	str	r5, [r3, #32]
100014bc:	635d      	str	r5, [r3, #52]	; 0x34
100014be:	2301      	movs	r3, #1
100014c0:	4007      	ands	r7, r0
100014c2:	40bb      	lsls	r3, r7
100014c4:	4a10      	ldr	r2, [pc, #64]	; (10001508 <hardware_alarm_set_target+0xe0>)
100014c6:	381e      	subs	r0, #30
100014c8:	6013      	str	r3, [r2, #0]
100014ca:	4663      	mov	r3, ip
100014cc:	4642      	mov	r2, r8
100014ce:	701a      	strb	r2, [r3, #0]
100014d0:	f3bf 8f5f 	dmb	sy
100014d4:	2200      	movs	r2, #0
100014d6:	4b09      	ldr	r3, [pc, #36]	; (100014fc <hardware_alarm_set_target+0xd4>)
100014d8:	601a      	str	r2, [r3, #0]
100014da:	f389 8810 	msr	PRIMASK, r9
100014de:	e7b4      	b.n	1000144a <hardware_alarm_set_target+0x22>
100014e0:	2000      	movs	r0, #0
100014e2:	f3bf 8f5f 	dmb	sy
100014e6:	2200      	movs	r2, #0
100014e8:	4b04      	ldr	r3, [pc, #16]	; (100014fc <hardware_alarm_set_target+0xd4>)
100014ea:	601a      	str	r2, [r3, #0]
100014ec:	f389 8810 	msr	PRIMASK, r9
100014f0:	e7ab      	b.n	1000144a <hardware_alarm_set_target+0x22>
100014f2:	2001      	movs	r0, #1
100014f4:	e7ec      	b.n	100014d0 <hardware_alarm_set_target+0xa8>
100014f6:	46c0      	nop			; (mov r8, r8)
100014f8:	40054000 	.word	0x40054000
100014fc:	d0000128 	.word	0xd0000128
10001500:	20012411 	.word	0x20012411
10001504:	200123f8 	.word	0x200123f8
10001508:	e000e280 	.word	0xe000e280

1000150c <hardware_alarm_cancel>:
1000150c:	b510      	push	{r4, lr}
1000150e:	f3ef 8410 	mrs	r4, PRIMASK
10001512:	b672      	cpsid	i
10001514:	490a      	ldr	r1, [pc, #40]	; (10001540 <hardware_alarm_cancel+0x34>)
10001516:	680b      	ldr	r3, [r1, #0]
10001518:	2b00      	cmp	r3, #0
1000151a:	d0fc      	beq.n	10001516 <hardware_alarm_cancel+0xa>
1000151c:	f3bf 8f5f 	dmb	sy
10001520:	2301      	movs	r3, #1
10001522:	4083      	lsls	r3, r0
10001524:	4a07      	ldr	r2, [pc, #28]	; (10001544 <hardware_alarm_cancel+0x38>)
10001526:	4808      	ldr	r0, [pc, #32]	; (10001548 <hardware_alarm_cancel+0x3c>)
10001528:	6213      	str	r3, [r2, #32]
1000152a:	7802      	ldrb	r2, [r0, #0]
1000152c:	439a      	bics	r2, r3
1000152e:	7002      	strb	r2, [r0, #0]
10001530:	f3bf 8f5f 	dmb	sy
10001534:	2300      	movs	r3, #0
10001536:	600b      	str	r3, [r1, #0]
10001538:	f384 8810 	msr	PRIMASK, r4
1000153c:	bd10      	pop	{r4, pc}
1000153e:	46c0      	nop			; (mov r8, r8)
10001540:	d0000128 	.word	0xd0000128
10001544:	40054000 	.word	0x40054000
10001548:	20012411 	.word	0x20012411

1000154c <ph_merge_nodes>:
1000154c:	b570      	push	{r4, r5, r6, lr}
1000154e:	0005      	movs	r5, r0
10001550:	000e      	movs	r6, r1
10001552:	0014      	movs	r4, r2
10001554:	2900      	cmp	r1, #0
10001556:	d024      	beq.n	100015a2 <ph_merge_nodes+0x56>
10001558:	2a00      	cmp	r2, #0
1000155a:	d024      	beq.n	100015a6 <ph_merge_nodes+0x5a>
1000155c:	6880      	ldr	r0, [r0, #8]
1000155e:	686b      	ldr	r3, [r5, #4]
10001560:	4798      	blx	r3
10001562:	6829      	ldr	r1, [r5, #0]
10001564:	2800      	cmp	r0, #0
10001566:	d00e      	beq.n	10001586 <ph_merge_nodes+0x3a>
10001568:	0063      	lsls	r3, r4, #1
1000156a:	191b      	adds	r3, r3, r4
1000156c:	0072      	lsls	r2, r6, #1
1000156e:	3b03      	subs	r3, #3
10001570:	1992      	adds	r2, r2, r6
10001572:	18cb      	adds	r3, r1, r3
10001574:	3a03      	subs	r2, #3
10001576:	709e      	strb	r6, [r3, #2]
10001578:	1888      	adds	r0, r1, r2
1000157a:	5c8a      	ldrb	r2, [r1, r2]
1000157c:	2a00      	cmp	r2, #0
1000157e:	d114      	bne.n	100015aa <ph_merge_nodes+0x5e>
10001580:	7004      	strb	r4, [r0, #0]
10001582:	0030      	movs	r0, r6
10001584:	e00e      	b.n	100015a4 <ph_merge_nodes+0x58>
10001586:	0073      	lsls	r3, r6, #1
10001588:	199b      	adds	r3, r3, r6
1000158a:	0062      	lsls	r2, r4, #1
1000158c:	3b03      	subs	r3, #3
1000158e:	1912      	adds	r2, r2, r4
10001590:	18cb      	adds	r3, r1, r3
10001592:	3a03      	subs	r2, #3
10001594:	709c      	strb	r4, [r3, #2]
10001596:	1888      	adds	r0, r1, r2
10001598:	5c8a      	ldrb	r2, [r1, r2]
1000159a:	2a00      	cmp	r2, #0
1000159c:	d000      	beq.n	100015a0 <ph_merge_nodes+0x54>
1000159e:	705a      	strb	r2, [r3, #1]
100015a0:	7006      	strb	r6, [r0, #0]
100015a2:	0020      	movs	r0, r4
100015a4:	bd70      	pop	{r4, r5, r6, pc}
100015a6:	0008      	movs	r0, r1
100015a8:	e7fc      	b.n	100015a4 <ph_merge_nodes+0x58>
100015aa:	705a      	strb	r2, [r3, #1]
100015ac:	7004      	strb	r4, [r0, #0]
100015ae:	0030      	movs	r0, r6
100015b0:	e7f8      	b.n	100015a4 <ph_merge_nodes+0x58>
100015b2:	46c0      	nop			; (mov r8, r8)

100015b4 <ph_post_alloc_init>:
100015b4:	b530      	push	{r4, r5, lr}
100015b6:	6083      	str	r3, [r0, #8]
100015b8:	2300      	movs	r3, #0
100015ba:	b2cc      	uxtb	r4, r1
100015bc:	7343      	strb	r3, [r0, #13]
100015be:	3301      	adds	r3, #1
100015c0:	7304      	strb	r4, [r0, #12]
100015c2:	6042      	str	r2, [r0, #4]
100015c4:	7383      	strb	r3, [r0, #14]
100015c6:	73c4      	strb	r4, [r0, #15]
100015c8:	000d      	movs	r5, r1
100015ca:	6800      	ldr	r0, [r0, #0]
100015cc:	2c01      	cmp	r4, #1
100015ce:	d906      	bls.n	100015de <ph_post_alloc_init+0x2a>
100015d0:	1c42      	adds	r2, r0, #1
100015d2:	3301      	adds	r3, #1
100015d4:	b2db      	uxtb	r3, r3
100015d6:	7013      	strb	r3, [r2, #0]
100015d8:	3203      	adds	r2, #3
100015da:	429c      	cmp	r4, r3
100015dc:	d1f9      	bne.n	100015d2 <ph_post_alloc_init+0x1e>
100015de:	21ff      	movs	r1, #255	; 0xff
100015e0:	4029      	ands	r1, r5
100015e2:	004b      	lsls	r3, r1, #1
100015e4:	1859      	adds	r1, r3, r1
100015e6:	2300      	movs	r3, #0
100015e8:	1840      	adds	r0, r0, r1
100015ea:	3803      	subs	r0, #3
100015ec:	7043      	strb	r3, [r0, #1]
100015ee:	bd30      	pop	{r4, r5, pc}

100015f0 <ph_merge_two_pass>:
100015f0:	b5f8      	push	{r3, r4, r5, r6, r7, lr}
100015f2:	46ce      	mov	lr, r9
100015f4:	4647      	mov	r7, r8
100015f6:	0006      	movs	r6, r0
100015f8:	000c      	movs	r4, r1
100015fa:	b580      	push	{r7, lr}
100015fc:	2900      	cmp	r1, #0
100015fe:	d007      	beq.n	10001610 <ph_merge_two_pass+0x20>
10001600:	004d      	lsls	r5, r1, #1
10001602:	6803      	ldr	r3, [r0, #0]
10001604:	186d      	adds	r5, r5, r1
10001606:	3d03      	subs	r5, #3
10001608:	195a      	adds	r2, r3, r5
1000160a:	7857      	ldrb	r7, [r2, #1]
1000160c:	2f00      	cmp	r7, #0
1000160e:	d104      	bne.n	1000161a <ph_merge_two_pass+0x2a>
10001610:	0020      	movs	r0, r4
10001612:	bc0c      	pop	{r2, r3}
10001614:	4690      	mov	r8, r2
10001616:	4699      	mov	r9, r3
10001618:	bdf8      	pop	{r3, r4, r5, r6, r7, pc}
1000161a:	0079      	lsls	r1, r7, #1
1000161c:	19c9      	adds	r1, r1, r7
1000161e:	3903      	subs	r1, #3
10001620:	4688      	mov	r8, r1
10001622:	4443      	add	r3, r8
10001624:	7859      	ldrb	r1, [r3, #1]
10001626:	4689      	mov	r9, r1
10001628:	2100      	movs	r1, #0
1000162a:	7059      	strb	r1, [r3, #1]
1000162c:	7051      	strb	r1, [r2, #1]
1000162e:	6873      	ldr	r3, [r6, #4]
10001630:	003a      	movs	r2, r7
10001632:	0021      	movs	r1, r4
10001634:	6880      	ldr	r0, [r0, #8]
10001636:	4798      	blx	r3
10001638:	6833      	ldr	r3, [r6, #0]
1000163a:	2800      	cmp	r0, #0
1000163c:	d014      	beq.n	10001668 <ph_merge_two_pass+0x78>
1000163e:	4642      	mov	r2, r8
10001640:	189a      	adds	r2, r3, r2
10001642:	7094      	strb	r4, [r2, #2]
10001644:	1959      	adds	r1, r3, r5
10001646:	5d5b      	ldrb	r3, [r3, r5]
10001648:	2b00      	cmp	r3, #0
1000164a:	d000      	beq.n	1000164e <ph_merge_two_pass+0x5e>
1000164c:	7053      	strb	r3, [r2, #1]
1000164e:	700f      	strb	r7, [r1, #0]
10001650:	0027      	movs	r7, r4
10001652:	4649      	mov	r1, r9
10001654:	0030      	movs	r0, r6
10001656:	f7ff ffcb 	bl	100015f0 <ph_merge_two_pass>
1000165a:	0039      	movs	r1, r7
1000165c:	0002      	movs	r2, r0
1000165e:	0030      	movs	r0, r6
10001660:	f7ff ff74 	bl	1000154c <ph_merge_nodes>
10001664:	0004      	movs	r4, r0
10001666:	e7d3      	b.n	10001610 <ph_merge_two_pass+0x20>
10001668:	4642      	mov	r2, r8
1000166a:	4641      	mov	r1, r8
1000166c:	195d      	adds	r5, r3, r5
1000166e:	70af      	strb	r7, [r5, #2]
10001670:	189a      	adds	r2, r3, r2
10001672:	5c5b      	ldrb	r3, [r3, r1]
10001674:	2b00      	cmp	r3, #0
10001676:	d000      	beq.n	1000167a <ph_merge_two_pass+0x8a>
10001678:	706b      	strb	r3, [r5, #1]
1000167a:	7014      	strb	r4, [r2, #0]
1000167c:	e7e9      	b.n	10001652 <ph_merge_two_pass+0x62>
1000167e:	46c0      	nop			; (mov r8, r8)

10001680 <ph_remove_any_head>:
10001680:	b5f0      	push	{r4, r5, r6, r7, lr}
10001682:	4657      	mov	r7, sl
10001684:	4645      	mov	r5, r8
10001686:	46de      	mov	lr, fp
10001688:	464e      	mov	r6, r9
1000168a:	b5e0      	push	{r5, r6, r7, lr}
1000168c:	000d      	movs	r5, r1
1000168e:	006b      	lsls	r3, r5, #1
10001690:	6801      	ldr	r1, [r0, #0]
10001692:	195b      	adds	r3, r3, r5
10001694:	1edf      	subs	r7, r3, #3
10001696:	0004      	movs	r4, r0
10001698:	5dc8      	ldrb	r0, [r1, r7]
1000169a:	b083      	sub	sp, #12
1000169c:	9201      	str	r2, [sp, #4]
1000169e:	19ca      	adds	r2, r1, r7
100016a0:	2800      	cmp	r0, #0
100016a2:	d04c      	beq.n	1000173e <ph_remove_any_head+0xbe>
100016a4:	0043      	lsls	r3, r0, #1
100016a6:	181b      	adds	r3, r3, r0
100016a8:	3b03      	subs	r3, #3
100016aa:	18cb      	adds	r3, r1, r3
100016ac:	785e      	ldrb	r6, [r3, #1]
100016ae:	46b4      	mov	ip, r6
100016b0:	2e00      	cmp	r6, #0
100016b2:	d116      	bne.n	100016e2 <ph_remove_any_head+0x62>
100016b4:	9e01      	ldr	r6, [sp, #4]
100016b6:	2e00      	cmp	r6, #0
100016b8:	d03e      	beq.n	10001738 <ph_remove_any_head+0xb8>
100016ba:	7be6      	ldrb	r6, [r4, #15]
100016bc:	2e00      	cmp	r6, #0
100016be:	d004      	beq.n	100016ca <ph_remove_any_head+0x4a>
100016c0:	0073      	lsls	r3, r6, #1
100016c2:	199b      	adds	r3, r3, r6
100016c4:	18cb      	adds	r3, r1, r3
100016c6:	3b03      	subs	r3, #3
100016c8:	705d      	strb	r5, [r3, #1]
100016ca:	73e5      	strb	r5, [r4, #15]
100016cc:	2800      	cmp	r0, #0
100016ce:	d12f      	bne.n	10001730 <ph_remove_any_head+0xb0>
100016d0:	2300      	movs	r3, #0
100016d2:	7053      	strb	r3, [r2, #1]
100016d4:	b003      	add	sp, #12
100016d6:	bc3c      	pop	{r2, r3, r4, r5}
100016d8:	4690      	mov	r8, r2
100016da:	4699      	mov	r9, r3
100016dc:	46a2      	mov	sl, r4
100016de:	46ab      	mov	fp, r5
100016e0:	bdf0      	pop	{r4, r5, r6, r7, pc}
100016e2:	0072      	lsls	r2, r6, #1
100016e4:	4462      	add	r2, ip
100016e6:	3a03      	subs	r2, #3
100016e8:	1889      	adds	r1, r1, r2
100016ea:	784a      	ldrb	r2, [r1, #1]
100016ec:	4690      	mov	r8, r2
100016ee:	2200      	movs	r2, #0
100016f0:	704a      	strb	r2, [r1, #1]
100016f2:	4691      	mov	r9, r2
100016f4:	705a      	strb	r2, [r3, #1]
100016f6:	0001      	movs	r1, r0
100016f8:	0032      	movs	r2, r6
100016fa:	0020      	movs	r0, r4
100016fc:	f7ff ff26 	bl	1000154c <ph_merge_nodes>
10001700:	4643      	mov	r3, r8
10001702:	4682      	mov	sl, r0
10001704:	2b00      	cmp	r3, #0
10001706:	d007      	beq.n	10001718 <ph_remove_any_head+0x98>
10001708:	005b      	lsls	r3, r3, #1
1000170a:	6821      	ldr	r1, [r4, #0]
1000170c:	4443      	add	r3, r8
1000170e:	3b03      	subs	r3, #3
10001710:	18cb      	adds	r3, r1, r3
10001712:	785a      	ldrb	r2, [r3, #1]
10001714:	2a00      	cmp	r2, #0
10001716:	d116      	bne.n	10001746 <ph_remove_any_head+0xc6>
10001718:	4642      	mov	r2, r8
1000171a:	4651      	mov	r1, sl
1000171c:	0020      	movs	r0, r4
1000171e:	f7ff ff15 	bl	1000154c <ph_merge_nodes>
10001722:	6821      	ldr	r1, [r4, #0]
10001724:	9b01      	ldr	r3, [sp, #4]
10001726:	19ca      	adds	r2, r1, r7
10001728:	2b00      	cmp	r3, #0
1000172a:	d1c6      	bne.n	100016ba <ph_remove_any_head+0x3a>
1000172c:	2800      	cmp	r0, #0
1000172e:	d0cf      	beq.n	100016d0 <ph_remove_any_head+0x50>
10001730:	0043      	lsls	r3, r0, #1
10001732:	181b      	adds	r3, r3, r0
10001734:	3b03      	subs	r3, #3
10001736:	18cb      	adds	r3, r1, r3
10001738:	2100      	movs	r1, #0
1000173a:	7099      	strb	r1, [r3, #2]
1000173c:	e7c8      	b.n	100016d0 <ph_remove_any_head+0x50>
1000173e:	9b01      	ldr	r3, [sp, #4]
10001740:	2b00      	cmp	r3, #0
10001742:	d1ba      	bne.n	100016ba <ph_remove_any_head+0x3a>
10001744:	e7c4      	b.n	100016d0 <ph_remove_any_head+0x50>
10001746:	0050      	lsls	r0, r2, #1
10001748:	1880      	adds	r0, r0, r2
1000174a:	3803      	subs	r0, #3
1000174c:	1809      	adds	r1, r1, r0
1000174e:	7848      	ldrb	r0, [r1, #1]
10001750:	4683      	mov	fp, r0
10001752:	4648      	mov	r0, r9
10001754:	7048      	strb	r0, [r1, #1]
10001756:	7058      	strb	r0, [r3, #1]
10001758:	4641      	mov	r1, r8
1000175a:	0020      	movs	r0, r4
1000175c:	f7ff fef6 	bl	1000154c <ph_merge_nodes>
10001760:	4659      	mov	r1, fp
10001762:	4680      	mov	r8, r0
10001764:	0020      	movs	r0, r4
10001766:	f7ff ff43 	bl	100015f0 <ph_merge_two_pass>
1000176a:	4641      	mov	r1, r8
1000176c:	0002      	movs	r2, r0
1000176e:	0020      	movs	r0, r4
10001770:	f7ff feec 	bl	1000154c <ph_merge_nodes>
10001774:	4680      	mov	r8, r0
10001776:	e7cf      	b.n	10001718 <ph_remove_any_head+0x98>

10001778 <ph_remove_head>:
10001778:	b5f0      	push	{r4, r5, r6, r7, lr}
1000177a:	464e      	mov	r6, r9
1000177c:	4645      	mov	r5, r8
1000177e:	46de      	mov	lr, fp
10001780:	4657      	mov	r7, sl
10001782:	b5e0      	push	{r5, r6, r7, lr}
10001784:	7b46      	ldrb	r6, [r0, #13]
10001786:	0004      	movs	r4, r0
10001788:	0075      	lsls	r5, r6, #1
1000178a:	6800      	ldr	r0, [r0, #0]
1000178c:	19ad      	adds	r5, r5, r6
1000178e:	3d03      	subs	r5, #3
10001790:	b083      	sub	sp, #12
10001792:	9101      	str	r1, [sp, #4]
10001794:	5d41      	ldrb	r1, [r0, r5]
10001796:	1942      	adds	r2, r0, r5
10001798:	2900      	cmp	r1, #0
1000179a:	d04e      	beq.n	1000183a <ph_remove_head+0xc2>
1000179c:	004b      	lsls	r3, r1, #1
1000179e:	185b      	adds	r3, r3, r1
100017a0:	3b03      	subs	r3, #3
100017a2:	18c3      	adds	r3, r0, r3
100017a4:	785f      	ldrb	r7, [r3, #1]
100017a6:	46bc      	mov	ip, r7
100017a8:	2f00      	cmp	r7, #0
100017aa:	d118      	bne.n	100017de <ph_remove_head+0x66>
100017ac:	9d01      	ldr	r5, [sp, #4]
100017ae:	2d00      	cmp	r5, #0
100017b0:	d040      	beq.n	10001834 <ph_remove_head+0xbc>
100017b2:	7be5      	ldrb	r5, [r4, #15]
100017b4:	2d00      	cmp	r5, #0
100017b6:	d004      	beq.n	100017c2 <ph_remove_head+0x4a>
100017b8:	006b      	lsls	r3, r5, #1
100017ba:	195b      	adds	r3, r3, r5
100017bc:	18c3      	adds	r3, r0, r3
100017be:	3b03      	subs	r3, #3
100017c0:	705e      	strb	r6, [r3, #1]
100017c2:	73e6      	strb	r6, [r4, #15]
100017c4:	2900      	cmp	r1, #0
100017c6:	d131      	bne.n	1000182c <ph_remove_head+0xb4>
100017c8:	2300      	movs	r3, #0
100017ca:	0030      	movs	r0, r6
100017cc:	7053      	strb	r3, [r2, #1]
100017ce:	7361      	strb	r1, [r4, #13]
100017d0:	b003      	add	sp, #12
100017d2:	bc3c      	pop	{r2, r3, r4, r5}
100017d4:	4690      	mov	r8, r2
100017d6:	4699      	mov	r9, r3
100017d8:	46a2      	mov	sl, r4
100017da:	46ab      	mov	fp, r5
100017dc:	bdf0      	pop	{r4, r5, r6, r7, pc}
100017de:	007a      	lsls	r2, r7, #1
100017e0:	4462      	add	r2, ip
100017e2:	3a03      	subs	r2, #3
100017e4:	1880      	adds	r0, r0, r2
100017e6:	7842      	ldrb	r2, [r0, #1]
100017e8:	4693      	mov	fp, r2
100017ea:	2200      	movs	r2, #0
100017ec:	7042      	strb	r2, [r0, #1]
100017ee:	4691      	mov	r9, r2
100017f0:	705a      	strb	r2, [r3, #1]
100017f2:	0020      	movs	r0, r4
100017f4:	003a      	movs	r2, r7
100017f6:	f7ff fea9 	bl	1000154c <ph_merge_nodes>
100017fa:	465b      	mov	r3, fp
100017fc:	4680      	mov	r8, r0
100017fe:	2b00      	cmp	r3, #0
10001800:	d007      	beq.n	10001812 <ph_remove_head+0x9a>
10001802:	005b      	lsls	r3, r3, #1
10001804:	6821      	ldr	r1, [r4, #0]
10001806:	445b      	add	r3, fp
10001808:	3b03      	subs	r3, #3
1000180a:	18cb      	adds	r3, r1, r3
1000180c:	785a      	ldrb	r2, [r3, #1]
1000180e:	2a00      	cmp	r2, #0
10001810:	d117      	bne.n	10001842 <ph_remove_head+0xca>
10001812:	465a      	mov	r2, fp
10001814:	4641      	mov	r1, r8
10001816:	0020      	movs	r0, r4
10001818:	f7ff fe98 	bl	1000154c <ph_merge_nodes>
1000181c:	9b01      	ldr	r3, [sp, #4]
1000181e:	0001      	movs	r1, r0
10001820:	6820      	ldr	r0, [r4, #0]
10001822:	1942      	adds	r2, r0, r5
10001824:	2b00      	cmp	r3, #0
10001826:	d1c4      	bne.n	100017b2 <ph_remove_head+0x3a>
10001828:	2900      	cmp	r1, #0
1000182a:	d0cd      	beq.n	100017c8 <ph_remove_head+0x50>
1000182c:	004b      	lsls	r3, r1, #1
1000182e:	185b      	adds	r3, r3, r1
10001830:	3b03      	subs	r3, #3
10001832:	18c3      	adds	r3, r0, r3
10001834:	2000      	movs	r0, #0
10001836:	7098      	strb	r0, [r3, #2]
10001838:	e7c6      	b.n	100017c8 <ph_remove_head+0x50>
1000183a:	9b01      	ldr	r3, [sp, #4]
1000183c:	2b00      	cmp	r3, #0
1000183e:	d1b8      	bne.n	100017b2 <ph_remove_head+0x3a>
10001840:	e7c2      	b.n	100017c8 <ph_remove_head+0x50>
10001842:	0050      	lsls	r0, r2, #1
10001844:	1880      	adds	r0, r0, r2
10001846:	3803      	subs	r0, #3
10001848:	1809      	adds	r1, r1, r0
1000184a:	7848      	ldrb	r0, [r1, #1]
1000184c:	4682      	mov	sl, r0
1000184e:	4648      	mov	r0, r9
10001850:	7048      	strb	r0, [r1, #1]
10001852:	7058      	strb	r0, [r3, #1]
10001854:	4659      	mov	r1, fp
10001856:	0020      	movs	r0, r4
10001858:	f7ff fe78 	bl	1000154c <ph_merge_nodes>
1000185c:	4653      	mov	r3, sl
1000185e:	4683      	mov	fp, r0
10001860:	2b00      	cmp	r3, #0
10001862:	d007      	beq.n	10001874 <ph_remove_head+0xfc>
10001864:	005b      	lsls	r3, r3, #1
10001866:	6821      	ldr	r1, [r4, #0]
10001868:	4453      	add	r3, sl
1000186a:	3b03      	subs	r3, #3
1000186c:	18cb      	adds	r3, r1, r3
1000186e:	785a      	ldrb	r2, [r3, #1]
10001870:	2a00      	cmp	r2, #0
10001872:	d106      	bne.n	10001882 <ph_remove_head+0x10a>
10001874:	4659      	mov	r1, fp
10001876:	4652      	mov	r2, sl
10001878:	0020      	movs	r0, r4
1000187a:	f7ff fe67 	bl	1000154c <ph_merge_nodes>
1000187e:	4683      	mov	fp, r0
10001880:	e7c7      	b.n	10001812 <ph_remove_head+0x9a>
10001882:	0050      	lsls	r0, r2, #1
10001884:	1880      	adds	r0, r0, r2
10001886:	3803      	subs	r0, #3
10001888:	1809      	adds	r1, r1, r0
1000188a:	4648      	mov	r0, r9
1000188c:	784f      	ldrb	r7, [r1, #1]
1000188e:	7048      	strb	r0, [r1, #1]
10001890:	7058      	strb	r0, [r3, #1]
10001892:	4651      	mov	r1, sl
10001894:	0020      	movs	r0, r4
10001896:	f7ff fe59 	bl	1000154c <ph_merge_nodes>
1000189a:	0039      	movs	r1, r7
1000189c:	4681      	mov	r9, r0
1000189e:	0020      	movs	r0, r4
100018a0:	f7ff fea6 	bl	100015f0 <ph_merge_two_pass>
100018a4:	4649      	mov	r1, r9
100018a6:	0002      	movs	r2, r0
100018a8:	0020      	movs	r0, r4
100018aa:	f7ff fe4f 	bl	1000154c <ph_merge_nodes>
100018ae:	4682      	mov	sl, r0
100018b0:	e7e0      	b.n	10001874 <ph_remove_head+0xfc>
100018b2:	46c0      	nop			; (mov r8, r8)

100018b4 <ph_remove_and_free_node>:
100018b4:	b570      	push	{r4, r5, r6, lr}
100018b6:	0004      	movs	r4, r0
100018b8:	2900      	cmp	r1, #0
100018ba:	d02c      	beq.n	10001916 <ph_remove_and_free_node+0x62>
100018bc:	7b43      	ldrb	r3, [r0, #13]
100018be:	428b      	cmp	r3, r1
100018c0:	d02e      	beq.n	10001920 <ph_remove_and_free_node+0x6c>
100018c2:	6805      	ldr	r5, [r0, #0]
100018c4:	0048      	lsls	r0, r1, #1
100018c6:	1840      	adds	r0, r0, r1
100018c8:	3803      	subs	r0, #3
100018ca:	1828      	adds	r0, r5, r0
100018cc:	7882      	ldrb	r2, [r0, #2]
100018ce:	2a00      	cmp	r2, #0
100018d0:	d021      	beq.n	10001916 <ph_remove_and_free_node+0x62>
100018d2:	0053      	lsls	r3, r2, #1
100018d4:	189b      	adds	r3, r3, r2
100018d6:	3b03      	subs	r3, #3
100018d8:	5cea      	ldrb	r2, [r5, r3]
100018da:	18ee      	adds	r6, r5, r3
100018dc:	428a      	cmp	r2, r1
100018de:	d102      	bne.n	100018e6 <ph_remove_and_free_node+0x32>
100018e0:	e01b      	b.n	1000191a <ph_remove_and_free_node+0x66>
100018e2:	2a00      	cmp	r2, #0
100018e4:	d008      	beq.n	100018f8 <ph_remove_and_free_node+0x44>
100018e6:	0053      	lsls	r3, r2, #1
100018e8:	189b      	adds	r3, r3, r2
100018ea:	3b03      	subs	r3, #3
100018ec:	18eb      	adds	r3, r5, r3
100018ee:	785a      	ldrb	r2, [r3, #1]
100018f0:	428a      	cmp	r2, r1
100018f2:	d1f6      	bne.n	100018e2 <ph_remove_and_free_node+0x2e>
100018f4:	7842      	ldrb	r2, [r0, #1]
100018f6:	705a      	strb	r2, [r3, #1]
100018f8:	2300      	movs	r3, #0
100018fa:	2201      	movs	r2, #1
100018fc:	7083      	strb	r3, [r0, #2]
100018fe:	7043      	strb	r3, [r0, #1]
10001900:	0020      	movs	r0, r4
10001902:	f7ff febd 	bl	10001680 <ph_remove_any_head>
10001906:	7b61      	ldrb	r1, [r4, #13]
10001908:	0002      	movs	r2, r0
1000190a:	0020      	movs	r0, r4
1000190c:	f7ff fe1e 	bl	1000154c <ph_merge_nodes>
10001910:	7360      	strb	r0, [r4, #13]
10001912:	2001      	movs	r0, #1
10001914:	e000      	b.n	10001918 <ph_remove_and_free_node+0x64>
10001916:	2000      	movs	r0, #0
10001918:	bd70      	pop	{r4, r5, r6, pc}
1000191a:	7843      	ldrb	r3, [r0, #1]
1000191c:	7033      	strb	r3, [r6, #0]
1000191e:	e7eb      	b.n	100018f8 <ph_remove_and_free_node+0x44>
10001920:	2201      	movs	r2, #1
10001922:	0019      	movs	r1, r3
10001924:	f7ff feac 	bl	10001680 <ph_remove_any_head>
10001928:	7360      	strb	r0, [r4, #13]
1000192a:	2001      	movs	r0, #1
1000192c:	e7f4      	b.n	10001918 <ph_remove_and_free_node+0x64>
1000192e:	46c0      	nop			; (mov r8, r8)

10001930 <queue_init_with_spinlock>:
10001930:	b570      	push	{r4, r5, r6, lr}
10001932:	0016      	movs	r6, r2
10001934:	000d      	movs	r5, r1
10001936:	0019      	movs	r1, r3
10001938:	0004      	movs	r4, r0
1000193a:	f7ff f9d3 	bl	10000ce4 <lock_init>
1000193e:	0029      	movs	r1, r5
10001940:	1c70      	adds	r0, r6, #1
10001942:	f000 ffe1 	bl	10002908 <__wrap_calloc>
10001946:	2300      	movs	r3, #0
10001948:	81e6      	strh	r6, [r4, #14]
1000194a:	81a5      	strh	r5, [r4, #12]
1000194c:	6060      	str	r0, [r4, #4]
1000194e:	60a3      	str	r3, [r4, #8]
10001950:	bd70      	pop	{r4, r5, r6, pc}
10001952:	46c0      	nop			; (mov r8, r8)

10001954 <queue_add_blocking>:
10001954:	b5f8      	push	{r3, r4, r5, r6, r7, lr}
10001956:	0004      	movs	r4, r0
10001958:	2700      	movs	r7, #0
1000195a:	e009      	b.n	10001970 <queue_add_blocking+0x1c>
1000195c:	89e2      	ldrh	r2, [r4, #14]
1000195e:	429a      	cmp	r2, r3
10001960:	d118      	bne.n	10001994 <queue_add_blocking+0x40>
10001962:	6823      	ldr	r3, [r4, #0]
10001964:	f3bf 8f5f 	dmb	sy
10001968:	601f      	str	r7, [r3, #0]
1000196a:	f385 8810 	msr	PRIMASK, r5
1000196e:	bf20      	wfe
10001970:	6823      	ldr	r3, [r4, #0]
10001972:	f3ef 8510 	mrs	r5, PRIMASK
10001976:	b672      	cpsid	i
10001978:	681a      	ldr	r2, [r3, #0]
1000197a:	2a00      	cmp	r2, #0
1000197c:	d0fc      	beq.n	10001978 <queue_add_blocking+0x24>
1000197e:	f3bf 8f5f 	dmb	sy
10001982:	8920      	ldrh	r0, [r4, #8]
10001984:	8963      	ldrh	r3, [r4, #10]
10001986:	1ac3      	subs	r3, r0, r3
10001988:	d5e8      	bpl.n	1000195c <queue_add_blocking+0x8>
1000198a:	89e6      	ldrh	r6, [r4, #14]
1000198c:	1c72      	adds	r2, r6, #1
1000198e:	18d3      	adds	r3, r2, r3
10001990:	429e      	cmp	r6, r3
10001992:	d0e6      	beq.n	10001962 <queue_add_blocking+0xe>
10001994:	6863      	ldr	r3, [r4, #4]
10001996:	89a2      	ldrh	r2, [r4, #12]
10001998:	469c      	mov	ip, r3
1000199a:	4350      	muls	r0, r2
1000199c:	4460      	add	r0, ip
1000199e:	f000 ffe1 	bl	10002964 <__wrap___aeabi_memcpy>
100019a2:	2200      	movs	r2, #0
100019a4:	0010      	movs	r0, r2
100019a6:	8923      	ldrh	r3, [r4, #8]
100019a8:	89e1      	ldrh	r1, [r4, #14]
100019aa:	3301      	adds	r3, #1
100019ac:	b29b      	uxth	r3, r3
100019ae:	4299      	cmp	r1, r3
100019b0:	4150      	adcs	r0, r2
100019b2:	4241      	negs	r1, r0
100019b4:	400b      	ands	r3, r1
100019b6:	8123      	strh	r3, [r4, #8]
100019b8:	6823      	ldr	r3, [r4, #0]
100019ba:	f3bf 8f5f 	dmb	sy
100019be:	601a      	str	r2, [r3, #0]
100019c0:	f385 8810 	msr	PRIMASK, r5
100019c4:	bf40      	sev
100019c6:	bdf8      	pop	{r3, r4, r5, r6, r7, pc}

100019c8 <queue_remove_blocking>:
100019c8:	b570      	push	{r4, r5, r6, lr}
100019ca:	0004      	movs	r4, r0
100019cc:	0008      	movs	r0, r1
100019ce:	2100      	movs	r1, #0
100019d0:	e008      	b.n	100019e4 <queue_remove_blocking+0x1c>
100019d2:	2b00      	cmp	r3, #0
100019d4:	d118      	bne.n	10001a08 <queue_remove_blocking+0x40>
100019d6:	6823      	ldr	r3, [r4, #0]
100019d8:	f3bf 8f5f 	dmb	sy
100019dc:	6019      	str	r1, [r3, #0]
100019de:	f385 8810 	msr	PRIMASK, r5
100019e2:	bf20      	wfe
100019e4:	6823      	ldr	r3, [r4, #0]
100019e6:	f3ef 8510 	mrs	r5, PRIMASK
100019ea:	b672      	cpsid	i
100019ec:	681a      	ldr	r2, [r3, #0]
100019ee:	2a00      	cmp	r2, #0
100019f0:	d0fc      	beq.n	100019ec <queue_remove_blocking+0x24>
100019f2:	f3bf 8f5f 	dmb	sy
100019f6:	8966      	ldrh	r6, [r4, #10]
100019f8:	8923      	ldrh	r3, [r4, #8]
100019fa:	1b9b      	subs	r3, r3, r6
100019fc:	d5e9      	bpl.n	100019d2 <queue_remove_blocking+0xa>
100019fe:	89e2      	ldrh	r2, [r4, #14]
10001a00:	3201      	adds	r2, #1
10001a02:	18d3      	adds	r3, r2, r3
10001a04:	2b00      	cmp	r3, #0
10001a06:	d0e6      	beq.n	100019d6 <queue_remove_blocking+0xe>
10001a08:	89a2      	ldrh	r2, [r4, #12]
10001a0a:	6863      	ldr	r3, [r4, #4]
10001a0c:	4356      	muls	r6, r2
10001a0e:	1999      	adds	r1, r3, r6
10001a10:	f000 ffa8 	bl	10002964 <__wrap___aeabi_memcpy>
10001a14:	2200      	movs	r2, #0
10001a16:	0010      	movs	r0, r2
10001a18:	8963      	ldrh	r3, [r4, #10]
10001a1a:	89e1      	ldrh	r1, [r4, #14]
10001a1c:	3301      	adds	r3, #1
10001a1e:	b29b      	uxth	r3, r3
10001a20:	4299      	cmp	r1, r3
10001a22:	4150      	adcs	r0, r2
10001a24:	4241      	negs	r1, r0
10001a26:	400b      	ands	r3, r1
10001a28:	8163      	strh	r3, [r4, #10]
10001a2a:	6823      	ldr	r3, [r4, #0]
10001a2c:	f3bf 8f5f 	dmb	sy
10001a30:	601a      	str	r2, [r3, #0]
10001a32:	f385 8810 	msr	PRIMASK, r5
10001a36:	bf40      	sev
10001a38:	bd70      	pop	{r4, r5, r6, pc}
10001a3a:	46c0      	nop			; (mov r8, r8)

10001a3c <mutex_init>:
10001a3c:	b510      	push	{r4, lr}
10001a3e:	0004      	movs	r4, r0
10001a40:	f7fe ffac 	bl	1000099c <next_striped_spin_lock_num>
10001a44:	0001      	movs	r1, r0
10001a46:	0020      	movs	r0, r4
10001a48:	f7ff f94c 	bl	10000ce4 <lock_init>
10001a4c:	23ff      	movs	r3, #255	; 0xff
10001a4e:	7123      	strb	r3, [r4, #4]
10001a50:	f3bf 8f5f 	dmb	sy
10001a54:	bd10      	pop	{r4, pc}
10001a56:	46c0      	nop			; (mov r8, r8)

10001a58 <recursive_mutex_init>:
10001a58:	b510      	push	{r4, lr}
10001a5a:	0004      	movs	r4, r0
10001a5c:	f7fe ff9e 	bl	1000099c <next_striped_spin_lock_num>
10001a60:	0001      	movs	r1, r0
10001a62:	0020      	movs	r0, r4
10001a64:	f7ff f93e 	bl	10000ce4 <lock_init>
10001a68:	23ff      	movs	r3, #255	; 0xff
10001a6a:	80a3      	strh	r3, [r4, #4]
10001a6c:	f3bf 8f5f 	dmb	sy
10001a70:	bd10      	pop	{r4, pc}
10001a72:	46c0      	nop			; (mov r8, r8)

10001a74 <uart_init>:
10001a74:	b5f8      	push	{r3, r4, r5, r6, r7, lr}
10001a76:	0004      	movs	r4, r0
10001a78:	2006      	movs	r0, #6
10001a7a:	000d      	movs	r5, r1
10001a7c:	f000 fb06 	bl	1000208c <clock_get_hz>
10001a80:	2800      	cmp	r0, #0
10001a82:	d045      	beq.n	10001b10 <uart_init+0x9c>
10001a84:	4b2b      	ldr	r3, [pc, #172]	; (10001b34 <uart_init+0xc0>)
10001a86:	492c      	ldr	r1, [pc, #176]	; (10001b38 <uart_init+0xc4>)
10001a88:	18e3      	adds	r3, r4, r3
10001a8a:	425a      	negs	r2, r3
10001a8c:	4153      	adcs	r3, r2
10001a8e:	2280      	movs	r2, #128	; 0x80
10001a90:	03d2      	lsls	r2, r2, #15
10001a92:	4694      	mov	ip, r2
10001a94:	425b      	negs	r3, r3
10001a96:	4013      	ands	r3, r2
10001a98:	4a28      	ldr	r2, [pc, #160]	; (10001b3c <uart_init+0xc8>)
10001a9a:	4463      	add	r3, ip
10001a9c:	6013      	str	r3, [r2, #0]
10001a9e:	4a28      	ldr	r2, [pc, #160]	; (10001b40 <uart_init+0xcc>)
10001aa0:	6013      	str	r3, [r2, #0]
10001aa2:	0018      	movs	r0, r3
10001aa4:	688a      	ldr	r2, [r1, #8]
10001aa6:	4390      	bics	r0, r2
10001aa8:	d1fb      	bne.n	10001aa2 <uart_init+0x2e>
10001aaa:	4b22      	ldr	r3, [pc, #136]	; (10001b34 <uart_init+0xc0>)
10001aac:	2180      	movs	r1, #128	; 0x80
10001aae:	18e3      	adds	r3, r4, r3
10001ab0:	425a      	negs	r2, r3
10001ab2:	4153      	adcs	r3, r2
10001ab4:	4a23      	ldr	r2, [pc, #140]	; (10001b44 <uart_init+0xd0>)
10001ab6:	005b      	lsls	r3, r3, #1
10001ab8:	0049      	lsls	r1, r1, #1
10001aba:	2006      	movs	r0, #6
10001abc:	5299      	strh	r1, [r3, r2]
10001abe:	f000 fae5 	bl	1000208c <clock_get_hz>
10001ac2:	0029      	movs	r1, r5
10001ac4:	00c0      	lsls	r0, r0, #3
10001ac6:	f000 fbe9 	bl	1000229c <__wrap___aeabi_uidiv>
10001aca:	09c3      	lsrs	r3, r0, #7
10001acc:	d121      	bne.n	10001b12 <uart_init+0x9e>
10001ace:	2740      	movs	r7, #64	; 0x40
10001ad0:	2201      	movs	r2, #1
10001ad2:	0026      	movs	r6, r4
10001ad4:	2580      	movs	r5, #128	; 0x80
10001ad6:	6262      	str	r2, [r4, #36]	; 0x24
10001ad8:	62a3      	str	r3, [r4, #40]	; 0x28
10001ada:	2300      	movs	r3, #0
10001adc:	362c      	adds	r6, #44	; 0x2c
10001ade:	01ad      	lsls	r5, r5, #6
10001ae0:	4335      	orrs	r5, r6
10001ae2:	602b      	str	r3, [r5, #0]
10001ae4:	2006      	movs	r0, #6
10001ae6:	f000 fad1 	bl	1000208c <clock_get_hz>
10001aea:	0039      	movs	r1, r7
10001aec:	0080      	lsls	r0, r0, #2
10001aee:	f000 fbd5 	bl	1000229c <__wrap___aeabi_uidiv>
10001af2:	2360      	movs	r3, #96	; 0x60
10001af4:	6ae2      	ldr	r2, [r4, #44]	; 0x2c
10001af6:	4053      	eors	r3, r2
10001af8:	226e      	movs	r2, #110	; 0x6e
10001afa:	401a      	ands	r2, r3
10001afc:	2380      	movs	r3, #128	; 0x80
10001afe:	015b      	lsls	r3, r3, #5
10001b00:	4333      	orrs	r3, r6
10001b02:	601a      	str	r2, [r3, #0]
10001b04:	4b10      	ldr	r3, [pc, #64]	; (10001b48 <uart_init+0xd4>)
10001b06:	6323      	str	r3, [r4, #48]	; 0x30
10001b08:	2310      	movs	r3, #16
10001b0a:	602b      	str	r3, [r5, #0]
10001b0c:	3b0d      	subs	r3, #13
10001b0e:	64a3      	str	r3, [r4, #72]	; 0x48
10001b10:	bdf8      	pop	{r3, r4, r5, r6, r7, pc}
10001b12:	4a0e      	ldr	r2, [pc, #56]	; (10001b4c <uart_init+0xd8>)
10001b14:	4293      	cmp	r3, r2
10001b16:	d903      	bls.n	10001b20 <uart_init+0xac>
10001b18:	2300      	movs	r3, #0
10001b1a:	4f0d      	ldr	r7, [pc, #52]	; (10001b50 <uart_init+0xdc>)
10001b1c:	4a0d      	ldr	r2, [pc, #52]	; (10001b54 <uart_init+0xe0>)
10001b1e:	e7d8      	b.n	10001ad2 <uart_init+0x5e>
10001b20:	227f      	movs	r2, #127	; 0x7f
10001b22:	4010      	ands	r0, r2
10001b24:	3001      	adds	r0, #1
10001b26:	0840      	lsrs	r0, r0, #1
10001b28:	019f      	lsls	r7, r3, #6
10001b2a:	001a      	movs	r2, r3
10001b2c:	183f      	adds	r7, r7, r0
10001b2e:	0003      	movs	r3, r0
10001b30:	e7cf      	b.n	10001ad2 <uart_init+0x5e>
10001b32:	46c0      	nop			; (mov r8, r8)
10001b34:	bffc8000 	.word	0xbffc8000
10001b38:	4000c000 	.word	0x4000c000
10001b3c:	4000e000 	.word	0x4000e000
10001b40:	4000f000 	.word	0x4000f000
10001b44:	20013d3c 	.word	0x20013d3c
10001b48:	00000301 	.word	0x00000301
10001b4c:	0000fffe 	.word	0x0000fffe
10001b50:	003fffc0 	.word	0x003fffc0
10001b54:	0000ffff 	.word	0x0000ffff

10001b58 <runtime_init>:
10001b58:	4b2c      	ldr	r3, [pc, #176]	; (10001c0c <runtime_init+0xb4>)
10001b5a:	4a2d      	ldr	r2, [pc, #180]	; (10001c10 <runtime_init+0xb8>)
10001b5c:	b570      	push	{r4, r5, r6, lr}
10001b5e:	601a      	str	r2, [r3, #0]
10001b60:	4a2c      	ldr	r2, [pc, #176]	; (10001c14 <runtime_init+0xbc>)
10001b62:	4b2d      	ldr	r3, [pc, #180]	; (10001c18 <runtime_init+0xc0>)
10001b64:	492d      	ldr	r1, [pc, #180]	; (10001c1c <runtime_init+0xc4>)
10001b66:	601a      	str	r2, [r3, #0]
10001b68:	0010      	movs	r0, r2
10001b6a:	688b      	ldr	r3, [r1, #8]
10001b6c:	4398      	bics	r0, r3
10001b6e:	d1fb      	bne.n	10001b68 <runtime_init+0x10>
10001b70:	4c2b      	ldr	r4, [pc, #172]	; (10001c20 <runtime_init+0xc8>)
10001b72:	4b2c      	ldr	r3, [pc, #176]	; (10001c24 <runtime_init+0xcc>)
10001b74:	429c      	cmp	r4, r3
10001b76:	d209      	bcs.n	10001b8c <runtime_init+0x34>
10001b78:	3b01      	subs	r3, #1
10001b7a:	1b1d      	subs	r5, r3, r4
10001b7c:	08ad      	lsrs	r5, r5, #2
10001b7e:	3501      	adds	r5, #1
10001b80:	00ad      	lsls	r5, r5, #2
10001b82:	192d      	adds	r5, r5, r4
10001b84:	cc08      	ldmia	r4!, {r3}
10001b86:	4798      	blx	r3
10001b88:	42ac      	cmp	r4, r5
10001b8a:	d1fb      	bne.n	10001b84 <runtime_init+0x2c>
10001b8c:	f000 f920 	bl	10001dd0 <clocks_init>
10001b90:	4a25      	ldr	r2, [pc, #148]	; (10001c28 <runtime_init+0xd0>)
10001b92:	4b21      	ldr	r3, [pc, #132]	; (10001c18 <runtime_init+0xc0>)
10001b94:	601a      	str	r2, [r3, #0]
10001b96:	4a21      	ldr	r2, [pc, #132]	; (10001c1c <runtime_init+0xc4>)
10001b98:	6893      	ldr	r3, [r2, #8]
10001b9a:	01db      	lsls	r3, r3, #7
10001b9c:	3380      	adds	r3, #128	; 0x80
10001b9e:	d1fb      	bne.n	10001b98 <runtime_init+0x40>
10001ba0:	2240      	movs	r2, #64	; 0x40
10001ba2:	4b22      	ldr	r3, [pc, #136]	; (10001c2c <runtime_init+0xd4>)
10001ba4:	4c22      	ldr	r4, [pc, #136]	; (10001c30 <runtime_init+0xd8>)
10001ba6:	4d23      	ldr	r5, [pc, #140]	; (10001c34 <runtime_init+0xdc>)
10001ba8:	679a      	str	r2, [r3, #120]	; 0x78
10001baa:	675a      	str	r2, [r3, #116]	; 0x74
10001bac:	671a      	str	r2, [r3, #112]	; 0x70
10001bae:	66da      	str	r2, [r3, #108]	; 0x6c
10001bb0:	42ac      	cmp	r4, r5
10001bb2:	d208      	bcs.n	10001bc6 <runtime_init+0x6e>
10001bb4:	6823      	ldr	r3, [r4, #0]
10001bb6:	0020      	movs	r0, r4
10001bb8:	2b00      	cmp	r3, #0
10001bba:	d021      	beq.n	10001c00 <runtime_init+0xa8>
10001bbc:	3408      	adds	r4, #8
10001bbe:	f7ff ff4b 	bl	10001a58 <recursive_mutex_init>
10001bc2:	42ac      	cmp	r4, r5
10001bc4:	d3f6      	bcc.n	10001bb4 <runtime_init+0x5c>
10001bc6:	4c1c      	ldr	r4, [pc, #112]	; (10001c38 <runtime_init+0xe0>)
10001bc8:	4d1c      	ldr	r5, [pc, #112]	; (10001c3c <runtime_init+0xe4>)
10001bca:	68a1      	ldr	r1, [r4, #8]
10001bcc:	22c0      	movs	r2, #192	; 0xc0
10001bce:	0028      	movs	r0, r5
10001bd0:	f000 fec8 	bl	10002964 <__wrap___aeabi_memcpy>
10001bd4:	60a5      	str	r5, [r4, #8]
10001bd6:	f7fe fed3 	bl	10000980 <spin_locks_reset>
10001bda:	f7ff f871 	bl	10000cc0 <irq_init_priorities>
10001bde:	f7ff fab7 	bl	10001150 <alarm_pool_init_default>
10001be2:	4c17      	ldr	r4, [pc, #92]	; (10001c40 <runtime_init+0xe8>)
10001be4:	4b17      	ldr	r3, [pc, #92]	; (10001c44 <runtime_init+0xec>)
10001be6:	429c      	cmp	r4, r3
10001be8:	d209      	bcs.n	10001bfe <runtime_init+0xa6>
10001bea:	3b01      	subs	r3, #1
10001bec:	1b1d      	subs	r5, r3, r4
10001bee:	08ad      	lsrs	r5, r5, #2
10001bf0:	3501      	adds	r5, #1
10001bf2:	00ad      	lsls	r5, r5, #2
10001bf4:	192d      	adds	r5, r5, r4
10001bf6:	cc08      	ldmia	r4!, {r3}
10001bf8:	4798      	blx	r3
10001bfa:	42a5      	cmp	r5, r4
10001bfc:	d1fb      	bne.n	10001bf6 <runtime_init+0x9e>
10001bfe:	bd70      	pop	{r4, r5, r6, pc}
10001c00:	3408      	adds	r4, #8
10001c02:	f7ff ff1b 	bl	10001a3c <mutex_init>
10001c06:	42ac      	cmp	r4, r5
10001c08:	d3d4      	bcc.n	10001bb4 <runtime_init+0x5c>
10001c0a:	e7dc      	b.n	10001bc6 <runtime_init+0x6e>
10001c0c:	4000e000 	.word	0x4000e000
10001c10:	fefbcdbf 	.word	0xfefbcdbf
10001c14:	003c7ffe 	.word	0x003c7ffe
10001c18:	4000f000 	.word	0x4000f000
10001c1c:	4000c000 	.word	0x4000c000
10001c20:	200121e0 	.word	0x200121e0
10001c24:	200121f0 	.word	0x200121f0
10001c28:	01ffffff 	.word	0x01ffffff
10001c2c:	4001f000 	.word	0x4001f000
10001c30:	200121d0 	.word	0x200121d0
10001c34:	200121e0 	.word	0x200121e0
10001c38:	e000ed00 	.word	0xe000ed00
10001c3c:	20000000 	.word	0x20000000
10001c40:	200121f0 	.word	0x200121f0
10001c44:	200121f4 	.word	0x200121f4

10001c48 <_sbrk>:
10001c48:	4a09      	ldr	r2, [pc, #36]	; (10001c70 <_sbrk+0x28>)
10001c4a:	0003      	movs	r3, r0
10001c4c:	6810      	ldr	r0, [r2, #0]
10001c4e:	2800      	cmp	r0, #0
10001c50:	d005      	beq.n	10001c5e <_sbrk+0x16>
10001c52:	4908      	ldr	r1, [pc, #32]	; (10001c74 <_sbrk+0x2c>)
10001c54:	18c3      	adds	r3, r0, r3
10001c56:	428b      	cmp	r3, r1
10001c58:	d807      	bhi.n	10001c6a <_sbrk+0x22>
10001c5a:	6013      	str	r3, [r2, #0]
10001c5c:	4770      	bx	lr
10001c5e:	4806      	ldr	r0, [pc, #24]	; (10001c78 <_sbrk+0x30>)
10001c60:	4904      	ldr	r1, [pc, #16]	; (10001c74 <_sbrk+0x2c>)
10001c62:	18c3      	adds	r3, r0, r3
10001c64:	6010      	str	r0, [r2, #0]
10001c66:	428b      	cmp	r3, r1
10001c68:	d9f7      	bls.n	10001c5a <_sbrk+0x12>
10001c6a:	2001      	movs	r0, #1
10001c6c:	4240      	negs	r0, r0
10001c6e:	e7f5      	b.n	10001c5c <_sbrk+0x14>
10001c70:	200123d8 	.word	0x200123d8
10001c74:	20040000 	.word	0x20040000
10001c78:	20013f68 	.word	0x20013f68

10001c7c <exit>:
10001c7c:	be00      	bkpt	0x0000
10001c7e:	e7fd      	b.n	10001c7c <exit>

10001c80 <panic>:
10001c80:	b40f      	push	{r0, r1, r2, r3}
10001c82:	b500      	push	{lr}
10001c84:	4808      	ldr	r0, [pc, #32]	; (10001ca8 <panic+0x28>)
10001c86:	b083      	sub	sp, #12
10001c88:	f000 ff96 	bl	10002bb8 <__wrap_puts>
10001c8c:	9b04      	ldr	r3, [sp, #16]
10001c8e:	2b00      	cmp	r3, #0
10001c90:	d007      	beq.n	10001ca2 <panic+0x22>
10001c92:	a905      	add	r1, sp, #20
10001c94:	0018      	movs	r0, r3
10001c96:	9101      	str	r1, [sp, #4]
10001c98:	f000 fa84 	bl	100021a4 <weak_raw_vprintf>
10001c9c:	4803      	ldr	r0, [pc, #12]	; (10001cac <panic+0x2c>)
10001c9e:	f000 ff8b 	bl	10002bb8 <__wrap_puts>
10001ca2:	be00      	bkpt	0x0000
10001ca4:	e7fd      	b.n	10001ca2 <panic+0x22>
10001ca6:	46c0      	nop			; (mov r8, r8)
10001ca8:	100042f4 	.word	0x100042f4
10001cac:	10004304 	.word	0x10004304

10001cb0 <hard_assertion_failure>:
10001cb0:	b510      	push	{r4, lr}
10001cb2:	4801      	ldr	r0, [pc, #4]	; (10001cb8 <hard_assertion_failure+0x8>)
10001cb4:	f7ff ffe4 	bl	10001c80 <panic>
10001cb8:	10004308 	.word	0x10004308

10001cbc <clock_configure>:
10001cbc:	b5f0      	push	{r4, r5, r6, r7, lr}
10001cbe:	4645      	mov	r5, r8
10001cc0:	46de      	mov	lr, fp
10001cc2:	4657      	mov	r7, sl
10001cc4:	464e      	mov	r6, r9
10001cc6:	b5e0      	push	{r5, r6, r7, lr}
10001cc8:	b083      	sub	sp, #12
10001cca:	9201      	str	r2, [sp, #4]
10001ccc:	9a0c      	ldr	r2, [sp, #48]	; 0x30
10001cce:	0005      	movs	r5, r0
10001cd0:	4688      	mov	r8, r1
10001cd2:	429a      	cmp	r2, r3
10001cd4:	d900      	bls.n	10001cd8 <clock_configure+0x1c>
10001cd6:	e074      	b.n	10001dc2 <clock_configure+0x106>
10001cd8:	0e1a      	lsrs	r2, r3, #24
10001cda:	4693      	mov	fp, r2
10001cdc:	021e      	lsls	r6, r3, #8
10001cde:	0030      	movs	r0, r6
10001ce0:	2300      	movs	r3, #0
10001ce2:	4659      	mov	r1, fp
10001ce4:	9a0c      	ldr	r2, [sp, #48]	; 0x30
10001ce6:	f000 fb1b 	bl	10002320 <__wrap___aeabi_uldivmod>
10001cea:	4b37      	ldr	r3, [pc, #220]	; (10001dc8 <clock_configure+0x10c>)
10001cec:	006c      	lsls	r4, r5, #1
10001cee:	469c      	mov	ip, r3
10001cf0:	1964      	adds	r4, r4, r5
10001cf2:	00a4      	lsls	r4, r4, #2
10001cf4:	4464      	add	r4, ip
10001cf6:	6863      	ldr	r3, [r4, #4]
10001cf8:	0007      	movs	r7, r0
10001cfa:	4283      	cmp	r3, r0
10001cfc:	d200      	bcs.n	10001d00 <clock_configure+0x44>
10001cfe:	6060      	str	r0, [r4, #4]
10001d00:	1f2b      	subs	r3, r5, #4
10001d02:	b2db      	uxtb	r3, r3
10001d04:	4699      	mov	r9, r3
10001d06:	2b01      	cmp	r3, #1
10001d08:	d935      	bls.n	10001d76 <clock_configure+0xba>
10001d0a:	23c0      	movs	r3, #192	; 0xc0
10001d0c:	2280      	movs	r2, #128	; 0x80
10001d0e:	019b      	lsls	r3, r3, #6
10001d10:	4323      	orrs	r3, r4
10001d12:	0112      	lsls	r2, r2, #4
10001d14:	601a      	str	r2, [r3, #0]
10001d16:	4b2d      	ldr	r3, [pc, #180]	; (10001dcc <clock_configure+0x110>)
10001d18:	00ad      	lsls	r5, r5, #2
10001d1a:	5959      	ldr	r1, [r3, r5]
10001d1c:	469a      	mov	sl, r3
10001d1e:	2900      	cmp	r1, #0
10001d20:	d005      	beq.n	10001d2e <clock_configure+0x72>
10001d22:	6958      	ldr	r0, [r3, #20]
10001d24:	f000 faba 	bl	1000229c <__wrap___aeabi_uidiv>
10001d28:	3001      	adds	r0, #1
10001d2a:	3801      	subs	r0, #1
10001d2c:	d1fd      	bne.n	10001d2a <clock_configure+0x6e>
10001d2e:	9a01      	ldr	r2, [sp, #4]
10001d30:	6823      	ldr	r3, [r4, #0]
10001d32:	0152      	lsls	r2, r2, #5
10001d34:	4053      	eors	r3, r2
10001d36:	22e0      	movs	r2, #224	; 0xe0
10001d38:	401a      	ands	r2, r3
10001d3a:	2380      	movs	r3, #128	; 0x80
10001d3c:	015b      	lsls	r3, r3, #5
10001d3e:	4323      	orrs	r3, r4
10001d40:	601a      	str	r2, [r3, #0]
10001d42:	464a      	mov	r2, r9
10001d44:	2a01      	cmp	r2, #1
10001d46:	d92f      	bls.n	10001da8 <clock_configure+0xec>
10001d48:	2380      	movs	r3, #128	; 0x80
10001d4a:	2280      	movs	r2, #128	; 0x80
10001d4c:	019b      	lsls	r3, r3, #6
10001d4e:	4323      	orrs	r3, r4
10001d50:	0112      	lsls	r2, r2, #4
10001d52:	601a      	str	r2, [r3, #0]
10001d54:	0030      	movs	r0, r6
10001d56:	2300      	movs	r3, #0
10001d58:	003a      	movs	r2, r7
10001d5a:	4659      	mov	r1, fp
10001d5c:	6067      	str	r7, [r4, #4]
10001d5e:	f000 fadf 	bl	10002320 <__wrap___aeabi_uldivmod>
10001d62:	4653      	mov	r3, sl
10001d64:	5158      	str	r0, [r3, r5]
10001d66:	2001      	movs	r0, #1
10001d68:	b003      	add	sp, #12
10001d6a:	bc3c      	pop	{r2, r3, r4, r5}
10001d6c:	4690      	mov	r8, r2
10001d6e:	4699      	mov	r9, r3
10001d70:	46a2      	mov	sl, r4
10001d72:	46ab      	mov	fp, r5
10001d74:	bdf0      	pop	{r4, r5, r6, r7, pc}
10001d76:	4643      	mov	r3, r8
10001d78:	2b01      	cmp	r3, #1
10001d7a:	d1c6      	bne.n	10001d0a <clock_configure+0x4e>
10001d7c:	23c0      	movs	r3, #192	; 0xc0
10001d7e:	2203      	movs	r2, #3
10001d80:	019b      	lsls	r3, r3, #6
10001d82:	4323      	orrs	r3, r4
10001d84:	601a      	str	r2, [r3, #0]
10001d86:	3a02      	subs	r2, #2
10001d88:	68a3      	ldr	r3, [r4, #8]
10001d8a:	421a      	tst	r2, r3
10001d8c:	d0fc      	beq.n	10001d88 <clock_configure+0xcc>
10001d8e:	9a01      	ldr	r2, [sp, #4]
10001d90:	6823      	ldr	r3, [r4, #0]
10001d92:	0152      	lsls	r2, r2, #5
10001d94:	405a      	eors	r2, r3
10001d96:	23e0      	movs	r3, #224	; 0xe0
10001d98:	401a      	ands	r2, r3
10001d9a:	2380      	movs	r3, #128	; 0x80
10001d9c:	015b      	lsls	r3, r3, #5
10001d9e:	4323      	orrs	r3, r4
10001da0:	601a      	str	r2, [r3, #0]
10001da2:	4a0a      	ldr	r2, [pc, #40]	; (10001dcc <clock_configure+0x110>)
10001da4:	00ad      	lsls	r5, r5, #2
10001da6:	4692      	mov	sl, r2
10001da8:	4642      	mov	r2, r8
10001daa:	6821      	ldr	r1, [r4, #0]
10001dac:	4051      	eors	r1, r2
10001dae:	2203      	movs	r2, #3
10001db0:	400a      	ands	r2, r1
10001db2:	601a      	str	r2, [r3, #0]
10001db4:	2201      	movs	r2, #1
10001db6:	4643      	mov	r3, r8
10001db8:	409a      	lsls	r2, r3
10001dba:	68a3      	ldr	r3, [r4, #8]
10001dbc:	421a      	tst	r2, r3
10001dbe:	d0fc      	beq.n	10001dba <clock_configure+0xfe>
10001dc0:	e7c2      	b.n	10001d48 <clock_configure+0x8c>
10001dc2:	2000      	movs	r0, #0
10001dc4:	e7d0      	b.n	10001d68 <clock_configure+0xac>
10001dc6:	46c0      	nop			; (mov r8, r8)
10001dc8:	40008000 	.word	0x40008000
10001dcc:	20012360 	.word	0x20012360

10001dd0 <clocks_init>:
10001dd0:	b530      	push	{r4, r5, lr}
10001dd2:	200c      	movs	r0, #12
10001dd4:	b083      	sub	sp, #12
10001dd6:	f000 f9c1 	bl	1000215c <watchdog_start_tick>
10001dda:	f7fe fdc9 	bl	10000970 <running_on_fpga>
10001dde:	2800      	cmp	r0, #0
10001de0:	d00e      	beq.n	10001e00 <clocks_init+0x30>
10001de2:	4b94      	ldr	r3, [pc, #592]	; (10002034 <clocks_init+0x264>)
10001de4:	4a94      	ldr	r2, [pc, #592]	; (10002038 <clocks_init+0x268>)
10001de6:	601a      	str	r2, [r3, #0]
10001de8:	605a      	str	r2, [r3, #4]
10001dea:	609a      	str	r2, [r3, #8]
10001dec:	60da      	str	r2, [r3, #12]
10001dee:	611a      	str	r2, [r3, #16]
10001df0:	615a      	str	r2, [r3, #20]
10001df2:	619a      	str	r2, [r3, #24]
10001df4:	61da      	str	r2, [r3, #28]
10001df6:	621a      	str	r2, [r3, #32]
10001df8:	4a90      	ldr	r2, [pc, #576]	; (1000203c <clocks_init+0x26c>)
10001dfa:	625a      	str	r2, [r3, #36]	; 0x24
10001dfc:	b003      	add	sp, #12
10001dfe:	bd30      	pop	{r4, r5, pc}
10001e00:	4c8f      	ldr	r4, [pc, #572]	; (10002040 <clocks_init+0x270>)
10001e02:	67a0      	str	r0, [r4, #120]	; 0x78
10001e04:	f000 f9b2 	bl	1000216c <xosc_init>
10001e08:	2201      	movs	r2, #1
10001e0a:	4b8e      	ldr	r3, [pc, #568]	; (10002044 <clocks_init+0x274>)
10001e0c:	601a      	str	r2, [r3, #0]
10001e0e:	6c63      	ldr	r3, [r4, #68]	; 0x44
10001e10:	2b01      	cmp	r3, #1
10001e12:	d1fc      	bne.n	10001e0e <clocks_init+0x3e>
10001e14:	2203      	movs	r2, #3
10001e16:	4b8c      	ldr	r3, [pc, #560]	; (10002048 <clocks_init+0x278>)
10001e18:	601a      	str	r2, [r3, #0]
10001e1a:	4a89      	ldr	r2, [pc, #548]	; (10002040 <clocks_init+0x270>)
10001e1c:	6b93      	ldr	r3, [r2, #56]	; 0x38
10001e1e:	2b01      	cmp	r3, #1
10001e20:	d1fc      	bne.n	10001e1c <clocks_init+0x4c>
10001e22:	3301      	adds	r3, #1
10001e24:	2101      	movs	r1, #1
10001e26:	4a89      	ldr	r2, [pc, #548]	; (1000204c <clocks_init+0x27c>)
10001e28:	4889      	ldr	r0, [pc, #548]	; (10002050 <clocks_init+0x280>)
10001e2a:	9300      	str	r3, [sp, #0]
10001e2c:	3304      	adds	r3, #4
10001e2e:	f000 f933 	bl	10002098 <pll_init>
10001e32:	2305      	movs	r3, #5
10001e34:	4a87      	ldr	r2, [pc, #540]	; (10002054 <clocks_init+0x284>)
10001e36:	9300      	str	r3, [sp, #0]
10001e38:	2101      	movs	r1, #1
10001e3a:	4887      	ldr	r0, [pc, #540]	; (10002058 <clocks_init+0x288>)
10001e3c:	f000 f92c 	bl	10002098 <pll_init>
10001e40:	4b86      	ldr	r3, [pc, #536]	; (1000205c <clocks_init+0x28c>)
10001e42:	685a      	ldr	r2, [r3, #4]
10001e44:	2aff      	cmp	r2, #255	; 0xff
10001e46:	d802      	bhi.n	10001e4e <clocks_init+0x7e>
10001e48:	2280      	movs	r2, #128	; 0x80
10001e4a:	0052      	lsls	r2, r2, #1
10001e4c:	605a      	str	r2, [r3, #4]
10001e4e:	2280      	movs	r2, #128	; 0x80
10001e50:	4c78      	ldr	r4, [pc, #480]	; (10002034 <clocks_init+0x264>)
10001e52:	4b7d      	ldr	r3, [pc, #500]	; (10002048 <clocks_init+0x278>)
10001e54:	6921      	ldr	r1, [r4, #16]
10001e56:	0112      	lsls	r2, r2, #4
10001e58:	4d80      	ldr	r5, [pc, #512]	; (1000205c <clocks_init+0x28c>)
10001e5a:	601a      	str	r2, [r3, #0]
10001e5c:	2900      	cmp	r1, #0
10001e5e:	d005      	beq.n	10001e6c <clocks_init+0x9c>
10001e60:	6960      	ldr	r0, [r4, #20]
10001e62:	f000 fa1b 	bl	1000229c <__wrap___aeabi_uidiv>
10001e66:	3001      	adds	r0, #1
10001e68:	3801      	subs	r0, #1
10001e6a:	d1fd      	bne.n	10001e68 <clocks_init+0x98>
10001e6c:	21e0      	movs	r1, #224	; 0xe0
10001e6e:	4b7b      	ldr	r3, [pc, #492]	; (1000205c <clocks_init+0x28c>)
10001e70:	2002      	movs	r0, #2
10001e72:	681a      	ldr	r2, [r3, #0]
10001e74:	4011      	ands	r1, r2
10001e76:	2280      	movs	r2, #128	; 0x80
10001e78:	0152      	lsls	r2, r2, #5
10001e7a:	432a      	orrs	r2, r5
10001e7c:	6011      	str	r1, [r2, #0]
10001e7e:	6819      	ldr	r1, [r3, #0]
10001e80:	4048      	eors	r0, r1
10001e82:	2103      	movs	r1, #3
10001e84:	4001      	ands	r1, r0
10001e86:	6011      	str	r1, [r2, #0]
10001e88:	2104      	movs	r1, #4
10001e8a:	689a      	ldr	r2, [r3, #8]
10001e8c:	4211      	tst	r1, r2
10001e8e:	d0fc      	beq.n	10001e8a <clocks_init+0xba>
10001e90:	2280      	movs	r2, #128	; 0x80
10001e92:	2180      	movs	r1, #128	; 0x80
10001e94:	0192      	lsls	r2, r2, #6
10001e96:	432a      	orrs	r2, r5
10001e98:	0109      	lsls	r1, r1, #4
10001e9a:	6011      	str	r1, [r2, #0]
10001e9c:	2280      	movs	r2, #128	; 0x80
10001e9e:	0052      	lsls	r2, r2, #1
10001ea0:	605a      	str	r2, [r3, #4]
10001ea2:	4b6f      	ldr	r3, [pc, #444]	; (10002060 <clocks_init+0x290>)
10001ea4:	6123      	str	r3, [r4, #16]
10001ea6:	4b6f      	ldr	r3, [pc, #444]	; (10002064 <clocks_init+0x294>)
10001ea8:	6859      	ldr	r1, [r3, #4]
10001eaa:	29ff      	cmp	r1, #255	; 0xff
10001eac:	d800      	bhi.n	10001eb0 <clocks_init+0xe0>
10001eae:	605a      	str	r2, [r3, #4]
10001eb0:	2203      	movs	r2, #3
10001eb2:	486c      	ldr	r0, [pc, #432]	; (10002064 <clocks_init+0x294>)
10001eb4:	4b63      	ldr	r3, [pc, #396]	; (10002044 <clocks_init+0x274>)
10001eb6:	2101      	movs	r1, #1
10001eb8:	601a      	str	r2, [r3, #0]
10001eba:	0002      	movs	r2, r0
10001ebc:	6893      	ldr	r3, [r2, #8]
10001ebe:	4219      	tst	r1, r3
10001ec0:	d0fc      	beq.n	10001ebc <clocks_init+0xec>
10001ec2:	25e0      	movs	r5, #224	; 0xe0
10001ec4:	6813      	ldr	r3, [r2, #0]
10001ec6:	401d      	ands	r5, r3
10001ec8:	2380      	movs	r3, #128	; 0x80
10001eca:	015b      	lsls	r3, r3, #5
10001ecc:	4303      	orrs	r3, r0
10001ece:	601d      	str	r5, [r3, #0]
10001ed0:	6812      	ldr	r2, [r2, #0]
10001ed2:	404a      	eors	r2, r1
10001ed4:	2103      	movs	r1, #3
10001ed6:	4011      	ands	r1, r2
10001ed8:	6019      	str	r1, [r3, #0]
10001eda:	2102      	movs	r1, #2
10001edc:	4a61      	ldr	r2, [pc, #388]	; (10002064 <clocks_init+0x294>)
10001ede:	6893      	ldr	r3, [r2, #8]
10001ee0:	4219      	tst	r1, r3
10001ee2:	d0fc      	beq.n	10001ede <clocks_init+0x10e>
10001ee4:	2380      	movs	r3, #128	; 0x80
10001ee6:	2180      	movs	r1, #128	; 0x80
10001ee8:	019b      	lsls	r3, r3, #6
10001eea:	4303      	orrs	r3, r0
10001eec:	0109      	lsls	r1, r1, #4
10001eee:	6019      	str	r1, [r3, #0]
10001ef0:	2180      	movs	r1, #128	; 0x80
10001ef2:	4b5d      	ldr	r3, [pc, #372]	; (10002068 <clocks_init+0x298>)
10001ef4:	0049      	lsls	r1, r1, #1
10001ef6:	6051      	str	r1, [r2, #4]
10001ef8:	6163      	str	r3, [r4, #20]
10001efa:	4b5c      	ldr	r3, [pc, #368]	; (1000206c <clocks_init+0x29c>)
10001efc:	685a      	ldr	r2, [r3, #4]
10001efe:	2aff      	cmp	r2, #255	; 0xff
10001f00:	d800      	bhi.n	10001f04 <clocks_init+0x134>
10001f02:	6059      	str	r1, [r3, #4]
10001f04:	2280      	movs	r2, #128	; 0x80
10001f06:	4b5a      	ldr	r3, [pc, #360]	; (10002070 <clocks_init+0x2a0>)
10001f08:	69e1      	ldr	r1, [r4, #28]
10001f0a:	0112      	lsls	r2, r2, #4
10001f0c:	4d57      	ldr	r5, [pc, #348]	; (1000206c <clocks_init+0x29c>)
10001f0e:	601a      	str	r2, [r3, #0]
10001f10:	2900      	cmp	r1, #0
10001f12:	d005      	beq.n	10001f20 <clocks_init+0x150>
10001f14:	6960      	ldr	r0, [r4, #20]
10001f16:	f000 f9c1 	bl	1000229c <__wrap___aeabi_uidiv>
10001f1a:	3001      	adds	r0, #1
10001f1c:	3801      	subs	r0, #1
10001f1e:	d1fd      	bne.n	10001f1c <clocks_init+0x14c>
10001f20:	22e0      	movs	r2, #224	; 0xe0
10001f22:	4952      	ldr	r1, [pc, #328]	; (1000206c <clocks_init+0x29c>)
10001f24:	680b      	ldr	r3, [r1, #0]
10001f26:	401a      	ands	r2, r3
10001f28:	2380      	movs	r3, #128	; 0x80
10001f2a:	015b      	lsls	r3, r3, #5
10001f2c:	432b      	orrs	r3, r5
10001f2e:	601a      	str	r2, [r3, #0]
10001f30:	2380      	movs	r3, #128	; 0x80
10001f32:	2280      	movs	r2, #128	; 0x80
10001f34:	019b      	lsls	r3, r3, #6
10001f36:	432b      	orrs	r3, r5
10001f38:	0112      	lsls	r2, r2, #4
10001f3a:	601a      	str	r2, [r3, #0]
10001f3c:	2280      	movs	r2, #128	; 0x80
10001f3e:	4b3e      	ldr	r3, [pc, #248]	; (10002038 <clocks_init+0x268>)
10001f40:	0052      	lsls	r2, r2, #1
10001f42:	604a      	str	r2, [r1, #4]
10001f44:	61e3      	str	r3, [r4, #28]
10001f46:	4b4b      	ldr	r3, [pc, #300]	; (10002074 <clocks_init+0x2a4>)
10001f48:	6859      	ldr	r1, [r3, #4]
10001f4a:	29ff      	cmp	r1, #255	; 0xff
10001f4c:	d800      	bhi.n	10001f50 <clocks_init+0x180>
10001f4e:	605a      	str	r2, [r3, #4]
10001f50:	2280      	movs	r2, #128	; 0x80
10001f52:	4b49      	ldr	r3, [pc, #292]	; (10002078 <clocks_init+0x2a8>)
10001f54:	6a21      	ldr	r1, [r4, #32]
10001f56:	0112      	lsls	r2, r2, #4
10001f58:	4d46      	ldr	r5, [pc, #280]	; (10002074 <clocks_init+0x2a4>)
10001f5a:	601a      	str	r2, [r3, #0]
10001f5c:	2900      	cmp	r1, #0
10001f5e:	d005      	beq.n	10001f6c <clocks_init+0x19c>
10001f60:	6960      	ldr	r0, [r4, #20]
10001f62:	f000 f99b 	bl	1000229c <__wrap___aeabi_uidiv>
10001f66:	3001      	adds	r0, #1
10001f68:	3801      	subs	r0, #1
10001f6a:	d1fd      	bne.n	10001f68 <clocks_init+0x198>
10001f6c:	22e0      	movs	r2, #224	; 0xe0
10001f6e:	4941      	ldr	r1, [pc, #260]	; (10002074 <clocks_init+0x2a4>)
10001f70:	680b      	ldr	r3, [r1, #0]
10001f72:	401a      	ands	r2, r3
10001f74:	2380      	movs	r3, #128	; 0x80
10001f76:	015b      	lsls	r3, r3, #5
10001f78:	432b      	orrs	r3, r5
10001f7a:	601a      	str	r2, [r3, #0]
10001f7c:	2380      	movs	r3, #128	; 0x80
10001f7e:	2280      	movs	r2, #128	; 0x80
10001f80:	019b      	lsls	r3, r3, #6
10001f82:	432b      	orrs	r3, r5
10001f84:	0112      	lsls	r2, r2, #4
10001f86:	601a      	str	r2, [r3, #0]
10001f88:	2380      	movs	r3, #128	; 0x80
10001f8a:	2280      	movs	r2, #128	; 0x80
10001f8c:	005b      	lsls	r3, r3, #1
10001f8e:	604b      	str	r3, [r1, #4]
10001f90:	4b29      	ldr	r3, [pc, #164]	; (10002038 <clocks_init+0x268>)
10001f92:	02d2      	lsls	r2, r2, #11
10001f94:	6223      	str	r3, [r4, #32]
10001f96:	4b39      	ldr	r3, [pc, #228]	; (1000207c <clocks_init+0x2ac>)
10001f98:	6859      	ldr	r1, [r3, #4]
10001f9a:	4291      	cmp	r1, r2
10001f9c:	d200      	bcs.n	10001fa0 <clocks_init+0x1d0>
10001f9e:	605a      	str	r2, [r3, #4]
10001fa0:	2280      	movs	r2, #128	; 0x80
10001fa2:	4b37      	ldr	r3, [pc, #220]	; (10002080 <clocks_init+0x2b0>)
10001fa4:	6a61      	ldr	r1, [r4, #36]	; 0x24
10001fa6:	0112      	lsls	r2, r2, #4
10001fa8:	4d34      	ldr	r5, [pc, #208]	; (1000207c <clocks_init+0x2ac>)
10001faa:	601a      	str	r2, [r3, #0]
10001fac:	2900      	cmp	r1, #0
10001fae:	d005      	beq.n	10001fbc <clocks_init+0x1ec>
10001fb0:	6960      	ldr	r0, [r4, #20]
10001fb2:	f000 f973 	bl	1000229c <__wrap___aeabi_uidiv>
10001fb6:	3001      	adds	r0, #1
10001fb8:	3801      	subs	r0, #1
10001fba:	d1fd      	bne.n	10001fb8 <clocks_init+0x1e8>
10001fbc:	22e0      	movs	r2, #224	; 0xe0
10001fbe:	492f      	ldr	r1, [pc, #188]	; (1000207c <clocks_init+0x2ac>)
10001fc0:	680b      	ldr	r3, [r1, #0]
10001fc2:	401a      	ands	r2, r3
10001fc4:	2380      	movs	r3, #128	; 0x80
10001fc6:	015b      	lsls	r3, r3, #5
10001fc8:	432b      	orrs	r3, r5
10001fca:	601a      	str	r2, [r3, #0]
10001fcc:	2380      	movs	r3, #128	; 0x80
10001fce:	2280      	movs	r2, #128	; 0x80
10001fd0:	019b      	lsls	r3, r3, #6
10001fd2:	432b      	orrs	r3, r5
10001fd4:	0112      	lsls	r2, r2, #4
10001fd6:	601a      	str	r2, [r3, #0]
10001fd8:	2380      	movs	r3, #128	; 0x80
10001fda:	02db      	lsls	r3, r3, #11
10001fdc:	604b      	str	r3, [r1, #4]
10001fde:	4b17      	ldr	r3, [pc, #92]	; (1000203c <clocks_init+0x26c>)
10001fe0:	6263      	str	r3, [r4, #36]	; 0x24
10001fe2:	4b28      	ldr	r3, [pc, #160]	; (10002084 <clocks_init+0x2b4>)
10001fe4:	685a      	ldr	r2, [r3, #4]
10001fe6:	2aff      	cmp	r2, #255	; 0xff
10001fe8:	d802      	bhi.n	10001ff0 <clocks_init+0x220>
10001fea:	2280      	movs	r2, #128	; 0x80
10001fec:	0052      	lsls	r2, r2, #1
10001fee:	605a      	str	r2, [r3, #4]
10001ff0:	2280      	movs	r2, #128	; 0x80
10001ff2:	4b25      	ldr	r3, [pc, #148]	; (10002088 <clocks_init+0x2b8>)
10001ff4:	69a1      	ldr	r1, [r4, #24]
10001ff6:	0112      	lsls	r2, r2, #4
10001ff8:	4d22      	ldr	r5, [pc, #136]	; (10002084 <clocks_init+0x2b4>)
10001ffa:	601a      	str	r2, [r3, #0]
10001ffc:	2900      	cmp	r1, #0
10001ffe:	d005      	beq.n	1000200c <clocks_init+0x23c>
10002000:	6960      	ldr	r0, [r4, #20]
10002002:	f000 f94b 	bl	1000229c <__wrap___aeabi_uidiv>
10002006:	3001      	adds	r0, #1
10002008:	3801      	subs	r0, #1
1000200a:	d1fd      	bne.n	10002008 <clocks_init+0x238>
1000200c:	22e0      	movs	r2, #224	; 0xe0
1000200e:	491d      	ldr	r1, [pc, #116]	; (10002084 <clocks_init+0x2b4>)
10002010:	680b      	ldr	r3, [r1, #0]
10002012:	401a      	ands	r2, r3
10002014:	2380      	movs	r3, #128	; 0x80
10002016:	015b      	lsls	r3, r3, #5
10002018:	432b      	orrs	r3, r5
1000201a:	601a      	str	r2, [r3, #0]
1000201c:	2380      	movs	r3, #128	; 0x80
1000201e:	2280      	movs	r2, #128	; 0x80
10002020:	019b      	lsls	r3, r3, #6
10002022:	432b      	orrs	r3, r5
10002024:	0112      	lsls	r2, r2, #4
10002026:	601a      	str	r2, [r3, #0]
10002028:	2380      	movs	r3, #128	; 0x80
1000202a:	005b      	lsls	r3, r3, #1
1000202c:	604b      	str	r3, [r1, #4]
1000202e:	4b0e      	ldr	r3, [pc, #56]	; (10002068 <clocks_init+0x298>)
10002030:	61a3      	str	r3, [r4, #24]
10002032:	e6e3      	b.n	10001dfc <clocks_init+0x2c>
10002034:	20012360 	.word	0x20012360
10002038:	02dc6c00 	.word	0x02dc6c00
1000203c:	0000b71b 	.word	0x0000b71b
10002040:	40008000 	.word	0x40008000
10002044:	4000b03c 	.word	0x4000b03c
10002048:	4000b030 	.word	0x4000b030
1000204c:	59682f00 	.word	0x59682f00
10002050:	40028000 	.word	0x40028000
10002054:	47868c00 	.word	0x47868c00
10002058:	4002c000 	.word	0x4002c000
1000205c:	40008030 	.word	0x40008030
10002060:	00b71b00 	.word	0x00b71b00
10002064:	4000803c 	.word	0x4000803c
10002068:	07735940 	.word	0x07735940
1000206c:	40008054 	.word	0x40008054
10002070:	4000b054 	.word	0x4000b054
10002074:	40008060 	.word	0x40008060
10002078:	4000b060 	.word	0x4000b060
1000207c:	4000806c 	.word	0x4000806c
10002080:	4000b06c 	.word	0x4000b06c
10002084:	40008048 	.word	0x40008048
10002088:	4000b048 	.word	0x4000b048

1000208c <clock_get_hz>:
1000208c:	4b01      	ldr	r3, [pc, #4]	; (10002094 <clock_get_hz+0x8>)
1000208e:	0080      	lsls	r0, r0, #2
10002090:	58c0      	ldr	r0, [r0, r3]
10002092:	4770      	bx	lr
10002094:	20012360 	.word	0x20012360

10002098 <pll_init>:
10002098:	b5f8      	push	{r3, r4, r5, r6, r7, lr}
1000209a:	0004      	movs	r4, r0
1000209c:	200c      	movs	r0, #12
1000209e:	0017      	movs	r7, r2
100020a0:	001d      	movs	r5, r3
100020a2:	000e      	movs	r6, r1
100020a4:	f000 f8fa 	bl	1000229c <__wrap___aeabi_uidiv>
100020a8:	0141      	lsls	r1, r0, #5
100020aa:	1a09      	subs	r1, r1, r0
100020ac:	018b      	lsls	r3, r1, #6
100020ae:	1a59      	subs	r1, r3, r1
100020b0:	00c9      	lsls	r1, r1, #3
100020b2:	1809      	adds	r1, r1, r0
100020b4:	0189      	lsls	r1, r1, #6
100020b6:	0038      	movs	r0, r7
100020b8:	f000 f8f0 	bl	1000229c <__wrap___aeabi_uidiv>
100020bc:	9a06      	ldr	r2, [sp, #24]
100020be:	042b      	lsls	r3, r5, #16
100020c0:	0312      	lsls	r2, r2, #12
100020c2:	4313      	orrs	r3, r2
100020c4:	6822      	ldr	r2, [r4, #0]
100020c6:	2a00      	cmp	r2, #0
100020c8:	db21      	blt.n	1000210e <pll_init+0x76>
100020ca:	4a19      	ldr	r2, [pc, #100]	; (10002130 <pll_init+0x98>)
100020cc:	18a2      	adds	r2, r4, r2
100020ce:	4251      	negs	r1, r2
100020d0:	414a      	adcs	r2, r1
100020d2:	2180      	movs	r1, #128	; 0x80
100020d4:	0149      	lsls	r1, r1, #5
100020d6:	468c      	mov	ip, r1
100020d8:	4252      	negs	r2, r2
100020da:	400a      	ands	r2, r1
100020dc:	4915      	ldr	r1, [pc, #84]	; (10002134 <pll_init+0x9c>)
100020de:	4462      	add	r2, ip
100020e0:	600a      	str	r2, [r1, #0]
100020e2:	4915      	ldr	r1, [pc, #84]	; (10002138 <pll_init+0xa0>)
100020e4:	600a      	str	r2, [r1, #0]
100020e6:	4915      	ldr	r1, [pc, #84]	; (1000213c <pll_init+0xa4>)
100020e8:	0017      	movs	r7, r2
100020ea:	688d      	ldr	r5, [r1, #8]
100020ec:	43af      	bics	r7, r5
100020ee:	d1fb      	bne.n	100020e8 <pll_init+0x50>
100020f0:	21c0      	movs	r1, #192	; 0xc0
100020f2:	1d22      	adds	r2, r4, #4
100020f4:	0189      	lsls	r1, r1, #6
100020f6:	4311      	orrs	r1, r2
100020f8:	2221      	movs	r2, #33	; 0x21
100020fa:	6026      	str	r6, [r4, #0]
100020fc:	60a0      	str	r0, [r4, #8]
100020fe:	600a      	str	r2, [r1, #0]
10002100:	6822      	ldr	r2, [r4, #0]
10002102:	2a00      	cmp	r2, #0
10002104:	dafc      	bge.n	10002100 <pll_init+0x68>
10002106:	60e3      	str	r3, [r4, #12]
10002108:	2308      	movs	r3, #8
1000210a:	600b      	str	r3, [r1, #0]
1000210c:	bdf8      	pop	{r3, r4, r5, r6, r7, pc}
1000210e:	223f      	movs	r2, #63	; 0x3f
10002110:	6821      	ldr	r1, [r4, #0]
10002112:	400a      	ands	r2, r1
10002114:	42b2      	cmp	r2, r6
10002116:	d1d8      	bne.n	100020ca <pll_init+0x32>
10002118:	68a2      	ldr	r2, [r4, #8]
1000211a:	0512      	lsls	r2, r2, #20
1000211c:	0d12      	lsrs	r2, r2, #20
1000211e:	4282      	cmp	r2, r0
10002120:	d1d3      	bne.n	100020ca <pll_init+0x32>
10002122:	21ee      	movs	r1, #238	; 0xee
10002124:	68e2      	ldr	r2, [r4, #12]
10002126:	02c9      	lsls	r1, r1, #11
10002128:	400a      	ands	r2, r1
1000212a:	429a      	cmp	r2, r3
1000212c:	d1cd      	bne.n	100020ca <pll_init+0x32>
1000212e:	e7ed      	b.n	1000210c <pll_init+0x74>
10002130:	bffd4000 	.word	0xbffd4000
10002134:	4000e000 	.word	0x4000e000
10002138:	4000f000 	.word	0x4000f000
1000213c:	4000c000 	.word	0x4000c000

10002140 <vreg_set_voltage>:
10002140:	4b04      	ldr	r3, [pc, #16]	; (10002154 <vreg_set_voltage+0x14>)
10002142:	0100      	lsls	r0, r0, #4
10002144:	681b      	ldr	r3, [r3, #0]
10002146:	4058      	eors	r0, r3
10002148:	23f0      	movs	r3, #240	; 0xf0
1000214a:	4018      	ands	r0, r3
1000214c:	4b02      	ldr	r3, [pc, #8]	; (10002158 <vreg_set_voltage+0x18>)
1000214e:	6018      	str	r0, [r3, #0]
10002150:	4770      	bx	lr
10002152:	46c0      	nop			; (mov r8, r8)
10002154:	40064000 	.word	0x40064000
10002158:	40065000 	.word	0x40065000

1000215c <watchdog_start_tick>:
1000215c:	2380      	movs	r3, #128	; 0x80
1000215e:	4a02      	ldr	r2, [pc, #8]	; (10002168 <watchdog_start_tick+0xc>)
10002160:	009b      	lsls	r3, r3, #2
10002162:	4303      	orrs	r3, r0
10002164:	62d3      	str	r3, [r2, #44]	; 0x2c
10002166:	4770      	bx	lr
10002168:	40058000 	.word	0x40058000

1000216c <xosc_init>:
1000216c:	23aa      	movs	r3, #170	; 0xaa
1000216e:	4a06      	ldr	r2, [pc, #24]	; (10002188 <xosc_init+0x1c>)
10002170:	011b      	lsls	r3, r3, #4
10002172:	6013      	str	r3, [r2, #0]
10002174:	232f      	movs	r3, #47	; 0x2f
10002176:	4905      	ldr	r1, [pc, #20]	; (1000218c <xosc_init+0x20>)
10002178:	60d3      	str	r3, [r2, #12]
1000217a:	4b05      	ldr	r3, [pc, #20]	; (10002190 <xosc_init+0x24>)
1000217c:	6019      	str	r1, [r3, #0]
1000217e:	6853      	ldr	r3, [r2, #4]
10002180:	2b00      	cmp	r3, #0
10002182:	dafc      	bge.n	1000217e <xosc_init+0x12>
10002184:	4770      	bx	lr
10002186:	46c0      	nop			; (mov r8, r8)
10002188:	40024000 	.word	0x40024000
1000218c:	00fab000 	.word	0x00fab000
10002190:	40026000 	.word	0x40026000

10002194 <_out_char>:
10002194:	b510      	push	{r4, lr}
10002196:	2800      	cmp	r0, #0
10002198:	d100      	bne.n	1000219c <_out_char+0x8>
1000219a:	bd10      	pop	{r4, pc}
1000219c:	f000 fcba 	bl	10002b14 <__wrap_putchar>
100021a0:	e7fb      	b.n	1000219a <_out_char+0x6>
100021a2:	46c0      	nop			; (mov r8, r8)

100021a4 <weak_raw_vprintf>:
100021a4:	b510      	push	{r4, lr}
100021a6:	4a09      	ldr	r2, [pc, #36]	; (100021cc <weak_raw_vprintf+0x28>)
100021a8:	0003      	movs	r3, r0
100021aa:	6814      	ldr	r4, [r2, #0]
100021ac:	b084      	sub	sp, #16
100021ae:	2c00      	cmp	r4, #0
100021b0:	d008      	beq.n	100021c4 <weak_raw_vprintf+0x20>
100021b2:	2201      	movs	r2, #1
100021b4:	9100      	str	r1, [sp, #0]
100021b6:	4806      	ldr	r0, [pc, #24]	; (100021d0 <weak_raw_vprintf+0x2c>)
100021b8:	4252      	negs	r2, r2
100021ba:	a903      	add	r1, sp, #12
100021bc:	47a0      	blx	r4
100021be:	2001      	movs	r0, #1
100021c0:	b004      	add	sp, #16
100021c2:	bd10      	pop	{r4, pc}
100021c4:	f000 fcf8 	bl	10002bb8 <__wrap_puts>
100021c8:	2000      	movs	r0, #0
100021ca:	e7f9      	b.n	100021c0 <weak_raw_vprintf+0x1c>
100021cc:	200123dc 	.word	0x200123dc
100021d0:	10002195 	.word	0x10002195

100021d4 <__aeabi_bits_init>:
100021d4:	4801      	ldr	r0, [pc, #4]	; (100021dc <__aeabi_bits_init+0x8>)
100021d6:	2104      	movs	r1, #4
100021d8:	4b01      	ldr	r3, [pc, #4]	; (100021e0 <__aeabi_bits_init+0xc>)
100021da:	4718      	bx	r3
100021dc:	20011960 	.word	0x20011960
100021e0:	10002211 	.word	0x10002211

100021e4 <__wrap___ctzsi2>:
100021e4:	4b01      	ldr	r3, [pc, #4]	; (100021ec <__wrap___ctzsi2+0x8>)
100021e6:	689b      	ldr	r3, [r3, #8]
100021e8:	4718      	bx	r3
100021ea:	0000      	.short	0x0000
100021ec:	20011960 	.word	0x20011960

100021f0 <rom_func_lookup>:
100021f0:	2314      	movs	r3, #20
100021f2:	b510      	push	{r4, lr}
100021f4:	0001      	movs	r1, r0
100021f6:	8818      	ldrh	r0, [r3, #0]
100021f8:	3304      	adds	r3, #4
100021fa:	881b      	ldrh	r3, [r3, #0]
100021fc:	4798      	blx	r3
100021fe:	bd10      	pop	{r4, pc}

10002200 <rom_data_lookup>:
10002200:	2316      	movs	r3, #22
10002202:	b510      	push	{r4, lr}
10002204:	0001      	movs	r1, r0
10002206:	8818      	ldrh	r0, [r3, #0]
10002208:	3302      	adds	r3, #2
1000220a:	881b      	ldrh	r3, [r3, #0]
1000220c:	4798      	blx	r3
1000220e:	bd10      	pop	{r4, pc}

10002210 <rom_funcs_lookup>:
10002210:	b5f0      	push	{r4, r5, r6, r7, lr}
10002212:	46c6      	mov	lr, r8
10002214:	b500      	push	{lr}
10002216:	2900      	cmp	r1, #0
10002218:	d016      	beq.n	10002248 <rom_funcs_lookup+0x38>
1000221a:	2314      	movs	r3, #20
1000221c:	0004      	movs	r4, r0
1000221e:	2501      	movs	r5, #1
10002220:	4698      	mov	r8, r3
10002222:	2718      	movs	r7, #24
10002224:	0089      	lsls	r1, r1, #2
10002226:	1846      	adds	r6, r0, r1
10002228:	4643      	mov	r3, r8
1000222a:	6821      	ldr	r1, [r4, #0]
1000222c:	8818      	ldrh	r0, [r3, #0]
1000222e:	883b      	ldrh	r3, [r7, #0]
10002230:	4798      	blx	r3
10002232:	c401      	stmia	r4!, {r0}
10002234:	1e43      	subs	r3, r0, #1
10002236:	4198      	sbcs	r0, r3
10002238:	4240      	negs	r0, r0
1000223a:	4005      	ands	r5, r0
1000223c:	42a6      	cmp	r6, r4
1000223e:	d1f3      	bne.n	10002228 <rom_funcs_lookup+0x18>
10002240:	0028      	movs	r0, r5
10002242:	bc04      	pop	{r2}
10002244:	4690      	mov	r8, r2
10002246:	bdf0      	pop	{r4, r5, r6, r7, pc}
10002248:	2501      	movs	r5, #1
1000224a:	e7f9      	b.n	10002240 <rom_funcs_lookup+0x30>

1000224c <__wrap___aeabi_idiv>:
1000224c:	4a12      	ldr	r2, [pc, #72]	; (10002298 <divmod_s32s32_savestate+0x18>)
1000224e:	6f93      	ldr	r3, [r2, #120]	; 0x78
10002250:	089b      	lsrs	r3, r3, #2
10002252:	d215      	bcs.n	10002280 <divmod_s32s32_savestate>

10002254 <divmod_s32s32_unsafe>:
10002254:	6690      	str	r0, [r2, #104]	; 0x68
10002256:	66d1      	str	r1, [r2, #108]	; 0x6c
10002258:	2900      	cmp	r1, #0
1000225a:	d005      	beq.n	10002268 <divmod_s32s32_unsafe+0x14>
1000225c:	e7ff      	b.n	1000225e <divmod_s32s32_unsafe+0xa>
1000225e:	e7ff      	b.n	10002260 <divmod_s32s32_unsafe+0xc>
10002260:	e7ff      	b.n	10002262 <divmod_s32s32_unsafe+0xe>
10002262:	6f51      	ldr	r1, [r2, #116]	; 0x74
10002264:	6f10      	ldr	r0, [r2, #112]	; 0x70
10002266:	4770      	bx	lr
10002268:	b504      	push	{r2, lr}
1000226a:	2180      	movs	r1, #128	; 0x80
1000226c:	0609      	lsls	r1, r1, #24
1000226e:	17c2      	asrs	r2, r0, #31
10002270:	4051      	eors	r1, r2
10002272:	2800      	cmp	r0, #0
10002274:	d000      	beq.n	10002278 <divmod_s32s32_unsafe+0x24>
10002276:	43c8      	mvns	r0, r1
10002278:	f001 ffca 	bl	10004210 <____aeabi_idiv0_veneer>
1000227c:	2100      	movs	r1, #0
1000227e:	bd04      	pop	{r2, pc}

10002280 <divmod_s32s32_savestate>:
10002280:	b5f0      	push	{r4, r5, r6, r7, lr}
10002282:	6e14      	ldr	r4, [r2, #96]	; 0x60
10002284:	6e55      	ldr	r5, [r2, #100]	; 0x64
10002286:	6f57      	ldr	r7, [r2, #116]	; 0x74
10002288:	6f16      	ldr	r6, [r2, #112]	; 0x70
1000228a:	f7ff ffe3 	bl	10002254 <divmod_s32s32_unsafe>
1000228e:	6614      	str	r4, [r2, #96]	; 0x60
10002290:	6655      	str	r5, [r2, #100]	; 0x64
10002292:	6757      	str	r7, [r2, #116]	; 0x74
10002294:	6716      	str	r6, [r2, #112]	; 0x70
10002296:	bdf0      	pop	{r4, r5, r6, r7, pc}
10002298:	d0000000 	.word	0xd0000000

1000229c <__wrap___aeabi_uidiv>:
1000229c:	4a11      	ldr	r2, [pc, #68]	; (100022e4 <divmod_u32u32_savestate+0x18>)
1000229e:	6f93      	ldr	r3, [r2, #120]	; 0x78
100022a0:	089b      	lsrs	r3, r3, #2
100022a2:	d213      	bcs.n	100022cc <divmod_u32u32_savestate>

100022a4 <divmod_u32u32_unsafe>:
100022a4:	6610      	str	r0, [r2, #96]	; 0x60
100022a6:	6651      	str	r1, [r2, #100]	; 0x64
100022a8:	2900      	cmp	r1, #0
100022aa:	d005      	beq.n	100022b8 <divmod_u32u32_unsafe+0x14>
100022ac:	e7ff      	b.n	100022ae <divmod_u32u32_unsafe+0xa>
100022ae:	e7ff      	b.n	100022b0 <divmod_u32u32_unsafe+0xc>
100022b0:	e7ff      	b.n	100022b2 <divmod_u32u32_unsafe+0xe>
100022b2:	6f51      	ldr	r1, [r2, #116]	; 0x74
100022b4:	6f10      	ldr	r0, [r2, #112]	; 0x70
100022b6:	4770      	bx	lr
100022b8:	b504      	push	{r2, lr}
100022ba:	2800      	cmp	r0, #0
100022bc:	d001      	beq.n	100022c2 <divmod_u32u32_unsafe+0x1e>
100022be:	2000      	movs	r0, #0
100022c0:	43c0      	mvns	r0, r0
100022c2:	f001 ffa5 	bl	10004210 <____aeabi_idiv0_veneer>
100022c6:	2100      	movs	r1, #0
100022c8:	bd04      	pop	{r2, pc}
100022ca:	46c0      	nop			; (mov r8, r8)

100022cc <divmod_u32u32_savestate>:
100022cc:	b5f0      	push	{r4, r5, r6, r7, lr}
100022ce:	6e14      	ldr	r4, [r2, #96]	; 0x60
100022d0:	6e55      	ldr	r5, [r2, #100]	; 0x64
100022d2:	6f57      	ldr	r7, [r2, #116]	; 0x74
100022d4:	6f16      	ldr	r6, [r2, #112]	; 0x70
100022d6:	f7ff ffe5 	bl	100022a4 <divmod_u32u32_unsafe>
100022da:	6614      	str	r4, [r2, #96]	; 0x60
100022dc:	6655      	str	r5, [r2, #100]	; 0x64
100022de:	6757      	str	r7, [r2, #116]	; 0x74
100022e0:	6716      	str	r6, [r2, #112]	; 0x70
100022e2:	bdf0      	pop	{r4, r5, r6, r7, pc}
100022e4:	d0000000 	.word	0xd0000000

100022e8 <__wrap___aeabi_ldivmod>:
100022e8:	4694      	mov	ip, r2
100022ea:	4a4e      	ldr	r2, [pc, #312]	; (10002424 <udiv0+0x1a>)
100022ec:	6f92      	ldr	r2, [r2, #120]	; 0x78
100022ee:	0892      	lsrs	r2, r2, #2
100022f0:	4662      	mov	r2, ip
100022f2:	d201      	bcs.n	100022f8 <divmod_s64s64_savestate>
100022f4:	e030      	b.n	10002358 <divmod_s64s64_unsafe>
100022f6:	46c0      	nop			; (mov r8, r8)

100022f8 <divmod_s64s64_savestate>:
100022f8:	b5f0      	push	{r4, r5, r6, r7, lr}
100022fa:	4e4a      	ldr	r6, [pc, #296]	; (10002424 <udiv0+0x1a>)
100022fc:	6fb5      	ldr	r5, [r6, #120]	; 0x78
100022fe:	086d      	lsrs	r5, r5, #1
10002300:	d3fc      	bcc.n	100022fc <divmod_s64s64_savestate+0x4>
10002302:	6e34      	ldr	r4, [r6, #96]	; 0x60
10002304:	6e75      	ldr	r5, [r6, #100]	; 0x64
10002306:	6f77      	ldr	r7, [r6, #116]	; 0x74
10002308:	6f36      	ldr	r6, [r6, #112]	; 0x70
1000230a:	f000 f825 	bl	10002358 <divmod_s64s64_unsafe>
1000230e:	4694      	mov	ip, r2
10002310:	4a44      	ldr	r2, [pc, #272]	; (10002424 <udiv0+0x1a>)
10002312:	6614      	str	r4, [r2, #96]	; 0x60
10002314:	6655      	str	r5, [r2, #100]	; 0x64
10002316:	6757      	str	r7, [r2, #116]	; 0x74
10002318:	6716      	str	r6, [r2, #112]	; 0x70
1000231a:	4662      	mov	r2, ip
1000231c:	bdf0      	pop	{r4, r5, r6, r7, pc}
1000231e:	46c0      	nop			; (mov r8, r8)

10002320 <__wrap___aeabi_uldivmod>:
10002320:	4694      	mov	ip, r2
10002322:	4a40      	ldr	r2, [pc, #256]	; (10002424 <udiv0+0x1a>)
10002324:	6f92      	ldr	r2, [r2, #120]	; 0x78
10002326:	0892      	lsrs	r2, r2, #2
10002328:	4662      	mov	r2, ip
1000232a:	d201      	bcs.n	10002330 <divmod_u64u64_savestate>
1000232c:	e058      	b.n	100023e0 <divmod_u64u64_unsafe>
1000232e:	46c0      	nop			; (mov r8, r8)

10002330 <divmod_u64u64_savestate>:
10002330:	b5f0      	push	{r4, r5, r6, r7, lr}
10002332:	4e3c      	ldr	r6, [pc, #240]	; (10002424 <udiv0+0x1a>)
10002334:	6fb5      	ldr	r5, [r6, #120]	; 0x78
10002336:	086d      	lsrs	r5, r5, #1
10002338:	d3fc      	bcc.n	10002334 <divmod_u64u64_savestate+0x4>
1000233a:	6e34      	ldr	r4, [r6, #96]	; 0x60
1000233c:	6e75      	ldr	r5, [r6, #100]	; 0x64
1000233e:	6f77      	ldr	r7, [r6, #116]	; 0x74
10002340:	6f36      	ldr	r6, [r6, #112]	; 0x70
10002342:	f000 f84d 	bl	100023e0 <divmod_u64u64_unsafe>
10002346:	4694      	mov	ip, r2
10002348:	4a36      	ldr	r2, [pc, #216]	; (10002424 <udiv0+0x1a>)
1000234a:	6614      	str	r4, [r2, #96]	; 0x60
1000234c:	6655      	str	r5, [r2, #100]	; 0x64
1000234e:	6757      	str	r7, [r2, #116]	; 0x74
10002350:	6716      	str	r6, [r2, #112]	; 0x70
10002352:	4662      	mov	r2, ip
10002354:	bdf0      	pop	{r4, r5, r6, r7, pc}
10002356:	46c0      	nop			; (mov r8, r8)

10002358 <divmod_s64s64_unsafe>:
10002358:	2b00      	cmp	r3, #0
1000235a:	db24      	blt.n	100023a6 <l41_1+0x26>
1000235c:	d011      	beq.n	10002382 <l41_1+0x2>
1000235e:	2900      	cmp	r1, #0
10002360:	da3e      	bge.n	100023e0 <divmod_u64u64_unsafe>
10002362:	b500      	push	{lr}
10002364:	43c9      	mvns	r1, r1
10002366:	4240      	negs	r0, r0
10002368:	d100      	bne.n	1000236c <l39_1>
1000236a:	3101      	adds	r1, #1

1000236c <l39_1>:
1000236c:	f000 f838 	bl	100023e0 <divmod_u64u64_unsafe>
10002370:	43c9      	mvns	r1, r1
10002372:	4240      	negs	r0, r0
10002374:	d100      	bne.n	10002378 <l40_1>
10002376:	3101      	adds	r1, #1

10002378 <l40_1>:
10002378:	43db      	mvns	r3, r3
1000237a:	4252      	negs	r2, r2
1000237c:	d100      	bne.n	10002380 <l41_1>
1000237e:	3301      	adds	r3, #1

10002380 <l41_1>:
10002380:	bd00      	pop	{pc}
10002382:	2a00      	cmp	r2, #0
10002384:	d1eb      	bne.n	1000235e <divmod_s64s64_unsafe+0x6>
10002386:	2800      	cmp	r0, #0
10002388:	d101      	bne.n	1000238e <l41_1+0xe>
1000238a:	2900      	cmp	r1, #0
1000238c:	d005      	beq.n	1000239a <l41_1+0x1a>
1000238e:	2000      	movs	r0, #0
10002390:	0fc9      	lsrs	r1, r1, #31
10002392:	07c9      	lsls	r1, r1, #31
10002394:	d101      	bne.n	1000239a <l41_1+0x1a>
10002396:	43c0      	mvns	r0, r0
10002398:	0841      	lsrs	r1, r0, #1
1000239a:	b500      	push	{lr}
1000239c:	f001 ff28 	bl	100041f0 <____aeabi_ldiv0_veneer>
100023a0:	2200      	movs	r2, #0
100023a2:	2300      	movs	r3, #0
100023a4:	bd00      	pop	{pc}
100023a6:	b500      	push	{lr}
100023a8:	2900      	cmp	r1, #0
100023aa:	db0a      	blt.n	100023c2 <l43_1+0x2>
100023ac:	43db      	mvns	r3, r3
100023ae:	4252      	negs	r2, r2
100023b0:	d100      	bne.n	100023b4 <l42_1>
100023b2:	3301      	adds	r3, #1

100023b4 <l42_1>:
100023b4:	f000 f814 	bl	100023e0 <divmod_u64u64_unsafe>
100023b8:	43c9      	mvns	r1, r1
100023ba:	4240      	negs	r0, r0
100023bc:	d100      	bne.n	100023c0 <l43_1>
100023be:	3101      	adds	r1, #1

100023c0 <l43_1>:
100023c0:	bd00      	pop	{pc}
100023c2:	43c9      	mvns	r1, r1
100023c4:	4240      	negs	r0, r0
100023c6:	d100      	bne.n	100023ca <l44_1>
100023c8:	3101      	adds	r1, #1

100023ca <l44_1>:
100023ca:	43db      	mvns	r3, r3
100023cc:	4252      	negs	r2, r2
100023ce:	d100      	bne.n	100023d2 <l45_1>
100023d0:	3301      	adds	r3, #1

100023d2 <l45_1>:
100023d2:	f000 f805 	bl	100023e0 <divmod_u64u64_unsafe>
100023d6:	43db      	mvns	r3, r3
100023d8:	4252      	negs	r2, r2
100023da:	d100      	bne.n	100023de <l46_1>
100023dc:	3301      	adds	r3, #1

100023de <l46_1>:
100023de:	bd00      	pop	{pc}

100023e0 <divmod_u64u64_unsafe>:
100023e0:	2900      	cmp	r1, #0
100023e2:	d123      	bne.n	1000242c <y64>
100023e4:	2b00      	cmp	r3, #0
100023e6:	d118      	bne.n	1000241a <udiv0+0x10>
100023e8:	2a00      	cmp	r2, #0
100023ea:	d00c      	beq.n	10002406 <divmod_u64u64_unsafe+0x26>
100023ec:	46bc      	mov	ip, r7
100023ee:	4f0d      	ldr	r7, [pc, #52]	; (10002424 <udiv0+0x1a>)
100023f0:	6638      	str	r0, [r7, #96]	; 0x60
100023f2:	667a      	str	r2, [r7, #100]	; 0x64
100023f4:	2100      	movs	r1, #0
100023f6:	2300      	movs	r3, #0
100023f8:	e7ff      	b.n	100023fa <divmod_u64u64_unsafe+0x1a>
100023fa:	e7ff      	b.n	100023fc <divmod_u64u64_unsafe+0x1c>
100023fc:	e7ff      	b.n	100023fe <divmod_u64u64_unsafe+0x1e>
100023fe:	6f7a      	ldr	r2, [r7, #116]	; 0x74
10002400:	6f38      	ldr	r0, [r7, #112]	; 0x70
10002402:	4667      	mov	r7, ip
10002404:	4770      	bx	lr
10002406:	2800      	cmp	r0, #0
10002408:	d001      	beq.n	1000240e <udiv0+0x4>

1000240a <udiv0>:
1000240a:	4807      	ldr	r0, [pc, #28]	; (10002428 <udiv0+0x1e>)
1000240c:	0001      	movs	r1, r0
1000240e:	b500      	push	{lr}
10002410:	f001 feee 	bl	100041f0 <____aeabi_ldiv0_veneer>
10002414:	2200      	movs	r2, #0
10002416:	2300      	movs	r3, #0
10002418:	bd00      	pop	{pc}
1000241a:	0002      	movs	r2, r0
1000241c:	000b      	movs	r3, r1
1000241e:	2000      	movs	r0, #0
10002420:	2100      	movs	r1, #0
10002422:	4770      	bx	lr
10002424:	d0000000 	.word	0xd0000000
10002428:	ffffffff 	.word	0xffffffff

1000242c <y64>:
1000242c:	2b00      	cmp	r3, #0
1000242e:	d000      	beq.n	10002432 <y64+0x6>
10002430:	e0bf      	b.n	100025b2 <y64_x48>
10002432:	0c13      	lsrs	r3, r2, #16
10002434:	d128      	bne.n	10002488 <y64_x32>
10002436:	2a00      	cmp	r2, #0
10002438:	d0e7      	beq.n	1000240a <udiv0>
1000243a:	b480      	push	{r7}
1000243c:	4f11      	ldr	r7, [pc, #68]	; (10002484 <y64+0x58>)
1000243e:	6639      	str	r1, [r7, #96]	; 0x60
10002440:	667a      	str	r2, [r7, #100]	; 0x64
10002442:	e7ff      	b.n	10002444 <y64+0x18>
10002444:	e7ff      	b.n	10002446 <y64+0x1a>
10002446:	b430      	push	{r4, r5}
10002448:	0c04      	lsrs	r4, r0, #16
1000244a:	6f7b      	ldr	r3, [r7, #116]	; 0x74
1000244c:	6f39      	ldr	r1, [r7, #112]	; 0x70
1000244e:	041b      	lsls	r3, r3, #16
10002450:	4323      	orrs	r3, r4
10002452:	663b      	str	r3, [r7, #96]	; 0x60
10002454:	667a      	str	r2, [r7, #100]	; 0x64
10002456:	e7ff      	b.n	10002458 <y64+0x2c>
10002458:	e7ff      	b.n	1000245a <y64+0x2e>
1000245a:	e7ff      	b.n	1000245c <y64+0x30>
1000245c:	46c0      	nop			; (mov r8, r8)
1000245e:	b284      	uxth	r4, r0
10002460:	6f7b      	ldr	r3, [r7, #116]	; 0x74
10002462:	6f3d      	ldr	r5, [r7, #112]	; 0x70
10002464:	041b      	lsls	r3, r3, #16
10002466:	4323      	orrs	r3, r4
10002468:	663b      	str	r3, [r7, #96]	; 0x60
1000246a:	667a      	str	r2, [r7, #100]	; 0x64
1000246c:	e7ff      	b.n	1000246e <y64+0x42>
1000246e:	e7ff      	b.n	10002470 <y64+0x44>
10002470:	46c0      	nop			; (mov r8, r8)
10002472:	2300      	movs	r3, #0
10002474:	042c      	lsls	r4, r5, #16
10002476:	0c2d      	lsrs	r5, r5, #16
10002478:	6f7a      	ldr	r2, [r7, #116]	; 0x74
1000247a:	6f38      	ldr	r0, [r7, #112]	; 0x70
1000247c:	1900      	adds	r0, r0, r4
1000247e:	4169      	adcs	r1, r5
10002480:	bcb0      	pop	{r4, r5, r7}
10002482:	4770      	bx	lr
10002484:	d0000000 	.word	0xd0000000

10002488 <y64_x32>:
10002488:	b5f0      	push	{r4, r5, r6, r7, lr}
1000248a:	4694      	mov	ip, r2
1000248c:	2500      	movs	r5, #0
1000248e:	0e14      	lsrs	r4, r2, #24
10002490:	d101      	bne.n	10002496 <y64_x32+0xe>
10002492:	0212      	lsls	r2, r2, #8
10002494:	3508      	adds	r5, #8
10002496:	0f14      	lsrs	r4, r2, #28
10002498:	d101      	bne.n	1000249e <y64_x32+0x16>
1000249a:	0112      	lsls	r2, r2, #4
1000249c:	3504      	adds	r5, #4
1000249e:	0f94      	lsrs	r4, r2, #30
100024a0:	d101      	bne.n	100024a6 <y64_x32+0x1e>
100024a2:	0092      	lsls	r2, r2, #2
100024a4:	3502      	adds	r5, #2
100024a6:	0fd4      	lsrs	r4, r2, #31
100024a8:	d101      	bne.n	100024ae <y64_x32+0x26>
100024aa:	0052      	lsls	r2, r2, #1
100024ac:	3501      	adds	r5, #1
100024ae:	0bd4      	lsrs	r4, r2, #15
100024b0:	3401      	adds	r4, #1
100024b2:	4f25      	ldr	r7, [pc, #148]	; (10002548 <y64_x32+0xc0>)
100024b4:	667c      	str	r4, [r7, #100]	; 0x64
100024b6:	4c25      	ldr	r4, [pc, #148]	; (1000254c <y64_x32+0xc4>)
100024b8:	663c      	str	r4, [r7, #96]	; 0x60
100024ba:	0c0e      	lsrs	r6, r1, #16
100024bc:	b293      	uxth	r3, r2
100024be:	e7ff      	b.n	100024c0 <y64_x32+0x38>
100024c0:	e7ff      	b.n	100024c2 <y64_x32+0x3a>
100024c2:	e7ff      	b.n	100024c4 <y64_x32+0x3c>
100024c4:	6f3c      	ldr	r4, [r7, #112]	; 0x70
100024c6:	4366      	muls	r6, r4
100024c8:	0c36      	lsrs	r6, r6, #16
100024ca:	0377      	lsls	r7, r6, #13
100024cc:	46be      	mov	lr, r7
100024ce:	4373      	muls	r3, r6
100024d0:	0bdf      	lsrs	r7, r3, #15
100024d2:	045b      	lsls	r3, r3, #17
100024d4:	1ac0      	subs	r0, r0, r3
100024d6:	41b9      	sbcs	r1, r7
100024d8:	0c13      	lsrs	r3, r2, #16
100024da:	4373      	muls	r3, r6
100024dc:	18db      	adds	r3, r3, r3
100024de:	1ac9      	subs	r1, r1, r3
100024e0:	08ce      	lsrs	r6, r1, #3
100024e2:	4366      	muls	r6, r4
100024e4:	0c36      	lsrs	r6, r6, #16
100024e6:	44b6      	add	lr, r6
100024e8:	b293      	uxth	r3, r2
100024ea:	4373      	muls	r3, r6
100024ec:	0f1f      	lsrs	r7, r3, #28
100024ee:	011b      	lsls	r3, r3, #4
100024f0:	1ac0      	subs	r0, r0, r3
100024f2:	41b9      	sbcs	r1, r7
100024f4:	0c13      	lsrs	r3, r2, #16
100024f6:	4373      	muls	r3, r6
100024f8:	0b1f      	lsrs	r7, r3, #12
100024fa:	051b      	lsls	r3, r3, #20
100024fc:	1ac0      	subs	r0, r0, r3
100024fe:	41b9      	sbcs	r1, r7
10002500:	0d86      	lsrs	r6, r0, #22
10002502:	028f      	lsls	r7, r1, #10
10002504:	433e      	orrs	r6, r7
10002506:	4366      	muls	r6, r4
10002508:	0c36      	lsrs	r6, r6, #16
1000250a:	2d09      	cmp	r5, #9
1000250c:	db24      	blt.n	10002558 <last0>
1000250e:	0a52      	lsrs	r2, r2, #9
10002510:	4372      	muls	r2, r6
10002512:	1a80      	subs	r0, r0, r2
10002514:	0377      	lsls	r7, r6, #13
10002516:	0a46      	lsrs	r6, r0, #9
10002518:	4366      	muls	r6, r4
1000251a:	0c36      	lsrs	r6, r6, #16
1000251c:	2316      	movs	r3, #22
1000251e:	1b5b      	subs	r3, r3, r5
10002520:	40de      	lsrs	r6, r3
10002522:	40df      	lsrs	r7, r3
10002524:	19bf      	adds	r7, r7, r6
10002526:	4664      	mov	r4, ip
10002528:	4366      	muls	r6, r4
1000252a:	1b82      	subs	r2, r0, r6
1000252c:	4670      	mov	r0, lr
1000252e:	3504      	adds	r5, #4
10002530:	3306      	adds	r3, #6
10002532:	0001      	movs	r1, r0
10002534:	40d9      	lsrs	r1, r3
10002536:	40a8      	lsls	r0, r5
10002538:	19c0      	adds	r0, r0, r7
1000253a:	d300      	bcc.n	1000253e <y64_x32+0xb6>
1000253c:	3101      	adds	r1, #1
1000253e:	42a2      	cmp	r2, r4
10002540:	d206      	bcs.n	10002550 <y64_x32+0xc8>
10002542:	2300      	movs	r3, #0
10002544:	bdf0      	pop	{r4, r5, r6, r7, pc}
10002546:	0000      	.short	0x0000
10002548:	d0000000 	.word	0xd0000000
1000254c:	ffffffff 	.word	0xffffffff
10002550:	1b12      	subs	r2, r2, r4
10002552:	3001      	adds	r0, #1
10002554:	d3f3      	bcc.n	1000253e <y64_x32+0xb6>
10002556:	e7f1      	b.n	1000253c <y64_x32+0xb4>

10002558 <last0>:
10002558:	2709      	movs	r7, #9
1000255a:	1b7f      	subs	r7, r7, r5
1000255c:	40fe      	lsrs	r6, r7
1000255e:	4664      	mov	r4, ip
10002560:	b2a2      	uxth	r2, r4
10002562:	4372      	muls	r2, r6
10002564:	1a80      	subs	r0, r0, r2
10002566:	d200      	bcs.n	1000256a <last0+0x12>
10002568:	3901      	subs	r1, #1
1000256a:	0c22      	lsrs	r2, r4, #16
1000256c:	4372      	muls	r2, r6
1000256e:	0c13      	lsrs	r3, r2, #16
10002570:	0412      	lsls	r2, r2, #16
10002572:	1a82      	subs	r2, r0, r2
10002574:	4199      	sbcs	r1, r3
10002576:	000b      	movs	r3, r1
10002578:	4670      	mov	r0, lr
1000257a:	3504      	adds	r5, #4
1000257c:	3713      	adds	r7, #19
1000257e:	0001      	movs	r1, r0
10002580:	40f9      	lsrs	r1, r7
10002582:	40a8      	lsls	r0, r5
10002584:	1980      	adds	r0, r0, r6
10002586:	d300      	bcc.n	1000258a <last0+0x32>
10002588:	3101      	adds	r1, #1
1000258a:	2b00      	cmp	r3, #0
1000258c:	d102      	bne.n	10002594 <last0+0x3c>
1000258e:	42a2      	cmp	r2, r4
10002590:	d20a      	bcs.n	100025a8 <last0+0x50>
10002592:	bdf0      	pop	{r4, r5, r6, r7, pc}
10002594:	3001      	adds	r0, #1
10002596:	d300      	bcc.n	1000259a <last0+0x42>
10002598:	3101      	adds	r1, #1
1000259a:	1b12      	subs	r2, r2, r4
1000259c:	d2fa      	bcs.n	10002594 <last0+0x3c>
1000259e:	3b01      	subs	r3, #1
100025a0:	d1f8      	bne.n	10002594 <last0+0x3c>
100025a2:	42a2      	cmp	r2, r4
100025a4:	d200      	bcs.n	100025a8 <last0+0x50>
100025a6:	bdf0      	pop	{r4, r5, r6, r7, pc}
100025a8:	3001      	adds	r0, #1
100025aa:	d300      	bcc.n	100025ae <last0+0x56>
100025ac:	3101      	adds	r1, #1
100025ae:	1b12      	subs	r2, r2, r4
100025b0:	e7f7      	b.n	100025a2 <last0+0x4a>

100025b2 <y64_x48>:
100025b2:	b5f0      	push	{r4, r5, r6, r7, lr}
100025b4:	0c1c      	lsrs	r4, r3, #16
100025b6:	d000      	beq.n	100025ba <y64_x48+0x8>
100025b8:	e080      	b.n	100026bc <y64_x64>
100025ba:	b40c      	push	{r2, r3}
100025bc:	2500      	movs	r5, #0
100025be:	0a1c      	lsrs	r4, r3, #8
100025c0:	d104      	bne.n	100025cc <y64_x48+0x1a>
100025c2:	021b      	lsls	r3, r3, #8
100025c4:	0e16      	lsrs	r6, r2, #24
100025c6:	4333      	orrs	r3, r6
100025c8:	0212      	lsls	r2, r2, #8
100025ca:	3508      	adds	r5, #8
100025cc:	0b1c      	lsrs	r4, r3, #12
100025ce:	d104      	bne.n	100025da <y64_x48+0x28>
100025d0:	011b      	lsls	r3, r3, #4
100025d2:	0f16      	lsrs	r6, r2, #28
100025d4:	4333      	orrs	r3, r6
100025d6:	0112      	lsls	r2, r2, #4
100025d8:	3504      	adds	r5, #4
100025da:	0b9c      	lsrs	r4, r3, #14
100025dc:	d104      	bne.n	100025e8 <y64_x48+0x36>
100025de:	009b      	lsls	r3, r3, #2
100025e0:	0f96      	lsrs	r6, r2, #30
100025e2:	4333      	orrs	r3, r6
100025e4:	0092      	lsls	r2, r2, #2
100025e6:	3502      	adds	r5, #2
100025e8:	0bdc      	lsrs	r4, r3, #15
100025ea:	d102      	bne.n	100025f2 <y64_x48+0x40>
100025ec:	1892      	adds	r2, r2, r2
100025ee:	415b      	adcs	r3, r3
100025f0:	3501      	adds	r5, #1
100025f2:	001c      	movs	r4, r3
100025f4:	1897      	adds	r7, r2, r2
100025f6:	4164      	adcs	r4, r4
100025f8:	3401      	adds	r4, #1
100025fa:	4f46      	ldr	r7, [pc, #280]	; (10002714 <y64_x64+0x58>)
100025fc:	667c      	str	r4, [r7, #100]	; 0x64
100025fe:	4c46      	ldr	r4, [pc, #280]	; (10002718 <y64_x64+0x5c>)
10002600:	663c      	str	r4, [r7, #96]	; 0x60
10002602:	0c0e      	lsrs	r6, r1, #16
10002604:	e7ff      	b.n	10002606 <y64_x48+0x54>
10002606:	e7ff      	b.n	10002608 <y64_x48+0x56>
10002608:	e7ff      	b.n	1000260a <y64_x48+0x58>
1000260a:	46c0      	nop			; (mov r8, r8)
1000260c:	6f3c      	ldr	r4, [r7, #112]	; 0x70
1000260e:	4366      	muls	r6, r4
10002610:	0c36      	lsrs	r6, r6, #16
10002612:	0377      	lsls	r7, r6, #13
10002614:	46be      	mov	lr, r7
10002616:	b297      	uxth	r7, r2
10002618:	4377      	muls	r7, r6
1000261a:	1bc0      	subs	r0, r0, r7
1000261c:	d200      	bcs.n	10002620 <y64_x48+0x6e>
1000261e:	3901      	subs	r1, #1
10002620:	1bc0      	subs	r0, r0, r7
10002622:	d200      	bcs.n	10002626 <y64_x48+0x74>
10002624:	3901      	subs	r1, #1
10002626:	b29f      	uxth	r7, r3
10002628:	4377      	muls	r7, r6
1000262a:	1bc9      	subs	r1, r1, r7
1000262c:	1bc9      	subs	r1, r1, r7
1000262e:	0c17      	lsrs	r7, r2, #16
10002630:	4377      	muls	r7, r6
10002632:	047e      	lsls	r6, r7, #17
10002634:	0bff      	lsrs	r7, r7, #15
10002636:	1b80      	subs	r0, r0, r6
10002638:	41b9      	sbcs	r1, r7
1000263a:	08ce      	lsrs	r6, r1, #3
1000263c:	4366      	muls	r6, r4
1000263e:	0c36      	lsrs	r6, r6, #16
10002640:	2d0c      	cmp	r5, #12
10002642:	db33      	blt.n	100026ac <last1>
10002644:	44b6      	add	lr, r6
10002646:	0b12      	lsrs	r2, r2, #12
10002648:	051f      	lsls	r7, r3, #20
1000264a:	433a      	orrs	r2, r7
1000264c:	0b1b      	lsrs	r3, r3, #12
1000264e:	b297      	uxth	r7, r2
10002650:	4377      	muls	r7, r6
10002652:	1bc0      	subs	r0, r0, r7
10002654:	d200      	bcs.n	10002658 <y64_x48+0xa6>
10002656:	3901      	subs	r1, #1
10002658:	b29f      	uxth	r7, r3
1000265a:	4377      	muls	r7, r6
1000265c:	1bc9      	subs	r1, r1, r7
1000265e:	0c17      	lsrs	r7, r2, #16
10002660:	4377      	muls	r7, r6
10002662:	043e      	lsls	r6, r7, #16
10002664:	0c3f      	lsrs	r7, r7, #16
10002666:	1b80      	subs	r0, r0, r6
10002668:	41b9      	sbcs	r1, r7
1000266a:	0d86      	lsrs	r6, r0, #22
1000266c:	028f      	lsls	r7, r1, #10
1000266e:	433e      	orrs	r6, r7
10002670:	4366      	muls	r6, r4
10002672:	2729      	movs	r7, #41	; 0x29
10002674:	1b7f      	subs	r7, r7, r5
10002676:	40fe      	lsrs	r6, r7
10002678:	3d0c      	subs	r5, #12
1000267a:	4677      	mov	r7, lr
1000267c:	40af      	lsls	r7, r5
1000267e:	19bf      	adds	r7, r7, r6
10002680:	bc30      	pop	{r4, r5}
10002682:	b2a2      	uxth	r2, r4
10002684:	b2ab      	uxth	r3, r5
10002686:	4372      	muls	r2, r6
10002688:	4373      	muls	r3, r6
1000268a:	1a80      	subs	r0, r0, r2
1000268c:	4199      	sbcs	r1, r3
1000268e:	0c22      	lsrs	r2, r4, #16
10002690:	4372      	muls	r2, r6
10002692:	0c13      	lsrs	r3, r2, #16
10002694:	0412      	lsls	r2, r2, #16
10002696:	1a80      	subs	r0, r0, r2
10002698:	4199      	sbcs	r1, r3
1000269a:	0002      	movs	r2, r0
1000269c:	000b      	movs	r3, r1
1000269e:	3701      	adds	r7, #1
100026a0:	1b00      	subs	r0, r0, r4
100026a2:	41a9      	sbcs	r1, r5
100026a4:	d2f9      	bcs.n	1000269a <y64_x48+0xe8>
100026a6:	1e78      	subs	r0, r7, #1
100026a8:	2100      	movs	r1, #0
100026aa:	bdf0      	pop	{r4, r5, r6, r7, pc}

100026ac <last1>:
100026ac:	270c      	movs	r7, #12
100026ae:	1b7f      	subs	r7, r7, r5
100026b0:	40fe      	lsrs	r6, r7
100026b2:	4677      	mov	r7, lr
100026b4:	0b7f      	lsrs	r7, r7, #13
100026b6:	40af      	lsls	r7, r5
100026b8:	19ff      	adds	r7, r7, r7
100026ba:	e7e0      	b.n	1000267e <y64_x48+0xcc>

100026bc <y64_x64>:
100026bc:	2400      	movs	r4, #0
100026be:	1c5d      	adds	r5, r3, #1
100026c0:	d007      	beq.n	100026d2 <y64_x64+0x16>
100026c2:	4f14      	ldr	r7, [pc, #80]	; (10002714 <y64_x64+0x58>)
100026c4:	667d      	str	r5, [r7, #100]	; 0x64
100026c6:	6639      	str	r1, [r7, #96]	; 0x60
100026c8:	e7ff      	b.n	100026ca <y64_x64+0xe>
100026ca:	e7ff      	b.n	100026cc <y64_x64+0x10>
100026cc:	e7ff      	b.n	100026ce <y64_x64+0x12>
100026ce:	e7ff      	b.n	100026d0 <y64_x64+0x14>
100026d0:	6f3c      	ldr	r4, [r7, #112]	; 0x70
100026d2:	b295      	uxth	r5, r2
100026d4:	b29e      	uxth	r6, r3
100026d6:	4365      	muls	r5, r4
100026d8:	4366      	muls	r6, r4
100026da:	1b40      	subs	r0, r0, r5
100026dc:	41b1      	sbcs	r1, r6
100026de:	0c15      	lsrs	r5, r2, #16
100026e0:	0c1e      	lsrs	r6, r3, #16
100026e2:	4365      	muls	r5, r4
100026e4:	4366      	muls	r6, r4
100026e6:	0436      	lsls	r6, r6, #16
100026e8:	0c2f      	lsrs	r7, r5, #16
100026ea:	433e      	orrs	r6, r7
100026ec:	042d      	lsls	r5, r5, #16
100026ee:	1b40      	subs	r0, r0, r5
100026f0:	41b1      	sbcs	r1, r6
100026f2:	4299      	cmp	r1, r3
100026f4:	d204      	bcs.n	10002700 <y64_x64+0x44>
100026f6:	0002      	movs	r2, r0
100026f8:	000b      	movs	r3, r1
100026fa:	0020      	movs	r0, r4
100026fc:	2100      	movs	r1, #0
100026fe:	bdf0      	pop	{r4, r5, r6, r7, pc}
10002700:	d101      	bne.n	10002706 <y64_x64+0x4a>
10002702:	4290      	cmp	r0, r2
10002704:	d3f7      	bcc.n	100026f6 <y64_x64+0x3a>
10002706:	1a80      	subs	r0, r0, r2
10002708:	4199      	sbcs	r1, r3
1000270a:	3401      	adds	r4, #1
1000270c:	4299      	cmp	r1, r3
1000270e:	d3f2      	bcc.n	100026f6 <y64_x64+0x3a>
10002710:	e7f6      	b.n	10002700 <y64_x64+0x44>
10002712:	0000      	.short	0x0000
10002714:	d0000000 	.word	0xd0000000
10002718:	ffffffff 	.word	0xffffffff

1000271c <__aeabi_double_init>:
1000271c:	2313      	movs	r3, #19
1000271e:	b570      	push	{r4, r5, r6, lr}
10002720:	781d      	ldrb	r5, [r3, #0]
10002722:	2d01      	cmp	r5, #1
10002724:	d015      	beq.n	10002752 <__aeabi_double_init+0x36>
10002726:	dd10      	ble.n	1000274a <__aeabi_double_init+0x2e>
10002728:	4827      	ldr	r0, [pc, #156]	; (100027c8 <__aeabi_double_init+0xac>)
1000272a:	f7ff fd69 	bl	10002200 <rom_data_lookup>
1000272e:	4c27      	ldr	r4, [pc, #156]	; (100027cc <__aeabi_double_init+0xb0>)
10002730:	0001      	movs	r1, r0
10002732:	2280      	movs	r2, #128	; 0x80
10002734:	0020      	movs	r0, r4
10002736:	f000 f915 	bl	10002964 <__wrap___aeabi_memcpy>
1000273a:	2d02      	cmp	r5, #2
1000273c:	d006      	beq.n	1000274c <__aeabi_double_init+0x30>
1000273e:	4824      	ldr	r0, [pc, #144]	; (100027d0 <__aeabi_double_init+0xb4>)
10002740:	f7ff fd56 	bl	100021f0 <rom_func_lookup>
10002744:	4b23      	ldr	r3, [pc, #140]	; (100027d4 <__aeabi_double_init+0xb8>)
10002746:	6018      	str	r0, [r3, #0]
10002748:	bd70      	pop	{r4, r5, r6, pc}
1000274a:	4c20      	ldr	r4, [pc, #128]	; (100027cc <__aeabi_double_init+0xb0>)
1000274c:	4a22      	ldr	r2, [pc, #136]	; (100027d8 <__aeabi_double_init+0xbc>)
1000274e:	64a2      	str	r2, [r4, #72]	; 0x48
10002750:	e7f5      	b.n	1000273e <__aeabi_double_init+0x22>
10002752:	002e      	movs	r6, r5
10002754:	4c1d      	ldr	r4, [pc, #116]	; (100027cc <__aeabi_double_init+0xb0>)
10002756:	4a20      	ldr	r2, [pc, #128]	; (100027d8 <__aeabi_double_init+0xbc>)
10002758:	08a3      	lsrs	r3, r4, #2
1000275a:	425b      	negs	r3, r3
1000275c:	401e      	ands	r6, r3
1000275e:	421d      	tst	r5, r3
10002760:	d02f      	beq.n	100027c2 <__aeabi_double_init+0xa6>
10002762:	0033      	movs	r3, r6
10002764:	6022      	str	r2, [r4, #0]
10002766:	2020      	movs	r0, #32
10002768:	00b1      	lsls	r1, r6, #2
1000276a:	1861      	adds	r1, r4, r1
1000276c:	1b80      	subs	r0, r0, r6
1000276e:	600a      	str	r2, [r1, #0]
10002770:	604a      	str	r2, [r1, #4]
10002772:	608a      	str	r2, [r1, #8]
10002774:	60ca      	str	r2, [r1, #12]
10002776:	610a      	str	r2, [r1, #16]
10002778:	614a      	str	r2, [r1, #20]
1000277a:	618a      	str	r2, [r1, #24]
1000277c:	61ca      	str	r2, [r1, #28]
1000277e:	620a      	str	r2, [r1, #32]
10002780:	624a      	str	r2, [r1, #36]	; 0x24
10002782:	628a      	str	r2, [r1, #40]	; 0x28
10002784:	62ca      	str	r2, [r1, #44]	; 0x2c
10002786:	630a      	str	r2, [r1, #48]	; 0x30
10002788:	634a      	str	r2, [r1, #52]	; 0x34
1000278a:	638a      	str	r2, [r1, #56]	; 0x38
1000278c:	63ca      	str	r2, [r1, #60]	; 0x3c
1000278e:	640a      	str	r2, [r1, #64]	; 0x40
10002790:	644a      	str	r2, [r1, #68]	; 0x44
10002792:	648a      	str	r2, [r1, #72]	; 0x48
10002794:	64ca      	str	r2, [r1, #76]	; 0x4c
10002796:	650a      	str	r2, [r1, #80]	; 0x50
10002798:	654a      	str	r2, [r1, #84]	; 0x54
1000279a:	658a      	str	r2, [r1, #88]	; 0x58
1000279c:	65ca      	str	r2, [r1, #92]	; 0x5c
1000279e:	660a      	str	r2, [r1, #96]	; 0x60
100027a0:	664a      	str	r2, [r1, #100]	; 0x64
100027a2:	668a      	str	r2, [r1, #104]	; 0x68
100027a4:	66ca      	str	r2, [r1, #108]	; 0x6c
100027a6:	670a      	str	r2, [r1, #112]	; 0x70
100027a8:	674a      	str	r2, [r1, #116]	; 0x74
100027aa:	0840      	lsrs	r0, r0, #1
100027ac:	2810      	cmp	r0, #16
100027ae:	d103      	bne.n	100027b8 <__aeabi_double_init+0x9c>
100027b0:	678a      	str	r2, [r1, #120]	; 0x78
100027b2:	67ca      	str	r2, [r1, #124]	; 0x7c
100027b4:	64a2      	str	r2, [r4, #72]	; 0x48
100027b6:	e7c2      	b.n	1000273e <__aeabi_double_init+0x22>
100027b8:	331e      	adds	r3, #30
100027ba:	009b      	lsls	r3, r3, #2
100027bc:	50e2      	str	r2, [r4, r3]
100027be:	64a2      	str	r2, [r4, #72]	; 0x48
100027c0:	e7bd      	b.n	1000273e <__aeabi_double_init+0x22>
100027c2:	2300      	movs	r3, #0
100027c4:	e7cf      	b.n	10002766 <__aeabi_double_init+0x4a>
100027c6:	46c0      	nop			; (mov r8, r8)
100027c8:	00004453 	.word	0x00004453
100027cc:	20013d40 	.word	0x20013d40
100027d0:	0000334c 	.word	0x0000334c
100027d4:	200123f0 	.word	0x200123f0
100027d8:	100027dd 	.word	0x100027dd

100027dc <double_table_shim_on_use_helper>:
100027dc:	b507      	push	{r0, r1, r2, lr}
100027de:	4660      	mov	r0, ip
100027e0:	8801      	ldrh	r1, [r0, #0]
100027e2:	0a0a      	lsrs	r2, r1, #8
100027e4:	3002      	adds	r0, #2
100027e6:	2adf      	cmp	r2, #223	; 0xdf
100027e8:	d1fa      	bne.n	100027e0 <double_table_shim_on_use_helper+0x4>
100027ea:	b2c9      	uxtb	r1, r1
100027ec:	0882      	lsrs	r2, r0, #2
100027ee:	d304      	bcc.n	100027fa <double_table_shim_on_use_helper+0x1e>
100027f0:	8802      	ldrh	r2, [r0, #0]
100027f2:	8840      	ldrh	r0, [r0, #2]
100027f4:	0400      	lsls	r0, r0, #16
100027f6:	4310      	orrs	r0, r2
100027f8:	e000      	b.n	100027fc <double_table_shim_on_use_helper+0x20>
100027fa:	6800      	ldr	r0, [r0, #0]
100027fc:	4a01      	ldr	r2, [pc, #4]	; (10002804 <double_table_shim_on_use_helper+0x28>)
100027fe:	5050      	str	r0, [r2, r1]
10002800:	9003      	str	r0, [sp, #12]
10002802:	bd07      	pop	{r0, r1, r2, pc}
10002804:	20013d40 	.word	0x20013d40

10002808 <__wrap___aeabi_lmul>:
10002808:	4351      	muls	r1, r2
1000280a:	4343      	muls	r3, r0
1000280c:	18c9      	adds	r1, r1, r3
1000280e:	468c      	mov	ip, r1
10002810:	0c11      	lsrs	r1, r2, #16
10002812:	b283      	uxth	r3, r0
10002814:	434b      	muls	r3, r1
10002816:	b410      	push	{r4}
10002818:	0c04      	lsrs	r4, r0, #16
1000281a:	4361      	muls	r1, r4
1000281c:	b292      	uxth	r2, r2
1000281e:	b280      	uxth	r0, r0
10002820:	4350      	muls	r0, r2
10002822:	4362      	muls	r2, r4
10002824:	041c      	lsls	r4, r3, #16
10002826:	0c1b      	lsrs	r3, r3, #16
10002828:	1900      	adds	r0, r0, r4
1000282a:	bc10      	pop	{r4}
1000282c:	4159      	adcs	r1, r3
1000282e:	0413      	lsls	r3, r2, #16
10002830:	0c12      	lsrs	r2, r2, #16
10002832:	18c0      	adds	r0, r0, r3
10002834:	4151      	adcs	r1, r2
10002836:	4461      	add	r1, ip
10002838:	4770      	bx	lr
	...

1000283c <__aeabi_float_init>:
1000283c:	2313      	movs	r3, #19
1000283e:	b510      	push	{r4, lr}
10002840:	4812      	ldr	r0, [pc, #72]	; (1000288c <__aeabi_float_init+0x50>)
10002842:	781c      	ldrb	r4, [r3, #0]
10002844:	f7ff fcdc 	bl	10002200 <rom_data_lookup>
10002848:	0001      	movs	r1, r0
1000284a:	2c01      	cmp	r4, #1
1000284c:	d00a      	beq.n	10002864 <__aeabi_float_init+0x28>
1000284e:	dd03      	ble.n	10002858 <__aeabi_float_init+0x1c>
10002850:	2280      	movs	r2, #128	; 0x80
10002852:	480f      	ldr	r0, [pc, #60]	; (10002890 <__aeabi_float_init+0x54>)
10002854:	f000 f886 	bl	10002964 <__wrap___aeabi_memcpy>
10002858:	480e      	ldr	r0, [pc, #56]	; (10002894 <__aeabi_float_init+0x58>)
1000285a:	f7ff fcc9 	bl	100021f0 <rom_func_lookup>
1000285e:	4b0e      	ldr	r3, [pc, #56]	; (10002898 <__aeabi_float_init+0x5c>)
10002860:	6018      	str	r0, [r3, #0]
10002862:	bd10      	pop	{r4, pc}
10002864:	4c0a      	ldr	r4, [pc, #40]	; (10002890 <__aeabi_float_init+0x54>)
10002866:	2254      	movs	r2, #84	; 0x54
10002868:	0020      	movs	r0, r4
1000286a:	f000 f87b 	bl	10002964 <__wrap___aeabi_memcpy>
1000286e:	4b0b      	ldr	r3, [pc, #44]	; (1000289c <__aeabi_float_init+0x60>)
10002870:	6563      	str	r3, [r4, #84]	; 0x54
10002872:	65a3      	str	r3, [r4, #88]	; 0x58
10002874:	65e3      	str	r3, [r4, #92]	; 0x5c
10002876:	6623      	str	r3, [r4, #96]	; 0x60
10002878:	6663      	str	r3, [r4, #100]	; 0x64
1000287a:	66a3      	str	r3, [r4, #104]	; 0x68
1000287c:	66e3      	str	r3, [r4, #108]	; 0x6c
1000287e:	6723      	str	r3, [r4, #112]	; 0x70
10002880:	6763      	str	r3, [r4, #116]	; 0x74
10002882:	67a3      	str	r3, [r4, #120]	; 0x78
10002884:	67e3      	str	r3, [r4, #124]	; 0x7c
10002886:	6223      	str	r3, [r4, #32]
10002888:	61e3      	str	r3, [r4, #28]
1000288a:	e7e5      	b.n	10002858 <__aeabi_float_init+0x1c>
1000288c:	00004653 	.word	0x00004653
10002890:	20013e40 	.word	0x20013e40
10002894:	0000334c 	.word	0x0000334c
10002898:	200123f0 	.word	0x200123f0
1000289c:	100028a1 	.word	0x100028a1

100028a0 <float_table_shim_on_use_helper>:
100028a0:	b507      	push	{r0, r1, r2, lr}
100028a2:	4660      	mov	r0, ip
100028a4:	8801      	ldrh	r1, [r0, #0]
100028a6:	0a0a      	lsrs	r2, r1, #8
100028a8:	3002      	adds	r0, #2
100028aa:	2adf      	cmp	r2, #223	; 0xdf
100028ac:	d1fa      	bne.n	100028a4 <float_table_shim_on_use_helper+0x4>
100028ae:	b2c9      	uxtb	r1, r1
100028b0:	0882      	lsrs	r2, r0, #2
100028b2:	d304      	bcc.n	100028be <float_table_shim_on_use_helper+0x1e>
100028b4:	8802      	ldrh	r2, [r0, #0]
100028b6:	8840      	ldrh	r0, [r0, #2]
100028b8:	0400      	lsls	r0, r0, #16
100028ba:	4310      	orrs	r0, r2
100028bc:	e000      	b.n	100028c0 <float_table_shim_on_use_helper+0x20>
100028be:	6800      	ldr	r0, [r0, #0]
100028c0:	4a01      	ldr	r2, [pc, #4]	; (100028c8 <float_table_shim_on_use_helper+0x28>)
100028c2:	5050      	str	r0, [r2, r1]
100028c4:	9003      	str	r0, [sp, #12]
100028c6:	bd07      	pop	{r0, r1, r2, pc}
100028c8:	20013e40 	.word	0x20013e40

100028cc <__wrap_malloc>:
100028cc:	b570      	push	{r4, r5, r6, lr}
100028ce:	0004      	movs	r4, r0
100028d0:	4e0a      	ldr	r6, [pc, #40]	; (100028fc <__wrap_malloc+0x30>)
100028d2:	0030      	movs	r0, r6
100028d4:	f001 fcb4 	bl	10004240 <__mutex_enter_blocking_veneer>
100028d8:	0020      	movs	r0, r4
100028da:	f001 f817 	bl	1000390c <malloc>
100028de:	0005      	movs	r5, r0
100028e0:	0030      	movs	r0, r6
100028e2:	f001 fc7d 	bl	100041e0 <__mutex_exit_veneer>
100028e6:	2d00      	cmp	r5, #0
100028e8:	d005      	beq.n	100028f6 <__wrap_malloc+0x2a>
100028ea:	4b05      	ldr	r3, [pc, #20]	; (10002900 <__wrap_malloc+0x34>)
100028ec:	192c      	adds	r4, r5, r4
100028ee:	429c      	cmp	r4, r3
100028f0:	d801      	bhi.n	100028f6 <__wrap_malloc+0x2a>
100028f2:	0028      	movs	r0, r5
100028f4:	bd70      	pop	{r4, r5, r6, pc}
100028f6:	4803      	ldr	r0, [pc, #12]	; (10002904 <__wrap_malloc+0x38>)
100028f8:	f7ff f9c2 	bl	10001c80 <panic>
100028fc:	200121d0 	.word	0x200121d0
10002900:	20040000 	.word	0x20040000
10002904:	10004314 	.word	0x10004314

10002908 <__wrap_calloc>:
10002908:	b570      	push	{r4, r5, r6, lr}
1000290a:	0005      	movs	r5, r0
1000290c:	000c      	movs	r4, r1
1000290e:	4e0b      	ldr	r6, [pc, #44]	; (1000293c <__wrap_calloc+0x34>)
10002910:	0030      	movs	r0, r6
10002912:	f001 fc95 	bl	10004240 <__mutex_enter_blocking_veneer>
10002916:	0028      	movs	r0, r5
10002918:	0021      	movs	r1, r4
1000291a:	f000 ffbd 	bl	10003898 <calloc>
1000291e:	0005      	movs	r5, r0
10002920:	0030      	movs	r0, r6
10002922:	f001 fc5d 	bl	100041e0 <__mutex_exit_veneer>
10002926:	2d00      	cmp	r5, #0
10002928:	d005      	beq.n	10002936 <__wrap_calloc+0x2e>
1000292a:	4b05      	ldr	r3, [pc, #20]	; (10002940 <__wrap_calloc+0x38>)
1000292c:	192c      	adds	r4, r5, r4
1000292e:	429c      	cmp	r4, r3
10002930:	d801      	bhi.n	10002936 <__wrap_calloc+0x2e>
10002932:	0028      	movs	r0, r5
10002934:	bd70      	pop	{r4, r5, r6, pc}
10002936:	4803      	ldr	r0, [pc, #12]	; (10002944 <__wrap_calloc+0x3c>)
10002938:	f7ff f9a2 	bl	10001c80 <panic>
1000293c:	200121d0 	.word	0x200121d0
10002940:	20040000 	.word	0x20040000
10002944:	10004314 	.word	0x10004314

10002948 <__aeabi_mem_init>:
10002948:	4801      	ldr	r0, [pc, #4]	; (10002950 <__aeabi_mem_init+0x8>)
1000294a:	2104      	movs	r1, #4
1000294c:	4b01      	ldr	r3, [pc, #4]	; (10002954 <__aeabi_mem_init+0xc>)
1000294e:	4718      	bx	r3
10002950:	20011970 	.word	0x20011970
10002954:	10002211 	.word	0x10002211

10002958 <__wrap_memset>:
10002958:	4b01      	ldr	r3, [pc, #4]	; (10002960 <__wrap_memset+0x8>)
1000295a:	681b      	ldr	r3, [r3, #0]
1000295c:	4718      	bx	r3
1000295e:	0000      	.short	0x0000
10002960:	20011970 	.word	0x20011970

10002964 <__wrap___aeabi_memcpy>:
10002964:	4b01      	ldr	r3, [pc, #4]	; (1000296c <__wrap___aeabi_memcpy+0x8>)
10002966:	685b      	ldr	r3, [r3, #4]
10002968:	4718      	bx	r3
1000296a:	0000      	.short	0x0000
1000296c:	20011970 	.word	0x20011970

10002970 <stdio_out_chars_no_crlf>:
10002970:	0003      	movs	r3, r0
10002972:	b510      	push	{r4, lr}
10002974:	0008      	movs	r0, r1
10002976:	681b      	ldr	r3, [r3, #0]
10002978:	0011      	movs	r1, r2
1000297a:	4798      	blx	r3
1000297c:	bd10      	pop	{r4, pc}
1000297e:	46c0      	nop			; (mov r8, r8)

10002980 <stdio_out_chars_crlf>:
10002980:	b5f8      	push	{r3, r4, r5, r6, r7, lr}
10002982:	4647      	mov	r7, r8
10002984:	46ce      	mov	lr, r9
10002986:	b580      	push	{r7, lr}
10002988:	7c43      	ldrb	r3, [r0, #17]
1000298a:	0007      	movs	r7, r0
1000298c:	000d      	movs	r5, r1
1000298e:	0016      	movs	r6, r2
10002990:	2b00      	cmp	r3, #0
10002992:	d037      	beq.n	10002a04 <stdio_out_chars_crlf+0x84>
10002994:	2400      	movs	r4, #0
10002996:	2000      	movs	r0, #0
10002998:	2a00      	cmp	r2, #0
1000299a:	dd1e      	ble.n	100029da <stdio_out_chars_crlf+0x5a>
1000299c:	1e4b      	subs	r3, r1, #1
1000299e:	4698      	mov	r8, r3
100029a0:	4b1b      	ldr	r3, [pc, #108]	; (10002a10 <stdio_out_chars_crlf+0x90>)
100029a2:	4699      	mov	r9, r3
100029a4:	2c00      	cmp	r4, #0
100029a6:	d02b      	beq.n	10002a00 <stdio_out_chars_crlf+0x80>
100029a8:	4643      	mov	r3, r8
100029aa:	5d1b      	ldrb	r3, [r3, r4]
100029ac:	3b0d      	subs	r3, #13
100029ae:	425a      	negs	r2, r3
100029b0:	4153      	adcs	r3, r2
100029b2:	b2db      	uxtb	r3, r3
100029b4:	5d2a      	ldrb	r2, [r5, r4]
100029b6:	2a0a      	cmp	r2, #10
100029b8:	d013      	beq.n	100029e2 <stdio_out_chars_crlf+0x62>
100029ba:	3401      	adds	r4, #1
100029bc:	42a6      	cmp	r6, r4
100029be:	dcf1      	bgt.n	100029a4 <stdio_out_chars_crlf+0x24>
100029c0:	4286      	cmp	r6, r0
100029c2:	dd03      	ble.n	100029cc <stdio_out_chars_crlf+0x4c>
100029c4:	1a31      	subs	r1, r6, r0
100029c6:	683b      	ldr	r3, [r7, #0]
100029c8:	1828      	adds	r0, r5, r0
100029ca:	4798      	blx	r3
100029cc:	19ad      	adds	r5, r5, r6
100029ce:	3d01      	subs	r5, #1
100029d0:	782b      	ldrb	r3, [r5, #0]
100029d2:	3b0d      	subs	r3, #13
100029d4:	425a      	negs	r2, r3
100029d6:	4153      	adcs	r3, r2
100029d8:	743b      	strb	r3, [r7, #16]
100029da:	bc0c      	pop	{r2, r3}
100029dc:	4690      	mov	r8, r2
100029de:	4699      	mov	r9, r3
100029e0:	bdf8      	pop	{r3, r4, r5, r6, r7, pc}
100029e2:	2b00      	cmp	r3, #0
100029e4:	d1e9      	bne.n	100029ba <stdio_out_chars_crlf+0x3a>
100029e6:	42a0      	cmp	r0, r4
100029e8:	da03      	bge.n	100029f2 <stdio_out_chars_crlf+0x72>
100029ea:	1a21      	subs	r1, r4, r0
100029ec:	683b      	ldr	r3, [r7, #0]
100029ee:	1828      	adds	r0, r5, r0
100029f0:	4798      	blx	r3
100029f2:	4648      	mov	r0, r9
100029f4:	2102      	movs	r1, #2
100029f6:	683b      	ldr	r3, [r7, #0]
100029f8:	3401      	adds	r4, #1
100029fa:	4798      	blx	r3
100029fc:	0020      	movs	r0, r4
100029fe:	e7dd      	b.n	100029bc <stdio_out_chars_crlf+0x3c>
10002a00:	7c3b      	ldrb	r3, [r7, #16]
10002a02:	e7d7      	b.n	100029b4 <stdio_out_chars_crlf+0x34>
10002a04:	6803      	ldr	r3, [r0, #0]
10002a06:	0011      	movs	r1, r2
10002a08:	0028      	movs	r0, r5
10002a0a:	4798      	blx	r3
10002a0c:	e7e5      	b.n	100029da <stdio_out_chars_crlf+0x5a>
10002a0e:	46c0      	nop			; (mov r8, r8)
10002a10:	1000438c 	.word	0x1000438c

10002a14 <stdio_put_string>:
10002a14:	b5f0      	push	{r4, r5, r6, r7, lr}
10002a16:	4657      	mov	r7, sl
10002a18:	464e      	mov	r6, r9
10002a1a:	4645      	mov	r5, r8
10002a1c:	46de      	mov	lr, fp
10002a1e:	001c      	movs	r4, r3
10002a20:	23d0      	movs	r3, #208	; 0xd0
10002a22:	b5e0      	push	{r5, r6, r7, lr}
10002a24:	061b      	lsls	r3, r3, #24
10002a26:	681f      	ldr	r7, [r3, #0]
10002a28:	4b35      	ldr	r3, [pc, #212]	; (10002b00 <stdio_put_string+0xec>)
10002a2a:	b083      	sub	sp, #12
10002a2c:	0006      	movs	r6, r0
10002a2e:	000d      	movs	r5, r1
10002a30:	0018      	movs	r0, r3
10002a32:	a901      	add	r1, sp, #4
10002a34:	4691      	mov	r9, r2
10002a36:	469a      	mov	sl, r3
10002a38:	f001 fbf2 	bl	10004220 <__mutex_try_enter_veneer>
10002a3c:	4680      	mov	r8, r0
10002a3e:	2800      	cmp	r0, #0
10002a40:	d108      	bne.n	10002a54 <stdio_put_string+0x40>
10002a42:	9b01      	ldr	r3, [sp, #4]
10002a44:	b27f      	sxtb	r7, r7
10002a46:	429f      	cmp	r7, r3
10002a48:	d004      	beq.n	10002a54 <stdio_put_string+0x40>
10002a4a:	4650      	mov	r0, sl
10002a4c:	f001 fbf8 	bl	10004240 <__mutex_enter_blocking_veneer>
10002a50:	2301      	movs	r3, #1
10002a52:	4698      	mov	r8, r3
10002a54:	1c6b      	adds	r3, r5, #1
10002a56:	d103      	bne.n	10002a60 <stdio_put_string+0x4c>
10002a58:	0030      	movs	r0, r6
10002a5a:	f001 fa5d 	bl	10003f18 <strlen>
10002a5e:	0005      	movs	r5, r0
10002a60:	2c00      	cmp	r4, #0
10002a62:	d12a      	bne.n	10002aba <stdio_put_string+0xa6>
10002a64:	4f27      	ldr	r7, [pc, #156]	; (10002b04 <stdio_put_string+0xf0>)
10002a66:	4b28      	ldr	r3, [pc, #160]	; (10002b08 <stdio_put_string+0xf4>)
10002a68:	681c      	ldr	r4, [r3, #0]
10002a6a:	2c00      	cmp	r4, #0
10002a6c:	d018      	beq.n	10002aa0 <stdio_put_string+0x8c>
10002a6e:	464b      	mov	r3, r9
10002a70:	2b00      	cmp	r3, #0
10002a72:	d124      	bne.n	10002abe <stdio_put_string+0xaa>
10002a74:	4b25      	ldr	r3, [pc, #148]	; (10002b0c <stdio_put_string+0xf8>)
10002a76:	4699      	mov	r9, r3
10002a78:	e002      	b.n	10002a80 <stdio_put_string+0x6c>
10002a7a:	68e4      	ldr	r4, [r4, #12]
10002a7c:	2c00      	cmp	r4, #0
10002a7e:	d00f      	beq.n	10002aa0 <stdio_put_string+0x8c>
10002a80:	6823      	ldr	r3, [r4, #0]
10002a82:	2b00      	cmp	r3, #0
10002a84:	d0f9      	beq.n	10002a7a <stdio_put_string+0x66>
10002a86:	464b      	mov	r3, r9
10002a88:	681b      	ldr	r3, [r3, #0]
10002a8a:	2b00      	cmp	r3, #0
10002a8c:	d001      	beq.n	10002a92 <stdio_put_string+0x7e>
10002a8e:	42a3      	cmp	r3, r4
10002a90:	d1f3      	bne.n	10002a7a <stdio_put_string+0x66>
10002a92:	0020      	movs	r0, r4
10002a94:	002a      	movs	r2, r5
10002a96:	0031      	movs	r1, r6
10002a98:	47b8      	blx	r7
10002a9a:	68e4      	ldr	r4, [r4, #12]
10002a9c:	2c00      	cmp	r4, #0
10002a9e:	d1ef      	bne.n	10002a80 <stdio_put_string+0x6c>
10002aa0:	4643      	mov	r3, r8
10002aa2:	2b00      	cmp	r3, #0
10002aa4:	d128      	bne.n	10002af8 <stdio_put_string+0xe4>
10002aa6:	1e68      	subs	r0, r5, #1
10002aa8:	4185      	sbcs	r5, r0
10002aaa:	b2e8      	uxtb	r0, r5
10002aac:	b003      	add	sp, #12
10002aae:	bc3c      	pop	{r2, r3, r4, r5}
10002ab0:	4690      	mov	r8, r2
10002ab2:	4699      	mov	r9, r3
10002ab4:	46a2      	mov	sl, r4
10002ab6:	46ab      	mov	fp, r5
10002ab8:	bdf0      	pop	{r4, r5, r6, r7, pc}
10002aba:	4f15      	ldr	r7, [pc, #84]	; (10002b10 <stdio_put_string+0xfc>)
10002abc:	e7d3      	b.n	10002a66 <stdio_put_string+0x52>
10002abe:	4b13      	ldr	r3, [pc, #76]	; (10002b0c <stdio_put_string+0xf8>)
10002ac0:	4699      	mov	r9, r3
10002ac2:	230a      	movs	r3, #10
10002ac4:	469b      	mov	fp, r3
10002ac6:	e002      	b.n	10002ace <stdio_put_string+0xba>
10002ac8:	68e4      	ldr	r4, [r4, #12]
10002aca:	2c00      	cmp	r4, #0
10002acc:	d0e8      	beq.n	10002aa0 <stdio_put_string+0x8c>
10002ace:	6823      	ldr	r3, [r4, #0]
10002ad0:	2b00      	cmp	r3, #0
10002ad2:	d0f9      	beq.n	10002ac8 <stdio_put_string+0xb4>
10002ad4:	464b      	mov	r3, r9
10002ad6:	681b      	ldr	r3, [r3, #0]
10002ad8:	2b00      	cmp	r3, #0
10002ada:	d001      	beq.n	10002ae0 <stdio_put_string+0xcc>
10002adc:	42a3      	cmp	r3, r4
10002ade:	d1f3      	bne.n	10002ac8 <stdio_put_string+0xb4>
10002ae0:	002a      	movs	r2, r5
10002ae2:	0031      	movs	r1, r6
10002ae4:	0020      	movs	r0, r4
10002ae6:	47b8      	blx	r7
10002ae8:	465a      	mov	r2, fp
10002aea:	466b      	mov	r3, sp
10002aec:	0020      	movs	r0, r4
10002aee:	711a      	strb	r2, [r3, #4]
10002af0:	a901      	add	r1, sp, #4
10002af2:	2201      	movs	r2, #1
10002af4:	47b8      	blx	r7
10002af6:	e7e7      	b.n	10002ac8 <stdio_put_string+0xb4>
10002af8:	4650      	mov	r0, sl
10002afa:	f001 fb71 	bl	100041e0 <__mutex_exit_veneer>
10002afe:	e7d2      	b.n	10002aa6 <stdio_put_string+0x92>
10002b00:	200121d8 	.word	0x200121d8
10002b04:	10002981 	.word	0x10002981
10002b08:	200123d0 	.word	0x200123d0
10002b0c:	200123d4 	.word	0x200123d4
10002b10:	10002971 	.word	0x10002971

10002b14 <__wrap_putchar>:
10002b14:	b5f0      	push	{r4, r5, r6, r7, lr}
10002b16:	4647      	mov	r7, r8
10002b18:	46ce      	mov	lr, r9
10002b1a:	b580      	push	{r7, lr}
10002b1c:	b083      	sub	sp, #12
10002b1e:	466b      	mov	r3, sp
10002b20:	1cdf      	adds	r7, r3, #3
10002b22:	23d0      	movs	r3, #208	; 0xd0
10002b24:	7038      	strb	r0, [r7, #0]
10002b26:	061b      	lsls	r3, r3, #24
10002b28:	681c      	ldr	r4, [r3, #0]
10002b2a:	4b20      	ldr	r3, [pc, #128]	; (10002bac <__wrap_putchar+0x98>)
10002b2c:	0006      	movs	r6, r0
10002b2e:	a901      	add	r1, sp, #4
10002b30:	0018      	movs	r0, r3
10002b32:	4698      	mov	r8, r3
10002b34:	f001 fb74 	bl	10004220 <__mutex_try_enter_veneer>
10002b38:	1e05      	subs	r5, r0, #0
10002b3a:	d022      	beq.n	10002b82 <__wrap_putchar+0x6e>
10002b3c:	4b1c      	ldr	r3, [pc, #112]	; (10002bb0 <__wrap_putchar+0x9c>)
10002b3e:	681c      	ldr	r4, [r3, #0]
10002b40:	2c00      	cmp	r4, #0
10002b42:	d02a      	beq.n	10002b9a <__wrap_putchar+0x86>
10002b44:	4b1b      	ldr	r3, [pc, #108]	; (10002bb4 <__wrap_putchar+0xa0>)
10002b46:	4699      	mov	r9, r3
10002b48:	e002      	b.n	10002b50 <__wrap_putchar+0x3c>
10002b4a:	68e4      	ldr	r4, [r4, #12]
10002b4c:	2c00      	cmp	r4, #0
10002b4e:	d010      	beq.n	10002b72 <__wrap_putchar+0x5e>
10002b50:	6823      	ldr	r3, [r4, #0]
10002b52:	2b00      	cmp	r3, #0
10002b54:	d0f9      	beq.n	10002b4a <__wrap_putchar+0x36>
10002b56:	464b      	mov	r3, r9
10002b58:	681b      	ldr	r3, [r3, #0]
10002b5a:	2b00      	cmp	r3, #0
10002b5c:	d001      	beq.n	10002b62 <__wrap_putchar+0x4e>
10002b5e:	42a3      	cmp	r3, r4
10002b60:	d1f3      	bne.n	10002b4a <__wrap_putchar+0x36>
10002b62:	0020      	movs	r0, r4
10002b64:	2201      	movs	r2, #1
10002b66:	0039      	movs	r1, r7
10002b68:	f7ff ff0a 	bl	10002980 <stdio_out_chars_crlf>
10002b6c:	68e4      	ldr	r4, [r4, #12]
10002b6e:	2c00      	cmp	r4, #0
10002b70:	d1ee      	bne.n	10002b50 <__wrap_putchar+0x3c>
10002b72:	2d00      	cmp	r5, #0
10002b74:	d111      	bne.n	10002b9a <__wrap_putchar+0x86>
10002b76:	0030      	movs	r0, r6
10002b78:	b003      	add	sp, #12
10002b7a:	bc0c      	pop	{r2, r3}
10002b7c:	4690      	mov	r8, r2
10002b7e:	4699      	mov	r9, r3
10002b80:	bdf0      	pop	{r4, r5, r6, r7, pc}
10002b82:	9b01      	ldr	r3, [sp, #4]
10002b84:	b264      	sxtb	r4, r4
10002b86:	429c      	cmp	r4, r3
10002b88:	d00b      	beq.n	10002ba2 <__wrap_putchar+0x8e>
10002b8a:	4640      	mov	r0, r8
10002b8c:	f001 fb58 	bl	10004240 <__mutex_enter_blocking_veneer>
10002b90:	4b07      	ldr	r3, [pc, #28]	; (10002bb0 <__wrap_putchar+0x9c>)
10002b92:	2501      	movs	r5, #1
10002b94:	681c      	ldr	r4, [r3, #0]
10002b96:	2c00      	cmp	r4, #0
10002b98:	d1d4      	bne.n	10002b44 <__wrap_putchar+0x30>
10002b9a:	4640      	mov	r0, r8
10002b9c:	f001 fb20 	bl	100041e0 <__mutex_exit_veneer>
10002ba0:	e7e9      	b.n	10002b76 <__wrap_putchar+0x62>
10002ba2:	4b03      	ldr	r3, [pc, #12]	; (10002bb0 <__wrap_putchar+0x9c>)
10002ba4:	681c      	ldr	r4, [r3, #0]
10002ba6:	2c00      	cmp	r4, #0
10002ba8:	d1cc      	bne.n	10002b44 <__wrap_putchar+0x30>
10002baa:	e7e4      	b.n	10002b76 <__wrap_putchar+0x62>
10002bac:	200121d8 	.word	0x200121d8
10002bb0:	200123d0 	.word	0x200123d0
10002bb4:	200123d4 	.word	0x200123d4

10002bb8 <__wrap_puts>:
10002bb8:	b570      	push	{r4, r5, r6, lr}
10002bba:	0004      	movs	r4, r0
10002bbc:	f001 f9ac 	bl	10003f18 <strlen>
10002bc0:	2300      	movs	r3, #0
10002bc2:	0001      	movs	r1, r0
10002bc4:	0005      	movs	r5, r0
10002bc6:	2201      	movs	r2, #1
10002bc8:	0020      	movs	r0, r4
10002bca:	f7ff ff23 	bl	10002a14 <stdio_put_string>
10002bce:	4b08      	ldr	r3, [pc, #32]	; (10002bf0 <__wrap_puts+0x38>)
10002bd0:	681c      	ldr	r4, [r3, #0]
10002bd2:	2c00      	cmp	r4, #0
10002bd4:	d006      	beq.n	10002be4 <__wrap_puts+0x2c>
10002bd6:	6863      	ldr	r3, [r4, #4]
10002bd8:	2b00      	cmp	r3, #0
10002bda:	d005      	beq.n	10002be8 <__wrap_puts+0x30>
10002bdc:	4798      	blx	r3
10002bde:	68e4      	ldr	r4, [r4, #12]
10002be0:	2c00      	cmp	r4, #0
10002be2:	d1f8      	bne.n	10002bd6 <__wrap_puts+0x1e>
10002be4:	0028      	movs	r0, r5
10002be6:	bd70      	pop	{r4, r5, r6, pc}
10002be8:	68e4      	ldr	r4, [r4, #12]
10002bea:	2c00      	cmp	r4, #0
10002bec:	d1f3      	bne.n	10002bd6 <__wrap_puts+0x1e>
10002bee:	e7f9      	b.n	10002be4 <__wrap_puts+0x2c>
10002bf0:	200123d0 	.word	0x200123d0

10002bf4 <stdio_set_driver_enabled>:
10002bf4:	4a0a      	ldr	r2, [pc, #40]	; (10002c20 <stdio_set_driver_enabled+0x2c>)
10002bf6:	6813      	ldr	r3, [r2, #0]
10002bf8:	2b00      	cmp	r3, #0
10002bfa:	d105      	bne.n	10002c08 <stdio_set_driver_enabled+0x14>
10002bfc:	e00c      	b.n	10002c18 <stdio_set_driver_enabled+0x24>
10002bfe:	001a      	movs	r2, r3
10002c00:	68db      	ldr	r3, [r3, #12]
10002c02:	320c      	adds	r2, #12
10002c04:	2b00      	cmp	r3, #0
10002c06:	d007      	beq.n	10002c18 <stdio_set_driver_enabled+0x24>
10002c08:	4298      	cmp	r0, r3
10002c0a:	d1f8      	bne.n	10002bfe <stdio_set_driver_enabled+0xa>
10002c0c:	2900      	cmp	r1, #0
10002c0e:	d102      	bne.n	10002c16 <stdio_set_driver_enabled+0x22>
10002c10:	68c3      	ldr	r3, [r0, #12]
10002c12:	6013      	str	r3, [r2, #0]
10002c14:	60c1      	str	r1, [r0, #12]
10002c16:	4770      	bx	lr
10002c18:	2900      	cmp	r1, #0
10002c1a:	d0fc      	beq.n	10002c16 <stdio_set_driver_enabled+0x22>
10002c1c:	6010      	str	r0, [r2, #0]
10002c1e:	e7fa      	b.n	10002c16 <stdio_set_driver_enabled+0x22>
10002c20:	200123d0 	.word	0x200123d0

10002c24 <stdio_uart_out_chars>:
10002c24:	b5f0      	push	{r4, r5, r6, r7, lr}
10002c26:	1e0d      	subs	r5, r1, #0
10002c28:	dd15      	ble.n	10002c56 <stdio_uart_out_chars+0x32>
10002c2a:	4b0e      	ldr	r3, [pc, #56]	; (10002c64 <stdio_uart_out_chars+0x40>)
10002c2c:	270d      	movs	r7, #13
10002c2e:	681a      	ldr	r2, [r3, #0]
10002c30:	4b0d      	ldr	r3, [pc, #52]	; (10002c68 <stdio_uart_out_chars+0x44>)
10002c32:	1945      	adds	r5, r0, r5
10002c34:	18d3      	adds	r3, r2, r3
10002c36:	4259      	negs	r1, r3
10002c38:	414b      	adcs	r3, r1
10002c3a:	490c      	ldr	r1, [pc, #48]	; (10002c6c <stdio_uart_out_chars+0x48>)
10002c3c:	005b      	lsls	r3, r3, #1
10002c3e:	5e5e      	ldrsh	r6, [r3, r1]
10002c40:	2120      	movs	r1, #32
10002c42:	7804      	ldrb	r4, [r0, #0]
10002c44:	42a6      	cmp	r6, r4
10002c46:	d007      	beq.n	10002c58 <stdio_uart_out_chars+0x34>
10002c48:	6993      	ldr	r3, [r2, #24]
10002c4a:	4219      	tst	r1, r3
10002c4c:	d1fc      	bne.n	10002c48 <stdio_uart_out_chars+0x24>
10002c4e:	3001      	adds	r0, #1
10002c50:	6014      	str	r4, [r2, #0]
10002c52:	42a8      	cmp	r0, r5
10002c54:	d1f5      	bne.n	10002c42 <stdio_uart_out_chars+0x1e>
10002c56:	bdf0      	pop	{r4, r5, r6, r7, pc}
10002c58:	6993      	ldr	r3, [r2, #24]
10002c5a:	4219      	tst	r1, r3
10002c5c:	d1fc      	bne.n	10002c58 <stdio_uart_out_chars+0x34>
10002c5e:	6017      	str	r7, [r2, #0]
10002c60:	e7f2      	b.n	10002c48 <stdio_uart_out_chars+0x24>
10002c62:	46c0      	nop			; (mov r8, r8)
10002c64:	20012408 	.word	0x20012408
10002c68:	bffc8000 	.word	0xbffc8000
10002c6c:	20013d3c 	.word	0x20013d3c

10002c70 <stdio_uart_in_chars>:
10002c70:	b530      	push	{r4, r5, lr}
10002c72:	0005      	movs	r5, r0
10002c74:	2900      	cmp	r1, #0
10002c76:	dd12      	ble.n	10002c9e <stdio_uart_in_chars+0x2e>
10002c78:	2000      	movs	r0, #0
10002c7a:	2410      	movs	r4, #16
10002c7c:	4b09      	ldr	r3, [pc, #36]	; (10002ca4 <stdio_uart_in_chars+0x34>)
10002c7e:	3d01      	subs	r5, #1
10002c80:	681a      	ldr	r2, [r3, #0]
10002c82:	6993      	ldr	r3, [r2, #24]
10002c84:	421c      	tst	r4, r3
10002c86:	d108      	bne.n	10002c9a <stdio_uart_in_chars+0x2a>
10002c88:	3001      	adds	r0, #1
10002c8a:	6993      	ldr	r3, [r2, #24]
10002c8c:	421c      	tst	r4, r3
10002c8e:	d1fc      	bne.n	10002c8a <stdio_uart_in_chars+0x1a>
10002c90:	6813      	ldr	r3, [r2, #0]
10002c92:	542b      	strb	r3, [r5, r0]
10002c94:	4281      	cmp	r1, r0
10002c96:	d1f4      	bne.n	10002c82 <stdio_uart_in_chars+0x12>
10002c98:	bd30      	pop	{r4, r5, pc}
10002c9a:	2800      	cmp	r0, #0
10002c9c:	d1fc      	bne.n	10002c98 <stdio_uart_in_chars+0x28>
10002c9e:	2003      	movs	r0, #3
10002ca0:	4240      	negs	r0, r0
10002ca2:	e7f9      	b.n	10002c98 <stdio_uart_in_chars+0x28>
10002ca4:	20012408 	.word	0x20012408

10002ca8 <stdio_uart_init>:
10002ca8:	21e1      	movs	r1, #225	; 0xe1
10002caa:	b510      	push	{r4, lr}
10002cac:	4b0b      	ldr	r3, [pc, #44]	; (10002cdc <stdio_uart_init+0x34>)
10002cae:	480c      	ldr	r0, [pc, #48]	; (10002ce0 <stdio_uart_init+0x38>)
10002cb0:	781b      	ldrb	r3, [r3, #0]
10002cb2:	4b0c      	ldr	r3, [pc, #48]	; (10002ce4 <stdio_uart_init+0x3c>)
10002cb4:	0249      	lsls	r1, r1, #9
10002cb6:	781b      	ldrb	r3, [r3, #0]
10002cb8:	4b0b      	ldr	r3, [pc, #44]	; (10002ce8 <stdio_uart_init+0x40>)
10002cba:	6018      	str	r0, [r3, #0]
10002cbc:	f7fe feda 	bl	10001a74 <uart_init>
10002cc0:	2102      	movs	r1, #2
10002cc2:	2000      	movs	r0, #0
10002cc4:	f7fd fd84 	bl	100007d0 <gpio_set_function>
10002cc8:	2102      	movs	r1, #2
10002cca:	2001      	movs	r0, #1
10002ccc:	f7fd fd80 	bl	100007d0 <gpio_set_function>
10002cd0:	2101      	movs	r1, #1
10002cd2:	4806      	ldr	r0, [pc, #24]	; (10002cec <stdio_uart_init+0x44>)
10002cd4:	f7ff ff8e 	bl	10002bf4 <stdio_set_driver_enabled>
10002cd8:	bd10      	pop	{r4, pc}
10002cda:	46c0      	nop			; (mov r8, r8)
10002cdc:	100044ac 	.word	0x100044ac
10002ce0:	40034000 	.word	0x40034000
10002ce4:	100044b0 	.word	0x100044b0
10002ce8:	20012408 	.word	0x20012408
10002cec:	20011980 	.word	0x20011980

10002cf0 <core1_trampoline>:
10002cf0:	bd03      	pop	{r0, r1, pc}
10002cf2:	46c0      	nop			; (mov r8, r8)

10002cf4 <core1_wrapper>:
10002cf4:	b510      	push	{r4, lr}
10002cf6:	0004      	movs	r4, r0
10002cf8:	f7fd ffe2 	bl	10000cc0 <irq_init_priorities>
10002cfc:	47a0      	blx	r4
10002cfe:	bd10      	pop	{r4, pc}

10002d00 <multicore_launch_core1_raw>:
10002d00:	b5f0      	push	{r4, r5, r6, r7, lr}
10002d02:	0004      	movs	r4, r0
10002d04:	b087      	sub	sp, #28
10002d06:	200f      	movs	r0, #15
10002d08:	000d      	movs	r5, r1
10002d0a:	0017      	movs	r7, r2
10002d0c:	f7fd fe64 	bl	100009d8 <irq_is_enabled>
10002d10:	2100      	movs	r1, #0
10002d12:	0006      	movs	r6, r0
10002d14:	200f      	movs	r0, #15
10002d16:	f7fd fe4d 	bl	100009b4 <irq_set_enabled>
10002d1a:	2300      	movs	r3, #0
10002d1c:	2200      	movs	r2, #0
10002d1e:	9200      	str	r2, [sp, #0]
10002d20:	9301      	str	r3, [sp, #4]
10002d22:	2301      	movs	r3, #1
10002d24:	9302      	str	r3, [sp, #8]
10002d26:	23d0      	movs	r3, #208	; 0xd0
10002d28:	9504      	str	r5, [sp, #16]
10002d2a:	9405      	str	r4, [sp, #20]
10002d2c:	2500      	movs	r5, #0
10002d2e:	2000      	movs	r0, #0
10002d30:	2101      	movs	r1, #1
10002d32:	2402      	movs	r4, #2
10002d34:	9703      	str	r7, [sp, #12]
10002d36:	061b      	lsls	r3, r3, #24
10002d38:	2d00      	cmp	r5, #0
10002d3a:	d014      	beq.n	10002d66 <multicore_launch_core1_raw+0x66>
10002d3c:	6d1a      	ldr	r2, [r3, #80]	; 0x50
10002d3e:	4214      	tst	r4, r2
10002d40:	d0fc      	beq.n	10002d3c <multicore_launch_core1_raw+0x3c>
10002d42:	655d      	str	r5, [r3, #84]	; 0x54
10002d44:	bf40      	sev
10002d46:	6d1a      	ldr	r2, [r3, #80]	; 0x50
10002d48:	4211      	tst	r1, r2
10002d4a:	d103      	bne.n	10002d54 <multicore_launch_core1_raw+0x54>
10002d4c:	bf20      	wfe
10002d4e:	6d1a      	ldr	r2, [r3, #80]	; 0x50
10002d50:	4211      	tst	r1, r2
10002d52:	d0fb      	beq.n	10002d4c <multicore_launch_core1_raw+0x4c>
10002d54:	6d9a      	ldr	r2, [r3, #88]	; 0x58
10002d56:	42aa      	cmp	r2, r5
10002d58:	d00a      	beq.n	10002d70 <multicore_launch_core1_raw+0x70>
10002d5a:	2000      	movs	r0, #0
10002d5c:	466d      	mov	r5, sp
10002d5e:	0082      	lsls	r2, r0, #2
10002d60:	58ad      	ldr	r5, [r5, r2]
10002d62:	e7e9      	b.n	10002d38 <multicore_launch_core1_raw+0x38>
10002d64:	6d9a      	ldr	r2, [r3, #88]	; 0x58
10002d66:	6d1a      	ldr	r2, [r3, #80]	; 0x50
10002d68:	4211      	tst	r1, r2
10002d6a:	d1fb      	bne.n	10002d64 <multicore_launch_core1_raw+0x64>
10002d6c:	bf40      	sev
10002d6e:	e7e5      	b.n	10002d3c <multicore_launch_core1_raw+0x3c>
10002d70:	3001      	adds	r0, #1
10002d72:	2805      	cmp	r0, #5
10002d74:	d9f2      	bls.n	10002d5c <multicore_launch_core1_raw+0x5c>
10002d76:	0031      	movs	r1, r6
10002d78:	200f      	movs	r0, #15
10002d7a:	f7fd fe1b 	bl	100009b4 <irq_set_enabled>
10002d7e:	b007      	add	sp, #28
10002d80:	bdf0      	pop	{r4, r5, r6, r7, pc}
10002d82:	46c0      	nop			; (mov r8, r8)

10002d84 <multicore_launch_core1>:
10002d84:	4b0b      	ldr	r3, [pc, #44]	; (10002db4 <multicore_launch_core1+0x30>)
10002d86:	4a0c      	ldr	r2, [pc, #48]	; (10002db8 <multicore_launch_core1+0x34>)
10002d88:	b510      	push	{r4, lr}
10002d8a:	4293      	cmp	r3, r2
10002d8c:	d201      	bcs.n	10002d92 <multicore_launch_core1+0xe>
10002d8e:	2301      	movs	r3, #1
10002d90:	425b      	negs	r3, r3
10002d92:	0019      	movs	r1, r3
10002d94:	4a09      	ldr	r2, [pc, #36]	; (10002dbc <multicore_launch_core1+0x38>)
10002d96:	5098      	str	r0, [r3, r2]
10002d98:	3204      	adds	r2, #4
10002d9a:	509b      	str	r3, [r3, r2]
10002d9c:	4a08      	ldr	r2, [pc, #32]	; (10002dc0 <multicore_launch_core1+0x3c>)
10002d9e:	4b09      	ldr	r3, [pc, #36]	; (10002dc4 <multicore_launch_core1+0x40>)
10002da0:	4809      	ldr	r0, [pc, #36]	; (10002dc8 <multicore_launch_core1+0x44>)
10002da2:	50ca      	str	r2, [r1, r3]
10002da4:	4b09      	ldr	r3, [pc, #36]	; (10002dcc <multicore_launch_core1+0x48>)
10002da6:	689a      	ldr	r2, [r3, #8]
10002da8:	4b04      	ldr	r3, [pc, #16]	; (10002dbc <multicore_launch_core1+0x38>)
10002daa:	469c      	mov	ip, r3
10002dac:	4461      	add	r1, ip
10002dae:	f7ff ffa7 	bl	10002d00 <multicore_launch_core1_raw>
10002db2:	bd10      	pop	{r4, pc}
10002db4:	20040800 	.word	0x20040800
10002db8:	20040164 	.word	0x20040164
10002dbc:	000007f4 	.word	0x000007f4
10002dc0:	10002cf5 	.word	0x10002cf5
10002dc4:	000007fc 	.word	0x000007fc
10002dc8:	10002cf1 	.word	0x10002cf1
10002dcc:	e000ed00 	.word	0xe000ed00

10002dd0 <dvi_init>:
10002dd0:	b5f8      	push	{r3, r4, r5, r6, r7, lr}
10002dd2:	2334      	movs	r3, #52	; 0x34
10002dd4:	46de      	mov	lr, fp
10002dd6:	4657      	mov	r7, sl
10002dd8:	464e      	mov	r6, r9
10002dda:	4645      	mov	r5, r8
10002ddc:	4698      	mov	r8, r3
10002dde:	b5e0      	push	{r5, r6, r7, lr}
10002de0:	0005      	movs	r5, r0
10002de2:	4480      	add	r8, r0
10002de4:	4640      	mov	r0, r8
10002de6:	468a      	mov	sl, r1
10002de8:	4691      	mov	r9, r2
10002dea:	f000 fa6d 	bl	100032c8 <dvi_timing_state_init>
10002dee:	0028      	movs	r0, r5
10002df0:	303c      	adds	r0, #60	; 0x3c
10002df2:	f000 f963 	bl	100030bc <dvi_serialiser_init>
10002df6:	4b59      	ldr	r3, [pc, #356]	; (10002f5c <dvi_init+0x18c>)
10002df8:	002e      	movs	r6, r5
10002dfa:	1d2f      	adds	r7, r5, #4
10002dfc:	003c      	movs	r4, r7
10002dfe:	469b      	mov	fp, r3
10002e00:	3640      	adds	r6, #64	; 0x40
10002e02:	2001      	movs	r0, #1
10002e04:	f000 fbc0 	bl	10003588 <dma_claim_unused_channel>
10002e08:	6020      	str	r0, [r4, #0]
10002e0a:	2001      	movs	r0, #1
10002e0c:	f000 fbbc 	bl	10003588 <dma_claim_unused_channel>
10002e10:	6060      	str	r0, [r4, #4]
10002e12:	6832      	ldr	r2, [r6, #0]
10002e14:	6be9      	ldr	r1, [r5, #60]	; 0x3c
10002e16:	1d13      	adds	r3, r2, #4
10002e18:	009b      	lsls	r3, r3, #2
10002e1a:	18cb      	adds	r3, r1, r3
10002e1c:	60a3      	str	r3, [r4, #8]
10002e1e:	4559      	cmp	r1, fp
10002e20:	d000      	beq.n	10002e24 <dvi_init+0x54>
10002e22:	3208      	adds	r2, #8
10002e24:	60e2      	str	r2, [r4, #12]
10002e26:	3410      	adds	r4, #16
10002e28:	3604      	adds	r6, #4
10002e2a:	45a0      	cmp	r8, r4
10002e2c:	d1e9      	bne.n	10002e02 <dvi_init+0x32>
10002e2e:	229c      	movs	r2, #156	; 0x9c
10002e30:	2300      	movs	r3, #0
10002e32:	209d      	movs	r0, #157	; 0x9d
10002e34:	0092      	lsls	r2, r2, #2
10002e36:	50ab      	str	r3, [r5, r2]
10002e38:	3a08      	subs	r2, #8
10002e3a:	50ab      	str	r3, [r5, r2]
10002e3c:	0080      	lsls	r0, r0, #2
10002e3e:	3204      	adds	r2, #4
10002e40:	50ab      	str	r3, [r5, r2]
10002e42:	2104      	movs	r1, #4
10002e44:	4653      	mov	r3, sl
10002e46:	2208      	movs	r2, #8
10002e48:	1828      	adds	r0, r5, r0
10002e4a:	f7fe fd71 	bl	10001930 <queue_init_with_spinlock>
10002e4e:	23a1      	movs	r3, #161	; 0xa1
10002e50:	009b      	lsls	r3, r3, #2
10002e52:	18ec      	adds	r4, r5, r3
10002e54:	2208      	movs	r2, #8
10002e56:	4653      	mov	r3, sl
10002e58:	2104      	movs	r1, #4
10002e5a:	0020      	movs	r0, r4
10002e5c:	f7fe fd68 	bl	10001930 <queue_init_with_spinlock>
10002e60:	20a5      	movs	r0, #165	; 0xa5
10002e62:	0080      	lsls	r0, r0, #2
10002e64:	464b      	mov	r3, r9
10002e66:	2208      	movs	r2, #8
10002e68:	2104      	movs	r1, #4
10002e6a:	1828      	adds	r0, r5, r0
10002e6c:	f7fe fd60 	bl	10001930 <queue_init_with_spinlock>
10002e70:	20a9      	movs	r0, #169	; 0xa9
10002e72:	0080      	lsls	r0, r0, #2
10002e74:	464b      	mov	r3, r9
10002e76:	2208      	movs	r2, #8
10002e78:	2104      	movs	r1, #4
10002e7a:	1828      	adds	r0, r5, r0
10002e7c:	f7fe fd58 	bl	10001930 <queue_init_with_spinlock>
10002e80:	002b      	movs	r3, r5
10002e82:	2201      	movs	r2, #1
10002e84:	0039      	movs	r1, r7
10002e86:	6828      	ldr	r0, [r5, #0]
10002e88:	3368      	adds	r3, #104	; 0x68
10002e8a:	f000 fa21 	bl	100032d0 <dvi_setup_scanline_for_vblank>
10002e8e:	002b      	movs	r3, r5
10002e90:	2200      	movs	r2, #0
10002e92:	0039      	movs	r1, r7
10002e94:	6828      	ldr	r0, [r5, #0]
10002e96:	33e8      	adds	r3, #232	; 0xe8
10002e98:	f000 fa1a 	bl	100032d0 <dvi_setup_scanline_for_vblank>
10002e9c:	002b      	movs	r3, r5
10002e9e:	2280      	movs	r2, #128	; 0x80
10002ea0:	3369      	adds	r3, #105	; 0x69
10002ea2:	0039      	movs	r1, r7
10002ea4:	6828      	ldr	r0, [r5, #0]
10002ea6:	33ff      	adds	r3, #255	; 0xff
10002ea8:	0592      	lsls	r2, r2, #22
10002eaa:	f000 faa7 	bl	100033fc <dvi_setup_scanline_for_active>
10002eae:	002b      	movs	r3, r5
10002eb0:	33e9      	adds	r3, #233	; 0xe9
10002eb2:	33ff      	adds	r3, #255	; 0xff
10002eb4:	2200      	movs	r2, #0
10002eb6:	0039      	movs	r1, r7
10002eb8:	6828      	ldr	r0, [r5, #0]
10002eba:	f000 fa9f 	bl	100033fc <dvi_setup_scanline_for_active>
10002ebe:	2303      	movs	r3, #3
10002ec0:	26a1      	movs	r6, #161	; 0xa1
10002ec2:	469a      	mov	sl, r3
10002ec4:	2300      	movs	r3, #0
10002ec6:	00b6      	lsls	r6, r6, #2
10002ec8:	4698      	mov	r8, r3
10002eca:	e017      	b.n	10002efc <dvi_init+0x12c>
10002ecc:	009a      	lsls	r2, r3, #2
10002ece:	6867      	ldr	r7, [r4, #4]
10002ed0:	3301      	adds	r3, #1
10002ed2:	b29b      	uxth	r3, r3
10002ed4:	51d0      	str	r0, [r2, r7]
10002ed6:	4299      	cmp	r1, r3
10002ed8:	d200      	bcs.n	10002edc <dvi_init+0x10c>
10002eda:	4643      	mov	r3, r8
10002edc:	8123      	strh	r3, [r4, #8]
10002ede:	59ab      	ldr	r3, [r5, r6]
10002ee0:	f3bf 8f5f 	dmb	sy
10002ee4:	4642      	mov	r2, r8
10002ee6:	601a      	str	r2, [r3, #0]
10002ee8:	f38c 8810 	msr	PRIMASK, ip
10002eec:	bf40      	sev
10002eee:	2301      	movs	r3, #1
10002ef0:	425b      	negs	r3, r3
10002ef2:	469c      	mov	ip, r3
10002ef4:	44e2      	add	sl, ip
10002ef6:	4653      	mov	r3, sl
10002ef8:	2b00      	cmp	r3, #0
10002efa:	d025      	beq.n	10002f48 <dvi_init+0x178>
10002efc:	682b      	ldr	r3, [r5, #0]
10002efe:	691b      	ldr	r3, [r3, #16]
10002f00:	0058      	lsls	r0, r3, #1
10002f02:	18c0      	adds	r0, r0, r3
10002f04:	0840      	lsrs	r0, r0, #1
10002f06:	0080      	lsls	r0, r0, #2
10002f08:	f7ff fce0 	bl	100028cc <__wrap_malloc>
10002f0c:	2800      	cmp	r0, #0
10002f0e:	d021      	beq.n	10002f54 <dvi_init+0x184>
10002f10:	59ab      	ldr	r3, [r5, r6]
10002f12:	f3ef 8c10 	mrs	ip, PRIMASK
10002f16:	b672      	cpsid	i
10002f18:	681a      	ldr	r2, [r3, #0]
10002f1a:	2a00      	cmp	r2, #0
10002f1c:	d0fc      	beq.n	10002f18 <dvi_init+0x148>
10002f1e:	f3bf 8f5f 	dmb	sy
10002f22:	8923      	ldrh	r3, [r4, #8]
10002f24:	8962      	ldrh	r2, [r4, #10]
10002f26:	89e1      	ldrh	r1, [r4, #14]
10002f28:	1a9a      	subs	r2, r3, r2
10002f2a:	d502      	bpl.n	10002f32 <dvi_init+0x162>
10002f2c:	1c4f      	adds	r7, r1, #1
10002f2e:	46b9      	mov	r9, r7
10002f30:	444a      	add	r2, r9
10002f32:	4291      	cmp	r1, r2
10002f34:	d1ca      	bne.n	10002ecc <dvi_init+0xfc>
10002f36:	59ab      	ldr	r3, [r5, r6]
10002f38:	f3bf 8f5f 	dmb	sy
10002f3c:	4642      	mov	r2, r8
10002f3e:	601a      	str	r2, [r3, #0]
10002f40:	f38c 8810 	msr	PRIMASK, ip
10002f44:	bf20      	wfe
10002f46:	e7e3      	b.n	10002f10 <dvi_init+0x140>
10002f48:	bc3c      	pop	{r2, r3, r4, r5}
10002f4a:	4690      	mov	r8, r2
10002f4c:	4699      	mov	r9, r3
10002f4e:	46a2      	mov	sl, r4
10002f50:	46ab      	mov	fp, r5
10002f52:	bdf8      	pop	{r3, r4, r5, r6, r7, pc}
10002f54:	4802      	ldr	r0, [pc, #8]	; (10002f60 <dvi_init+0x190>)
10002f56:	f7fe fe93 	bl	10001c80 <panic>
10002f5a:	46c0      	nop			; (mov r8, r8)
10002f5c:	50200000 	.word	0x50200000
10002f60:	100043f0 	.word	0x100043f0

10002f64 <dvi_register_irqs_this_core>:
10002f64:	2201      	movs	r2, #1
10002f66:	b570      	push	{r4, r5, r6, lr}
10002f68:	000c      	movs	r4, r1
10002f6a:	0011      	movs	r1, r2
10002f6c:	6883      	ldr	r3, [r0, #8]
10002f6e:	6945      	ldr	r5, [r0, #20]
10002f70:	4099      	lsls	r1, r3
10002f72:	0013      	movs	r3, r2
10002f74:	40ab      	lsls	r3, r5
10002f76:	0015      	movs	r5, r2
10002f78:	6986      	ldr	r6, [r0, #24]
10002f7a:	40b5      	lsls	r5, r6
10002f7c:	432b      	orrs	r3, r5
10002f7e:	0015      	movs	r5, r2
10002f80:	6a46      	ldr	r6, [r0, #36]	; 0x24
10002f82:	40b5      	lsls	r5, r6
10002f84:	432b      	orrs	r3, r5
10002f86:	0015      	movs	r5, r2
10002f88:	6a86      	ldr	r6, [r0, #40]	; 0x28
10002f8a:	40b5      	lsls	r5, r6
10002f8c:	432b      	orrs	r3, r5
10002f8e:	6845      	ldr	r5, [r0, #4]
10002f90:	40aa      	lsls	r2, r5
10002f92:	25a0      	movs	r5, #160	; 0xa0
10002f94:	430a      	orrs	r2, r1
10002f96:	4313      	orrs	r3, r2
10002f98:	4a11      	ldr	r2, [pc, #68]	; (10002fe0 <dvi_register_irqs_this_core+0x7c>)
10002f9a:	05ed      	lsls	r5, r5, #23
10002f9c:	50a9      	str	r1, [r5, r2]
10002f9e:	2c0b      	cmp	r4, #11
10002fa0:	d010      	beq.n	10002fc4 <dvi_register_irqs_this_core+0x60>
10002fa2:	4a10      	ldr	r2, [pc, #64]	; (10002fe4 <dvi_register_irqs_this_core+0x80>)
10002fa4:	6812      	ldr	r2, [r2, #0]
10002fa6:	4051      	eors	r1, r2
10002fa8:	4a0f      	ldr	r2, [pc, #60]	; (10002fe8 <dvi_register_irqs_this_core+0x84>)
10002faa:	400b      	ands	r3, r1
10002fac:	6013      	str	r3, [r2, #0]
10002fae:	4b0f      	ldr	r3, [pc, #60]	; (10002fec <dvi_register_irqs_this_core+0x88>)
10002fb0:	490f      	ldr	r1, [pc, #60]	; (10002ff0 <dvi_register_irqs_this_core+0x8c>)
10002fb2:	6058      	str	r0, [r3, #4]
10002fb4:	200c      	movs	r0, #12
10002fb6:	f7fd fd23 	bl	10000a00 <irq_set_exclusive_handler>
10002fba:	2101      	movs	r1, #1
10002fbc:	0020      	movs	r0, r4
10002fbe:	f7fd fcf9 	bl	100009b4 <irq_set_enabled>
10002fc2:	bd70      	pop	{r4, r5, r6, pc}
10002fc4:	4a0b      	ldr	r2, [pc, #44]	; (10002ff4 <dvi_register_irqs_this_core+0x90>)
10002fc6:	6812      	ldr	r2, [r2, #0]
10002fc8:	4051      	eors	r1, r2
10002fca:	4a0b      	ldr	r2, [pc, #44]	; (10002ff8 <dvi_register_irqs_this_core+0x94>)
10002fcc:	400b      	ands	r3, r1
10002fce:	6013      	str	r3, [r2, #0]
10002fd0:	4b06      	ldr	r3, [pc, #24]	; (10002fec <dvi_register_irqs_this_core+0x88>)
10002fd2:	490a      	ldr	r1, [pc, #40]	; (10002ffc <dvi_register_irqs_this_core+0x98>)
10002fd4:	6018      	str	r0, [r3, #0]
10002fd6:	200b      	movs	r0, #11
10002fd8:	f7fd fd12 	bl	10000a00 <irq_set_exclusive_handler>
10002fdc:	e7ed      	b.n	10002fba <dvi_register_irqs_this_core+0x56>
10002fde:	46c0      	nop			; (mov r8, r8)
10002fe0:	0000040c 	.word	0x0000040c
10002fe4:	50000414 	.word	0x50000414
10002fe8:	50001414 	.word	0x50001414
10002fec:	200123c8 	.word	0x200123c8
10002ff0:	20000e4d 	.word	0x20000e4d
10002ff4:	50000404 	.word	0x50000404
10002ff8:	50001404 	.word	0x50001404
10002ffc:	20000e71 	.word	0x20000e71

10003000 <dvi_start>:
10003000:	b5f8      	push	{r3, r4, r5, r6, r7, lr}
10003002:	26a0      	movs	r6, #160	; 0xa0
10003004:	05f6      	lsls	r6, r6, #23
10003006:	46b4      	mov	ip, r6
10003008:	0006      	movs	r6, r0
1000300a:	6843      	ldr	r3, [r0, #4]
1000300c:	6884      	ldr	r4, [r0, #8]
1000300e:	02d9      	lsls	r1, r3, #11
10003010:	01a4      	lsls	r4, r4, #6
10003012:	019b      	lsls	r3, r3, #6
10003014:	4463      	add	r3, ip
10003016:	4464      	add	r4, ip
10003018:	36e8      	adds	r6, #232	; 0xe8
1000301a:	601e      	str	r6, [r3, #0]
1000301c:	605c      	str	r4, [r3, #4]
1000301e:	2404      	movs	r4, #4
10003020:	0007      	movs	r7, r0
10003022:	4d24      	ldr	r5, [pc, #144]	; (100030b4 <dvi_start+0xb4>)
10003024:	4a24      	ldr	r2, [pc, #144]	; (100030b8 <dvi_start+0xb8>)
10003026:	4029      	ands	r1, r5
10003028:	4311      	orrs	r1, r2
1000302a:	609c      	str	r4, [r3, #8]
1000302c:	6119      	str	r1, [r3, #16]
1000302e:	6943      	ldr	r3, [r0, #20]
10003030:	6986      	ldr	r6, [r0, #24]
10003032:	02d9      	lsls	r1, r3, #11
10003034:	4029      	ands	r1, r5
10003036:	01b6      	lsls	r6, r6, #6
10003038:	019b      	lsls	r3, r3, #6
1000303a:	3729      	adds	r7, #41	; 0x29
1000303c:	4463      	add	r3, ip
1000303e:	4311      	orrs	r1, r2
10003040:	4466      	add	r6, ip
10003042:	37ff      	adds	r7, #255	; 0xff
10003044:	601f      	str	r7, [r3, #0]
10003046:	605e      	str	r6, [r3, #4]
10003048:	609c      	str	r4, [r3, #8]
1000304a:	6119      	str	r1, [r3, #16]
1000304c:	6a43      	ldr	r3, [r0, #36]	; 0x24
1000304e:	0006      	movs	r6, r0
10003050:	02d9      	lsls	r1, r3, #11
10003052:	400d      	ands	r5, r1
10003054:	432a      	orrs	r2, r5
10003056:	0005      	movs	r5, r0
10003058:	6a81      	ldr	r1, [r0, #40]	; 0x28
1000305a:	019b      	lsls	r3, r3, #6
1000305c:	0189      	lsls	r1, r1, #6
1000305e:	3549      	adds	r5, #73	; 0x49
10003060:	4463      	add	r3, ip
10003062:	4461      	add	r1, ip
10003064:	35ff      	adds	r5, #255	; 0xff
10003066:	601d      	str	r5, [r3, #0]
10003068:	6059      	str	r1, [r3, #4]
1000306a:	609c      	str	r4, [r3, #8]
1000306c:	611a      	str	r2, [r3, #16]
1000306e:	2201      	movs	r2, #1
10003070:	0013      	movs	r3, r2
10003072:	6841      	ldr	r1, [r0, #4]
10003074:	6944      	ldr	r4, [r0, #20]
10003076:	408b      	lsls	r3, r1
10003078:	0011      	movs	r1, r2
1000307a:	40a1      	lsls	r1, r4
1000307c:	430b      	orrs	r3, r1
1000307e:	6a41      	ldr	r1, [r0, #36]	; 0x24
10003080:	0004      	movs	r4, r0
10003082:	408a      	lsls	r2, r1
10003084:	4313      	orrs	r3, r2
10003086:	2286      	movs	r2, #134	; 0x86
10003088:	4661      	mov	r1, ip
1000308a:	2501      	movs	r5, #1
1000308c:	00d2      	lsls	r2, r2, #3
1000308e:	508b      	str	r3, [r1, r2]
10003090:	6bc1      	ldr	r1, [r0, #60]	; 0x3c
10003092:	3440      	adds	r4, #64	; 0x40
10003094:	364c      	adds	r6, #76	; 0x4c
10003096:	002a      	movs	r2, r5
10003098:	6823      	ldr	r3, [r4, #0]
1000309a:	3310      	adds	r3, #16
1000309c:	409a      	lsls	r2, r3
1000309e:	684b      	ldr	r3, [r1, #4]
100030a0:	421a      	tst	r2, r3
100030a2:	d0fc      	beq.n	1000309e <dvi_start+0x9e>
100030a4:	3404      	adds	r4, #4
100030a6:	42a6      	cmp	r6, r4
100030a8:	d1f5      	bne.n	10003096 <dvi_start+0x96>
100030aa:	2101      	movs	r1, #1
100030ac:	303c      	adds	r0, #60	; 0x3c
100030ae:	f000 f8cf 	bl	10003250 <dvi_serialiser_enable>
100030b2:	bdf8      	pop	{r3, r4, r5, r6, r7, pc}
100030b4:	ff1ffffd 	.word	0xff1ffffd
100030b8:	001f8539 	.word	0x001f8539

100030bc <dvi_serialiser_init>:
100030bc:	b5f0      	push	{r4, r5, r6, r7, lr}
100030be:	46de      	mov	lr, fp
100030c0:	4645      	mov	r5, r8
100030c2:	4657      	mov	r7, sl
100030c4:	464e      	mov	r6, r9
100030c6:	b5e0      	push	{r5, r6, r7, lr}
100030c8:	0004      	movs	r4, r0
100030ca:	b087      	sub	sp, #28
100030cc:	4959      	ldr	r1, [pc, #356]	; (10003234 <dvi_serialiser_init+0x178>)
100030ce:	6800      	ldr	r0, [r0, #0]
100030d0:	f000 faa2 	bl	10003618 <pio_add_program>
100030d4:	0003      	movs	r3, r0
100030d6:	3301      	adds	r3, #1
100030d8:	01c2      	lsls	r2, r0, #7
100030da:	031b      	lsls	r3, r3, #12
100030dc:	4313      	orrs	r3, r2
100030de:	4a56      	ldr	r2, [pc, #344]	; (10003238 <dvi_serialiser_init+0x17c>)
100030e0:	4683      	mov	fp, r0
100030e2:	4013      	ands	r3, r2
100030e4:	469a      	mov	sl, r3
100030e6:	2310      	movs	r3, #16
100030e8:	469c      	mov	ip, r3
100030ea:	44a4      	add	ip, r4
100030ec:	4663      	mov	r3, ip
100030ee:	46a0      	mov	r8, r4
100030f0:	6260      	str	r0, [r4, #36]	; 0x24
100030f2:	1d25      	adds	r5, r4, #4
100030f4:	9301      	str	r3, [sp, #4]
100030f6:	4643      	mov	r3, r8
100030f8:	6829      	ldr	r1, [r5, #0]
100030fa:	6818      	ldr	r0, [r3, #0]
100030fc:	f000 fa74 	bl	100035e8 <pio_sm_claim>
10003100:	4643      	mov	r3, r8
10003102:	2403      	movs	r4, #3
10003104:	681f      	ldr	r7, [r3, #0]
10003106:	68ee      	ldr	r6, [r5, #12]
10003108:	682b      	ldr	r3, [r5, #0]
1000310a:	40b4      	lsls	r4, r6
1000310c:	4699      	mov	r9, r3
1000310e:	2202      	movs	r2, #2
10003110:	0023      	movs	r3, r4
10003112:	40b2      	lsls	r2, r6
10003114:	0038      	movs	r0, r7
10003116:	4649      	mov	r1, r9
10003118:	f000 faf0 	bl	100036fc <pio_sm_set_pins_with_mask>
1000311c:	2201      	movs	r2, #1
1000311e:	0023      	movs	r3, r4
10003120:	4252      	negs	r2, r2
10003122:	0038      	movs	r0, r7
10003124:	4649      	mov	r1, r9
10003126:	f000 fb2b 	bl	10003780 <pio_sm_set_pindirs_with_mask>
1000312a:	4b44      	ldr	r3, [pc, #272]	; (1000323c <dvi_serialiser_init+0x180>)
1000312c:	0030      	movs	r0, r6
1000312e:	18fc      	adds	r4, r7, r3
10003130:	1e63      	subs	r3, r4, #1
10003132:	419c      	sbcs	r4, r3
10003134:	3406      	adds	r4, #6
10003136:	0021      	movs	r1, r4
10003138:	f7fd fb4a 	bl	100007d0 <gpio_set_function>
1000313c:	0021      	movs	r1, r4
1000313e:	1c70      	adds	r0, r6, #1
10003140:	f7fd fb46 	bl	100007d0 <gpio_set_function>
10003144:	2380      	movs	r3, #128	; 0x80
10003146:	025b      	lsls	r3, r3, #9
10003148:	9302      	str	r3, [sp, #8]
1000314a:	4653      	mov	r3, sl
1000314c:	9303      	str	r3, [sp, #12]
1000314e:	2380      	movs	r3, #128	; 0x80
10003150:	02b6      	lsls	r6, r6, #10
10003152:	05db      	lsls	r3, r3, #23
10003154:	431e      	orrs	r6, r3
10003156:	4b3a      	ldr	r3, [pc, #232]	; (10003240 <dvi_serialiser_init+0x184>)
10003158:	0038      	movs	r0, r7
1000315a:	465a      	mov	r2, fp
1000315c:	4649      	mov	r1, r9
1000315e:	9304      	str	r3, [sp, #16]
10003160:	ab02      	add	r3, sp, #8
10003162:	9605      	str	r6, [sp, #20]
10003164:	f000 fb50 	bl	10003808 <pio_sm_init>
10003168:	4649      	mov	r1, r9
1000316a:	2201      	movs	r2, #1
1000316c:	408a      	lsls	r2, r1
1000316e:	683b      	ldr	r3, [r7, #0]
10003170:	2680      	movs	r6, #128	; 0x80
10003172:	4393      	bics	r3, r2
10003174:	4a33      	ldr	r2, [pc, #204]	; (10003244 <dvi_serialiser_init+0x188>)
10003176:	603b      	str	r3, [r7, #0]
10003178:	2720      	movs	r7, #32
1000317a:	4643      	mov	r3, r8
1000317c:	4694      	mov	ip, r2
1000317e:	2471      	movs	r4, #113	; 0x71
10003180:	68e8      	ldr	r0, [r5, #12]
10003182:	5dd9      	ldrb	r1, [r3, r7]
10003184:	0083      	lsls	r3, r0, #2
10003186:	4463      	add	r3, ip
10003188:	681a      	ldr	r2, [r3, #0]
1000318a:	0176      	lsls	r6, r6, #5
1000318c:	4022      	ands	r2, r4
1000318e:	4333      	orrs	r3, r6
10003190:	601a      	str	r2, [r3, #0]
10003192:	f7fd fb35 	bl	10000800 <gpio_set_outover>
10003196:	68eb      	ldr	r3, [r5, #12]
10003198:	4a2a      	ldr	r2, [pc, #168]	; (10003244 <dvi_serialiser_init+0x188>)
1000319a:	1c58      	adds	r0, r3, #1
1000319c:	4643      	mov	r3, r8
1000319e:	4694      	mov	ip, r2
100031a0:	5dd9      	ldrb	r1, [r3, r7]
100031a2:	0083      	lsls	r3, r0, #2
100031a4:	4463      	add	r3, ip
100031a6:	681a      	ldr	r2, [r3, #0]
100031a8:	4333      	orrs	r3, r6
100031aa:	4014      	ands	r4, r2
100031ac:	601c      	str	r4, [r3, #0]
100031ae:	f7fd fb27 	bl	10000800 <gpio_set_outover>
100031b2:	9b01      	ldr	r3, [sp, #4]
100031b4:	3504      	adds	r5, #4
100031b6:	429d      	cmp	r5, r3
100031b8:	d19d      	bne.n	100030f6 <dvi_serialiser_init+0x3a>
100031ba:	4644      	mov	r4, r8
100031bc:	69e5      	ldr	r5, [r4, #28]
100031be:	072a      	lsls	r2, r5, #28
100031c0:	0f52      	lsrs	r2, r2, #29
100031c2:	0093      	lsls	r3, r2, #2
100031c4:	189b      	adds	r3, r3, r2
100031c6:	4a20      	ldr	r2, [pc, #128]	; (10003248 <dvi_serialiser_init+0x18c>)
100031c8:	009b      	lsls	r3, r3, #2
100031ca:	4694      	mov	ip, r2
100031cc:	2200      	movs	r2, #0
100031ce:	4463      	add	r3, ip
100031d0:	601a      	str	r2, [r3, #0]
100031d2:	609a      	str	r2, [r3, #8]
100031d4:	60da      	str	r2, [r3, #12]
100031d6:	3209      	adds	r2, #9
100031d8:	611a      	str	r2, [r3, #16]
100031da:	3207      	adds	r2, #7
100031dc:	605a      	str	r2, [r3, #4]
100031de:	3a0c      	subs	r2, #12
100031e0:	601a      	str	r2, [r3, #0]
100031e2:	4a1a      	ldr	r2, [pc, #104]	; (1000324c <dvi_serialiser_init+0x190>)
100031e4:	60da      	str	r2, [r3, #12]
100031e6:	1c6b      	adds	r3, r5, #1
100031e8:	d01c      	beq.n	10003224 <dvi_serialiser_init+0x168>
100031ea:	4b16      	ldr	r3, [pc, #88]	; (10003244 <dvi_serialiser_init+0x188>)
100031ec:	00af      	lsls	r7, r5, #2
100031ee:	469c      	mov	ip, r3
100031f0:	2320      	movs	r3, #32
100031f2:	4699      	mov	r9, r3
100031f4:	3351      	adds	r3, #81	; 0x51
100031f6:	4698      	mov	r8, r3
100031f8:	4467      	add	r7, ip
100031fa:	0028      	movs	r0, r5
100031fc:	2104      	movs	r1, #4
100031fe:	f7fd fae7 	bl	100007d0 <gpio_set_function>
10003202:	464b      	mov	r3, r9
10003204:	4642      	mov	r2, r8
10003206:	5ce1      	ldrb	r1, [r4, r3]
10003208:	683b      	ldr	r3, [r7, #0]
1000320a:	0028      	movs	r0, r5
1000320c:	4013      	ands	r3, r2
1000320e:	0032      	movs	r2, r6
10003210:	433a      	orrs	r2, r7
10003212:	6013      	str	r3, [r2, #0]
10003214:	f7fd faf4 	bl	10000800 <gpio_set_outover>
10003218:	69e3      	ldr	r3, [r4, #28]
1000321a:	3501      	adds	r5, #1
1000321c:	3301      	adds	r3, #1
1000321e:	3704      	adds	r7, #4
10003220:	42ab      	cmp	r3, r5
10003222:	d2ea      	bcs.n	100031fa <dvi_serialiser_init+0x13e>
10003224:	b007      	add	sp, #28
10003226:	bc3c      	pop	{r2, r3, r4, r5}
10003228:	4690      	mov	r8, r2
1000322a:	4699      	mov	r9, r3
1000322c:	46a2      	mov	sl, r4
1000322e:	46ab      	mov	fp, r5
10003230:	bdf0      	pop	{r4, r5, r6, r7, pc}
10003232:	46c0      	nop			; (mov r8, r8)
10003234:	10004410 	.word	0x10004410
10003238:	9fffffff 	.word	0x9fffffff
1000323c:	afe00000 	.word	0xafe00000
10003240:	680e0000 	.word	0x680e0000
10003244:	4001c004 	.word	0x4001c004
10003248:	40050000 	.word	0x40050000
1000324c:	00050005 	.word	0x00050005

10003250 <dvi_serialiser_enable>:
10003250:	2301      	movs	r3, #1
10003252:	001a      	movs	r2, r3
10003254:	b530      	push	{r4, r5, lr}
10003256:	6844      	ldr	r4, [r0, #4]
10003258:	6885      	ldr	r5, [r0, #8]
1000325a:	40a2      	lsls	r2, r4
1000325c:	001c      	movs	r4, r3
1000325e:	40ac      	lsls	r4, r5
10003260:	4314      	orrs	r4, r2
10003262:	001a      	movs	r2, r3
10003264:	68c5      	ldr	r5, [r0, #12]
10003266:	40aa      	lsls	r2, r5
10003268:	4322      	orrs	r2, r4
1000326a:	2900      	cmp	r1, #0
1000326c:	d014      	beq.n	10003298 <dvi_serialiser_enable+0x48>
1000326e:	2180      	movs	r1, #128	; 0x80
10003270:	6804      	ldr	r4, [r0, #0]
10003272:	0189      	lsls	r1, r1, #6
10003274:	4321      	orrs	r1, r4
10003276:	600a      	str	r2, [r1, #0]
10003278:	69c2      	ldr	r2, [r0, #28]
1000327a:	0712      	lsls	r2, r2, #28
1000327c:	0f51      	lsrs	r1, r2, #29
1000327e:	008a      	lsls	r2, r1, #2
10003280:	1852      	adds	r2, r2, r1
10003282:	4910      	ldr	r1, [pc, #64]	; (100032c4 <dvi_serialiser_enable+0x74>)
10003284:	0092      	lsls	r2, r2, #2
10003286:	468c      	mov	ip, r1
10003288:	4462      	add	r2, ip
1000328a:	6811      	ldr	r1, [r2, #0]
1000328c:	438b      	bics	r3, r1
1000328e:	2180      	movs	r1, #128	; 0x80
10003290:	0149      	lsls	r1, r1, #5
10003292:	430a      	orrs	r2, r1
10003294:	6013      	str	r3, [r2, #0]
10003296:	bd30      	pop	{r4, r5, pc}
10003298:	21c0      	movs	r1, #192	; 0xc0
1000329a:	6804      	ldr	r4, [r0, #0]
1000329c:	0189      	lsls	r1, r1, #6
1000329e:	4321      	orrs	r1, r4
100032a0:	600a      	str	r2, [r1, #0]
100032a2:	69c2      	ldr	r2, [r0, #28]
100032a4:	0712      	lsls	r2, r2, #28
100032a6:	0f51      	lsrs	r1, r2, #29
100032a8:	008a      	lsls	r2, r1, #2
100032aa:	1852      	adds	r2, r2, r1
100032ac:	4905      	ldr	r1, [pc, #20]	; (100032c4 <dvi_serialiser_enable+0x74>)
100032ae:	0092      	lsls	r2, r2, #2
100032b0:	468c      	mov	ip, r1
100032b2:	4462      	add	r2, ip
100032b4:	6811      	ldr	r1, [r2, #0]
100032b6:	400b      	ands	r3, r1
100032b8:	2180      	movs	r1, #128	; 0x80
100032ba:	0149      	lsls	r1, r1, #5
100032bc:	430a      	orrs	r2, r1
100032be:	6013      	str	r3, [r2, #0]
100032c0:	e7e9      	b.n	10003296 <dvi_serialiser_enable+0x46>
100032c2:	46c0      	nop			; (mov r8, r8)
100032c4:	40050000 	.word	0x40050000

100032c8 <dvi_timing_state_init>:
100032c8:	2300      	movs	r3, #0
100032ca:	6003      	str	r3, [r0, #0]
100032cc:	7103      	strb	r3, [r0, #4]
100032ce:	4770      	bx	lr

100032d0 <dvi_setup_scanline_for_vblank>:
100032d0:	b5f0      	push	{r4, r5, r6, r7, lr}
100032d2:	7804      	ldrb	r4, [r0, #0]
100032d4:	4657      	mov	r7, sl
100032d6:	4645      	mov	r5, r8
100032d8:	46a2      	mov	sl, r4
100032da:	46de      	mov	lr, fp
100032dc:	464e      	mov	r6, r9
100032de:	2401      	movs	r4, #1
100032e0:	b5e0      	push	{r5, r6, r7, lr}
100032e2:	4655      	mov	r5, sl
100032e4:	406c      	eors	r4, r5
100032e6:	7d05      	ldrb	r5, [r0, #20]
100032e8:	b083      	sub	sp, #12
100032ea:	4295      	cmp	r5, r2
100032ec:	d104      	bne.n	100032f8 <dvi_setup_scanline_for_vblank+0x28>
100032ee:	2202      	movs	r2, #2
100032f0:	4655      	mov	r5, sl
100032f2:	4315      	orrs	r5, r2
100032f4:	46aa      	mov	sl, r5
100032f6:	4314      	orrs	r4, r2
100032f8:	4e3b      	ldr	r6, [pc, #236]	; (100033e8 <dvi_setup_scanline_for_vblank+0x118>)
100032fa:	00a4      	lsls	r4, r4, #2
100032fc:	6842      	ldr	r2, [r0, #4]
100032fe:	1934      	adds	r4, r6, r4
10003300:	9400      	str	r4, [sp, #0]
10003302:	601c      	str	r4, [r3, #0]
10003304:	684c      	ldr	r4, [r1, #4]
10003306:	9201      	str	r2, [sp, #4]
10003308:	0852      	lsrs	r2, r2, #1
1000330a:	688f      	ldr	r7, [r1, #8]
1000330c:	609a      	str	r2, [r3, #8]
1000330e:	02e2      	lsls	r2, r4, #11
10003310:	4c36      	ldr	r4, [pc, #216]	; (100033ec <dvi_setup_scanline_for_vblank+0x11c>)
10003312:	605f      	str	r7, [r3, #4]
10003314:	46a0      	mov	r8, r4
10003316:	4022      	ands	r2, r4
10003318:	68cc      	ldr	r4, [r1, #12]
1000331a:	03e5      	lsls	r5, r4, #15
1000331c:	4c34      	ldr	r4, [pc, #208]	; (100033f0 <dvi_setup_scanline_for_vblank+0x120>)
1000331e:	432a      	orrs	r2, r5
10003320:	46a4      	mov	ip, r4
10003322:	4022      	ands	r2, r4
10003324:	680c      	ldr	r4, [r1, #0]
10003326:	02e5      	lsls	r5, r4, #11
10003328:	432a      	orrs	r2, r5
1000332a:	4655      	mov	r5, sl
1000332c:	00ad      	lsls	r5, r5, #2
1000332e:	46aa      	mov	sl, r5
10003330:	4c30      	ldr	r4, [pc, #192]	; (100033f4 <dvi_setup_scanline_for_vblank+0x124>)
10003332:	44b2      	add	sl, r6
10003334:	4314      	orrs	r4, r2
10003336:	4655      	mov	r5, sl
10003338:	46a1      	mov	r9, r4
1000333a:	60dc      	str	r4, [r3, #12]
1000333c:	6884      	ldr	r4, [r0, #8]
1000333e:	611d      	str	r5, [r3, #16]
10003340:	0865      	lsrs	r5, r4, #1
10003342:	619d      	str	r5, [r3, #24]
10003344:	464d      	mov	r5, r9
10003346:	61dd      	str	r5, [r3, #28]
10003348:	68c5      	ldr	r5, [r0, #12]
1000334a:	615f      	str	r7, [r3, #20]
1000334c:	46aa      	mov	sl, r5
1000334e:	9d00      	ldr	r5, [sp, #0]
10003350:	625f      	str	r7, [r3, #36]	; 0x24
10003352:	621d      	str	r5, [r3, #32]
10003354:	4655      	mov	r5, sl
10003356:	086d      	lsrs	r5, r5, #1
10003358:	629d      	str	r5, [r3, #40]	; 0x28
1000335a:	4d27      	ldr	r5, [pc, #156]	; (100033f8 <dvi_setup_scanline_for_vblank+0x128>)
1000335c:	402a      	ands	r2, r5
1000335e:	2599      	movs	r5, #153	; 0x99
10003360:	432a      	orrs	r2, r5
10003362:	464d      	mov	r5, r9
10003364:	46a1      	mov	r9, r4
10003366:	62da      	str	r2, [r3, #44]	; 0x2c
10003368:	6902      	ldr	r2, [r0, #16]
1000336a:	63dd      	str	r5, [r3, #60]	; 0x3c
1000336c:	4645      	mov	r5, r8
1000336e:	9800      	ldr	r0, [sp, #0]
10003370:	635f      	str	r7, [r3, #52]	; 0x34
10003372:	6318      	str	r0, [r3, #48]	; 0x30
10003374:	9801      	ldr	r0, [sp, #4]
10003376:	698f      	ldr	r7, [r1, #24]
10003378:	0852      	lsrs	r2, r2, #1
1000337a:	4448      	add	r0, r9
1000337c:	0004      	movs	r4, r0
1000337e:	639a      	str	r2, [r3, #56]	; 0x38
10003380:	641e      	str	r6, [r3, #64]	; 0x40
10003382:	645f      	str	r7, [r3, #68]	; 0x44
10003384:	6948      	ldr	r0, [r1, #20]
10003386:	4454      	add	r4, sl
10003388:	02c0      	lsls	r0, r0, #11
1000338a:	4028      	ands	r0, r5
1000338c:	69cd      	ldr	r5, [r1, #28]
1000338e:	0864      	lsrs	r4, r4, #1
10003390:	03ed      	lsls	r5, r5, #15
10003392:	4328      	orrs	r0, r5
10003394:	4665      	mov	r5, ip
10003396:	649c      	str	r4, [r3, #72]	; 0x48
10003398:	4028      	ands	r0, r5
1000339a:	690d      	ldr	r5, [r1, #16]
1000339c:	655f      	str	r7, [r3, #84]	; 0x54
1000339e:	6a8f      	ldr	r7, [r1, #40]	; 0x28
100033a0:	669c      	str	r4, [r3, #104]	; 0x68
100033a2:	4644      	mov	r4, r8
100033a4:	02ed      	lsls	r5, r5, #11
100033a6:	4328      	orrs	r0, r5
100033a8:	4d12      	ldr	r5, [pc, #72]	; (100033f4 <dvi_setup_scanline_for_vblank+0x124>)
100033aa:	651e      	str	r6, [r3, #80]	; 0x50
100033ac:	4328      	orrs	r0, r5
100033ae:	64d8      	str	r0, [r3, #76]	; 0x4c
100033b0:	65d8      	str	r0, [r3, #92]	; 0x5c
100033b2:	6a48      	ldr	r0, [r1, #36]	; 0x24
100033b4:	659a      	str	r2, [r3, #88]	; 0x58
100033b6:	02c0      	lsls	r0, r0, #11
100033b8:	4020      	ands	r0, r4
100033ba:	6acc      	ldr	r4, [r1, #44]	; 0x2c
100033bc:	6a09      	ldr	r1, [r1, #32]
100033be:	03e4      	lsls	r4, r4, #15
100033c0:	4320      	orrs	r0, r4
100033c2:	4664      	mov	r4, ip
100033c4:	02c9      	lsls	r1, r1, #11
100033c6:	4020      	ands	r0, r4
100033c8:	4301      	orrs	r1, r0
100033ca:	430d      	orrs	r5, r1
100033cc:	661e      	str	r6, [r3, #96]	; 0x60
100033ce:	665f      	str	r7, [r3, #100]	; 0x64
100033d0:	66dd      	str	r5, [r3, #108]	; 0x6c
100033d2:	671e      	str	r6, [r3, #112]	; 0x70
100033d4:	675f      	str	r7, [r3, #116]	; 0x74
100033d6:	679a      	str	r2, [r3, #120]	; 0x78
100033d8:	67dd      	str	r5, [r3, #124]	; 0x7c
100033da:	b003      	add	sp, #12
100033dc:	bc3c      	pop	{r2, r3, r4, r5}
100033de:	4690      	mov	r8, r2
100033e0:	4699      	mov	r9, r3
100033e2:	46a2      	mov	sl, r4
100033e4:	46ab      	mov	fp, r5
100033e6:	bdf0      	pop	{r4, r5, r6, r7, pc}
100033e8:	20001160 	.word	0x20001160
100033ec:	ff007ffd 	.word	0xff007ffd
100033f0:	ffff87ff 	.word	0xffff87ff
100033f4:	00200099 	.word	0x00200099
100033f8:	ffdfffff 	.word	0xffdfffff

100033fc <dvi_setup_scanline_for_active>:
100033fc:	b5f0      	push	{r4, r5, r6, r7, lr}
100033fe:	464e      	mov	r6, r9
10003400:	4645      	mov	r5, r8
10003402:	46de      	mov	lr, fp
10003404:	4657      	mov	r7, sl
10003406:	b5e0      	push	{r5, r6, r7, lr}
10003408:	2501      	movs	r5, #1
1000340a:	7806      	ldrb	r6, [r0, #0]
1000340c:	7d04      	ldrb	r4, [r0, #20]
1000340e:	4075      	eors	r5, r6
10003410:	2c00      	cmp	r4, #0
10003412:	d102      	bne.n	1000341a <dvi_setup_scanline_for_active+0x1e>
10003414:	3402      	adds	r4, #2
10003416:	4326      	orrs	r6, r4
10003418:	4325      	orrs	r5, r4
1000341a:	4c54      	ldr	r4, [pc, #336]	; (1000356c <dvi_setup_scanline_for_active+0x170>)
1000341c:	00ad      	lsls	r5, r5, #2
1000341e:	46a4      	mov	ip, r4
10003420:	6844      	ldr	r4, [r0, #4]
10003422:	4465      	add	r5, ip
10003424:	46a0      	mov	r8, r4
10003426:	688c      	ldr	r4, [r1, #8]
10003428:	4f51      	ldr	r7, [pc, #324]	; (10003570 <dvi_setup_scanline_for_active+0x174>)
1000342a:	46a4      	mov	ip, r4
1000342c:	605c      	str	r4, [r3, #4]
1000342e:	4644      	mov	r4, r8
10003430:	0864      	lsrs	r4, r4, #1
10003432:	609c      	str	r4, [r3, #8]
10003434:	684c      	ldr	r4, [r1, #4]
10003436:	00b6      	lsls	r6, r6, #2
10003438:	02e4      	lsls	r4, r4, #11
1000343a:	403c      	ands	r4, r7
1000343c:	68cf      	ldr	r7, [r1, #12]
1000343e:	601d      	str	r5, [r3, #0]
10003440:	03ff      	lsls	r7, r7, #15
10003442:	433c      	orrs	r4, r7
10003444:	4f4b      	ldr	r7, [pc, #300]	; (10003574 <dvi_setup_scanline_for_active+0x178>)
10003446:	403c      	ands	r4, r7
10003448:	680f      	ldr	r7, [r1, #0]
1000344a:	02ff      	lsls	r7, r7, #11
1000344c:	433c      	orrs	r4, r7
1000344e:	4f4a      	ldr	r7, [pc, #296]	; (10003578 <dvi_setup_scanline_for_active+0x17c>)
10003450:	4327      	orrs	r7, r4
10003452:	46b9      	mov	r9, r7
10003454:	60df      	str	r7, [r3, #12]
10003456:	6887      	ldr	r7, [r0, #8]
10003458:	46ba      	mov	sl, r7
1000345a:	4f44      	ldr	r7, [pc, #272]	; (1000356c <dvi_setup_scanline_for_active+0x170>)
1000345c:	46bb      	mov	fp, r7
1000345e:	445e      	add	r6, fp
10003460:	611e      	str	r6, [r3, #16]
10003462:	4666      	mov	r6, ip
10003464:	615e      	str	r6, [r3, #20]
10003466:	4656      	mov	r6, sl
10003468:	0876      	lsrs	r6, r6, #1
1000346a:	619e      	str	r6, [r3, #24]
1000346c:	464e      	mov	r6, r9
1000346e:	61de      	str	r6, [r3, #28]
10003470:	68c6      	ldr	r6, [r0, #12]
10003472:	621d      	str	r5, [r3, #32]
10003474:	4665      	mov	r5, ip
10003476:	46b3      	mov	fp, r6
10003478:	625d      	str	r5, [r3, #36]	; 0x24
1000347a:	0875      	lsrs	r5, r6, #1
1000347c:	2699      	movs	r6, #153	; 0x99
1000347e:	629d      	str	r5, [r3, #40]	; 0x28
10003480:	4d3e      	ldr	r5, [pc, #248]	; (1000357c <dvi_setup_scanline_for_active+0x180>)
10003482:	4025      	ands	r5, r4
10003484:	4335      	orrs	r5, r6
10003486:	4646      	mov	r6, r8
10003488:	62dd      	str	r5, [r3, #44]	; 0x2c
1000348a:	4456      	add	r6, sl
1000348c:	6905      	ldr	r5, [r0, #16]
1000348e:	445e      	add	r6, fp
10003490:	0876      	lsrs	r6, r6, #1
10003492:	086d      	lsrs	r5, r5, #1
10003494:	2a00      	cmp	r2, #0
10003496:	d052      	beq.n	1000353e <dvi_setup_scanline_for_active+0x142>
10003498:	4660      	mov	r0, ip
1000349a:	6358      	str	r0, [r3, #52]	; 0x34
1000349c:	4838      	ldr	r0, [pc, #224]	; (10003580 <dvi_setup_scanline_for_active+0x184>)
1000349e:	631a      	str	r2, [r3, #48]	; 0x30
100034a0:	4304      	orrs	r4, r0
100034a2:	639d      	str	r5, [r3, #56]	; 0x38
100034a4:	63dc      	str	r4, [r3, #60]	; 0x3c
100034a6:	69cc      	ldr	r4, [r1, #28]
100034a8:	6948      	ldr	r0, [r1, #20]
100034aa:	46a0      	mov	r8, r4
100034ac:	4f30      	ldr	r7, [pc, #192]	; (10003570 <dvi_setup_scanline_for_active+0x174>)
100034ae:	02c0      	lsls	r0, r0, #11
100034b0:	4038      	ands	r0, r7
100034b2:	4647      	mov	r7, r8
100034b4:	690c      	ldr	r4, [r1, #16]
100034b6:	03ff      	lsls	r7, r7, #15
100034b8:	46a4      	mov	ip, r4
100034ba:	4338      	orrs	r0, r7
100034bc:	4f2d      	ldr	r7, [pc, #180]	; (10003574 <dvi_setup_scanline_for_active+0x178>)
100034be:	4c2b      	ldr	r4, [pc, #172]	; (1000356c <dvi_setup_scanline_for_active+0x170>)
100034c0:	4038      	ands	r0, r7
100034c2:	4667      	mov	r7, ip
100034c4:	02ff      	lsls	r7, r7, #11
100034c6:	4338      	orrs	r0, r7
100034c8:	4f2b      	ldr	r7, [pc, #172]	; (10003578 <dvi_setup_scanline_for_active+0x17c>)
100034ca:	641c      	str	r4, [r3, #64]	; 0x40
100034cc:	698c      	ldr	r4, [r1, #24]
100034ce:	4307      	orrs	r7, r0
100034d0:	645c      	str	r4, [r3, #68]	; 0x44
100034d2:	649e      	str	r6, [r3, #72]	; 0x48
100034d4:	64df      	str	r7, [r3, #76]	; 0x4c
100034d6:	2a00      	cmp	r2, #0
100034d8:	d040      	beq.n	1000355c <dvi_setup_scanline_for_active+0x160>
100034da:	00af      	lsls	r7, r5, #2
100034dc:	46bc      	mov	ip, r7
100034de:	4494      	add	ip, r2
100034e0:	4667      	mov	r7, ip
100034e2:	655c      	str	r4, [r3, #84]	; 0x54
100034e4:	4c26      	ldr	r4, [pc, #152]	; (10003580 <dvi_setup_scanline_for_active+0x184>)
100034e6:	651f      	str	r7, [r3, #80]	; 0x50
100034e8:	4320      	orrs	r0, r4
100034ea:	659d      	str	r5, [r3, #88]	; 0x58
100034ec:	65d8      	str	r0, [r3, #92]	; 0x5c
100034ee:	6acc      	ldr	r4, [r1, #44]	; 0x2c
100034f0:	6a48      	ldr	r0, [r1, #36]	; 0x24
100034f2:	46a0      	mov	r8, r4
100034f4:	6a0c      	ldr	r4, [r1, #32]
100034f6:	46a4      	mov	ip, r4
100034f8:	4c1c      	ldr	r4, [pc, #112]	; (1000356c <dvi_setup_scanline_for_active+0x170>)
100034fa:	661c      	str	r4, [r3, #96]	; 0x60
100034fc:	6a8c      	ldr	r4, [r1, #40]	; 0x28
100034fe:	02c1      	lsls	r1, r0, #11
10003500:	481b      	ldr	r0, [pc, #108]	; (10003570 <dvi_setup_scanline_for_active+0x174>)
10003502:	665c      	str	r4, [r3, #100]	; 0x64
10003504:	4001      	ands	r1, r0
10003506:	4640      	mov	r0, r8
10003508:	03c0      	lsls	r0, r0, #15
1000350a:	4301      	orrs	r1, r0
1000350c:	4819      	ldr	r0, [pc, #100]	; (10003574 <dvi_setup_scanline_for_active+0x178>)
1000350e:	669e      	str	r6, [r3, #104]	; 0x68
10003510:	4001      	ands	r1, r0
10003512:	4660      	mov	r0, ip
10003514:	02c0      	lsls	r0, r0, #11
10003516:	4301      	orrs	r1, r0
10003518:	4817      	ldr	r0, [pc, #92]	; (10003578 <dvi_setup_scanline_for_active+0x17c>)
1000351a:	4308      	orrs	r0, r1
1000351c:	66d8      	str	r0, [r3, #108]	; 0x6c
1000351e:	2a00      	cmp	r2, #0
10003520:	d015      	beq.n	1000354e <dvi_setup_scanline_for_active+0x152>
10003522:	00e8      	lsls	r0, r5, #3
10003524:	1812      	adds	r2, r2, r0
10003526:	671a      	str	r2, [r3, #112]	; 0x70
10003528:	4a15      	ldr	r2, [pc, #84]	; (10003580 <dvi_setup_scanline_for_active+0x184>)
1000352a:	675c      	str	r4, [r3, #116]	; 0x74
1000352c:	4311      	orrs	r1, r2
1000352e:	679d      	str	r5, [r3, #120]	; 0x78
10003530:	67d9      	str	r1, [r3, #124]	; 0x7c
10003532:	bc3c      	pop	{r2, r3, r4, r5}
10003534:	4690      	mov	r8, r2
10003536:	4699      	mov	r9, r3
10003538:	46a2      	mov	sl, r4
1000353a:	46ab      	mov	fp, r5
1000353c:	bdf0      	pop	{r4, r5, r6, r7, pc}
1000353e:	4811      	ldr	r0, [pc, #68]	; (10003584 <dvi_setup_scanline_for_active+0x188>)
10003540:	639d      	str	r5, [r3, #56]	; 0x38
10003542:	6318      	str	r0, [r3, #48]	; 0x30
10003544:	4660      	mov	r0, ip
10003546:	6358      	str	r0, [r3, #52]	; 0x34
10003548:	4648      	mov	r0, r9
1000354a:	63d8      	str	r0, [r3, #60]	; 0x3c
1000354c:	e7ab      	b.n	100034a6 <dvi_setup_scanline_for_active+0xaa>
1000354e:	4a0d      	ldr	r2, [pc, #52]	; (10003584 <dvi_setup_scanline_for_active+0x188>)
10003550:	675c      	str	r4, [r3, #116]	; 0x74
10003552:	3208      	adds	r2, #8
10003554:	671a      	str	r2, [r3, #112]	; 0x70
10003556:	679d      	str	r5, [r3, #120]	; 0x78
10003558:	67d8      	str	r0, [r3, #124]	; 0x7c
1000355a:	e7ea      	b.n	10003532 <dvi_setup_scanline_for_active+0x136>
1000355c:	4809      	ldr	r0, [pc, #36]	; (10003584 <dvi_setup_scanline_for_active+0x188>)
1000355e:	655c      	str	r4, [r3, #84]	; 0x54
10003560:	3004      	adds	r0, #4
10003562:	6518      	str	r0, [r3, #80]	; 0x50
10003564:	659d      	str	r5, [r3, #88]	; 0x58
10003566:	65df      	str	r7, [r3, #92]	; 0x5c
10003568:	e7c1      	b.n	100034ee <dvi_setup_scanline_for_active+0xf2>
1000356a:	46c0      	nop			; (mov r8, r8)
1000356c:	20001160 	.word	0x20001160
10003570:	ff007ffd 	.word	0xff007ffd
10003574:	ffff87ff 	.word	0xffff87ff
10003578:	00200099 	.word	0x00200099
1000357c:	ffdfffff 	.word	0xffdfffff
10003580:	00200019 	.word	0x00200019
10003584:	2000119c 	.word	0x2000119c

10003588 <dma_claim_unused_channel>:
10003588:	b500      	push	{lr}
1000358a:	4b05      	ldr	r3, [pc, #20]	; (100035a0 <dma_claim_unused_channel+0x18>)
1000358c:	b083      	sub	sp, #12
1000358e:	0001      	movs	r1, r0
10003590:	9300      	str	r3, [sp, #0]
10003592:	2200      	movs	r2, #0
10003594:	230b      	movs	r3, #11
10003596:	4803      	ldr	r0, [pc, #12]	; (100035a4 <dma_claim_unused_channel+0x1c>)
10003598:	f7fd f99c 	bl	100008d4 <hw_claim_unused_from_range>
1000359c:	b003      	add	sp, #12
1000359e:	bd00      	pop	{pc}
100035a0:	1000441c 	.word	0x1000441c
100035a4:	2001240c 	.word	0x2001240c

100035a8 <interp_save>:
100035a8:	6803      	ldr	r3, [r0, #0]
100035aa:	600b      	str	r3, [r1, #0]
100035ac:	6843      	ldr	r3, [r0, #4]
100035ae:	604b      	str	r3, [r1, #4]
100035b0:	6883      	ldr	r3, [r0, #8]
100035b2:	608b      	str	r3, [r1, #8]
100035b4:	68c3      	ldr	r3, [r0, #12]
100035b6:	60cb      	str	r3, [r1, #12]
100035b8:	6903      	ldr	r3, [r0, #16]
100035ba:	610b      	str	r3, [r1, #16]
100035bc:	6ac3      	ldr	r3, [r0, #44]	; 0x2c
100035be:	614b      	str	r3, [r1, #20]
100035c0:	6b03      	ldr	r3, [r0, #48]	; 0x30
100035c2:	618b      	str	r3, [r1, #24]
100035c4:	4770      	bx	lr
100035c6:	46c0      	nop			; (mov r8, r8)

100035c8 <interp_restore>:
100035c8:	680b      	ldr	r3, [r1, #0]
100035ca:	6003      	str	r3, [r0, #0]
100035cc:	684b      	ldr	r3, [r1, #4]
100035ce:	6043      	str	r3, [r0, #4]
100035d0:	688b      	ldr	r3, [r1, #8]
100035d2:	6083      	str	r3, [r0, #8]
100035d4:	68cb      	ldr	r3, [r1, #12]
100035d6:	60c3      	str	r3, [r0, #12]
100035d8:	690b      	ldr	r3, [r1, #16]
100035da:	6103      	str	r3, [r0, #16]
100035dc:	694b      	ldr	r3, [r1, #20]
100035de:	62c3      	str	r3, [r0, #44]	; 0x2c
100035e0:	698b      	ldr	r3, [r1, #24]
100035e2:	6303      	str	r3, [r0, #48]	; 0x30
100035e4:	4770      	bx	lr
100035e6:	46c0      	nop			; (mov r8, r8)

100035e8 <pio_sm_claim>:
100035e8:	4b07      	ldr	r3, [pc, #28]	; (10003608 <pio_sm_claim+0x20>)
100035ea:	b510      	push	{r4, lr}
100035ec:	4298      	cmp	r0, r3
100035ee:	d004      	beq.n	100035fa <pio_sm_claim+0x12>
100035f0:	4a06      	ldr	r2, [pc, #24]	; (1000360c <pio_sm_claim+0x24>)
100035f2:	4807      	ldr	r0, [pc, #28]	; (10003610 <pio_sm_claim+0x28>)
100035f4:	f7fd f94a 	bl	1000088c <hw_claim_or_assert>
100035f8:	bd10      	pop	{r4, pc}
100035fa:	4a06      	ldr	r2, [pc, #24]	; (10003614 <pio_sm_claim+0x2c>)
100035fc:	4804      	ldr	r0, [pc, #16]	; (10003610 <pio_sm_claim+0x28>)
100035fe:	3104      	adds	r1, #4
10003600:	f7fd f944 	bl	1000088c <hw_claim_or_assert>
10003604:	e7f8      	b.n	100035f8 <pio_sm_claim+0x10>
10003606:	46c0      	nop			; (mov r8, r8)
10003608:	50300000 	.word	0x50300000
1000360c:	10004460 	.word	0x10004460
10003610:	2001240f 	.word	0x2001240f
10003614:	1000443c 	.word	0x1000443c

10003618 <pio_add_program>:
10003618:	b5f0      	push	{r4, r5, r6, r7, lr}
1000361a:	46de      	mov	lr, fp
1000361c:	4645      	mov	r5, r8
1000361e:	4657      	mov	r7, sl
10003620:	464e      	mov	r6, r9
10003622:	b5e0      	push	{r5, r6, r7, lr}
10003624:	0006      	movs	r6, r0
10003626:	b083      	sub	sp, #12
10003628:	000d      	movs	r5, r1
1000362a:	f7fd f919 	bl	10000860 <hw_claim_lock>
1000362e:	4b30      	ldr	r3, [pc, #192]	; (100036f0 <pio_add_program+0xd8>)
10003630:	792f      	ldrb	r7, [r5, #4]
10003632:	18f1      	adds	r1, r6, r3
10003634:	424b      	negs	r3, r1
10003636:	4159      	adcs	r1, r3
10003638:	4b2e      	ldr	r3, [pc, #184]	; (100036f4 <pio_add_program+0xdc>)
1000363a:	2405      	movs	r4, #5
1000363c:	4698      	mov	r8, r3
1000363e:	008b      	lsls	r3, r1, #2
10003640:	469b      	mov	fp, r3
10003642:	4643      	mov	r3, r8
10003644:	465a      	mov	r2, fp
10003646:	589b      	ldr	r3, [r3, r2]
10003648:	2220      	movs	r2, #32
1000364a:	469c      	mov	ip, r3
1000364c:	2301      	movs	r3, #1
1000364e:	40bb      	lsls	r3, r7
10003650:	9001      	str	r0, [sp, #4]
10003652:	572c      	ldrsb	r4, [r5, r4]
10003654:	3b01      	subs	r3, #1
10003656:	1bd2      	subs	r2, r2, r7
10003658:	2c00      	cmp	r4, #0
1000365a:	db32      	blt.n	100036c2 <pio_add_program+0xaa>
1000365c:	4294      	cmp	r4, r2
1000365e:	dc43      	bgt.n	100036e8 <pio_add_program+0xd0>
10003660:	40a3      	lsls	r3, r4
10003662:	4662      	mov	r2, ip
10003664:	421a      	tst	r2, r3
10003666:	d13f      	bne.n	100036e8 <pio_add_program+0xd0>
10003668:	4699      	mov	r9, r3
1000366a:	2f00      	cmp	r7, #0
1000366c:	d018      	beq.n	100036a0 <pio_add_program+0x88>
1000366e:	786b      	ldrb	r3, [r5, #1]
10003670:	782a      	ldrb	r2, [r5, #0]
10003672:	021b      	lsls	r3, r3, #8
10003674:	431a      	orrs	r2, r3
10003676:	78ab      	ldrb	r3, [r5, #2]
10003678:	041b      	lsls	r3, r3, #16
1000367a:	4313      	orrs	r3, r2
1000367c:	78ea      	ldrb	r2, [r5, #3]
1000367e:	0612      	lsls	r2, r2, #24
10003680:	431a      	orrs	r2, r3
10003682:	4692      	mov	sl, r2
10003684:	2300      	movs	r3, #0
10003686:	4651      	mov	r1, sl
10003688:	005a      	lsls	r2, r3, #1
1000368a:	5a8d      	ldrh	r5, [r1, r2]
1000368c:	0b6a      	lsrs	r2, r5, #13
1000368e:	d100      	bne.n	10003692 <pio_add_program+0x7a>
10003690:	192d      	adds	r5, r5, r4
10003692:	191a      	adds	r2, r3, r4
10003694:	3212      	adds	r2, #18
10003696:	0092      	lsls	r2, r2, #2
10003698:	3301      	adds	r3, #1
1000369a:	5195      	str	r5, [r2, r6]
1000369c:	429f      	cmp	r7, r3
1000369e:	d8f2      	bhi.n	10003686 <pio_add_program+0x6e>
100036a0:	4663      	mov	r3, ip
100036a2:	464a      	mov	r2, r9
100036a4:	4659      	mov	r1, fp
100036a6:	4313      	orrs	r3, r2
100036a8:	4642      	mov	r2, r8
100036aa:	9801      	ldr	r0, [sp, #4]
100036ac:	5053      	str	r3, [r2, r1]
100036ae:	f7fd f8e3 	bl	10000878 <hw_claim_unlock>
100036b2:	0020      	movs	r0, r4
100036b4:	b003      	add	sp, #12
100036b6:	bc3c      	pop	{r2, r3, r4, r5}
100036b8:	4690      	mov	r8, r2
100036ba:	4699      	mov	r9, r3
100036bc:	46a2      	mov	sl, r4
100036be:	46ab      	mov	fp, r5
100036c0:	bdf0      	pop	{r4, r5, r6, r7, pc}
100036c2:	2a00      	cmp	r2, #0
100036c4:	db10      	blt.n	100036e8 <pio_add_program+0xd0>
100036c6:	0019      	movs	r1, r3
100036c8:	4660      	mov	r0, ip
100036ca:	4091      	lsls	r1, r2
100036cc:	0014      	movs	r4, r2
100036ce:	4689      	mov	r9, r1
100036d0:	4201      	tst	r1, r0
100036d2:	d107      	bne.n	100036e4 <pio_add_program+0xcc>
100036d4:	e7c9      	b.n	1000366a <pio_add_program+0x52>
100036d6:	0018      	movs	r0, r3
100036d8:	4661      	mov	r1, ip
100036da:	4090      	lsls	r0, r2
100036dc:	0014      	movs	r4, r2
100036de:	4681      	mov	r9, r0
100036e0:	4208      	tst	r0, r1
100036e2:	d0c2      	beq.n	1000366a <pio_add_program+0x52>
100036e4:	3a01      	subs	r2, #1
100036e6:	d2f6      	bcs.n	100036d6 <pio_add_program+0xbe>
100036e8:	4803      	ldr	r0, [pc, #12]	; (100036f8 <pio_add_program+0xe0>)
100036ea:	f7fe fac9 	bl	10001c80 <panic>
100036ee:	46c0      	nop			; (mov r8, r8)
100036f0:	afd00000 	.word	0xafd00000
100036f4:	20012348 	.word	0x20012348
100036f8:	1000447c 	.word	0x1000447c

100036fc <pio_sm_set_pins_with_mask>:
100036fc:	b5f0      	push	{r4, r5, r6, r7, lr}
100036fe:	46de      	mov	lr, fp
10003700:	4657      	mov	r7, sl
10003702:	464e      	mov	r6, r9
10003704:	4645      	mov	r5, r8
10003706:	001c      	movs	r4, r3
10003708:	004b      	lsls	r3, r1, #1
1000370a:	b5e0      	push	{r5, r6, r7, lr}
1000370c:	468b      	mov	fp, r1
1000370e:	001d      	movs	r5, r3
10003710:	4684      	mov	ip, r0
10003712:	445d      	add	r5, fp
10003714:	00ed      	lsls	r5, r5, #3
10003716:	4465      	add	r5, ip
10003718:	002e      	movs	r6, r5
1000371a:	b085      	sub	sp, #20
1000371c:	36dc      	adds	r6, #220	; 0xdc
1000371e:	9303      	str	r3, [sp, #12]
10003720:	6833      	ldr	r3, [r6, #0]
10003722:	0017      	movs	r7, r2
10003724:	9002      	str	r0, [sp, #8]
10003726:	9301      	str	r3, [sp, #4]
10003728:	2c00      	cmp	r4, #0
1000372a:	d019      	beq.n	10003760 <pio_sm_set_pins_with_mask+0x64>
1000372c:	2380      	movs	r3, #128	; 0x80
1000372e:	04db      	lsls	r3, r3, #19
10003730:	469a      	mov	sl, r3
10003732:	2301      	movs	r3, #1
10003734:	4699      	mov	r9, r3
10003736:	23e0      	movs	r3, #224	; 0xe0
10003738:	021b      	lsls	r3, r3, #8
1000373a:	4698      	mov	r8, r3
1000373c:	35d8      	adds	r5, #216	; 0xd8
1000373e:	0020      	movs	r0, r4
10003740:	f7fe fd50 	bl	100021e4 <__wrap___ctzsi2>
10003744:	4652      	mov	r2, sl
10003746:	0143      	lsls	r3, r0, #5
10003748:	4313      	orrs	r3, r2
1000374a:	6033      	str	r3, [r6, #0]
1000374c:	003b      	movs	r3, r7
1000374e:	464a      	mov	r2, r9
10003750:	40c3      	lsrs	r3, r0
10003752:	4013      	ands	r3, r2
10003754:	4642      	mov	r2, r8
10003756:	4313      	orrs	r3, r2
10003758:	602b      	str	r3, [r5, #0]
1000375a:	1e63      	subs	r3, r4, #1
1000375c:	401c      	ands	r4, r3
1000375e:	d1ee      	bne.n	1000373e <pio_sm_set_pins_with_mask+0x42>
10003760:	9b03      	ldr	r3, [sp, #12]
10003762:	445b      	add	r3, fp
10003764:	00d8      	lsls	r0, r3, #3
10003766:	9b02      	ldr	r3, [sp, #8]
10003768:	469c      	mov	ip, r3
1000376a:	9b01      	ldr	r3, [sp, #4]
1000376c:	4460      	add	r0, ip
1000376e:	30dc      	adds	r0, #220	; 0xdc
10003770:	6003      	str	r3, [r0, #0]
10003772:	b005      	add	sp, #20
10003774:	bc3c      	pop	{r2, r3, r4, r5}
10003776:	4690      	mov	r8, r2
10003778:	4699      	mov	r9, r3
1000377a:	46a2      	mov	sl, r4
1000377c:	46ab      	mov	fp, r5
1000377e:	bdf0      	pop	{r4, r5, r6, r7, pc}

10003780 <pio_sm_set_pindirs_with_mask>:
10003780:	b5f0      	push	{r4, r5, r6, r7, lr}
10003782:	46de      	mov	lr, fp
10003784:	4657      	mov	r7, sl
10003786:	464e      	mov	r6, r9
10003788:	4645      	mov	r5, r8
1000378a:	001c      	movs	r4, r3
1000378c:	004b      	lsls	r3, r1, #1
1000378e:	b5e0      	push	{r5, r6, r7, lr}
10003790:	468b      	mov	fp, r1
10003792:	001d      	movs	r5, r3
10003794:	4684      	mov	ip, r0
10003796:	445d      	add	r5, fp
10003798:	00ed      	lsls	r5, r5, #3
1000379a:	4465      	add	r5, ip
1000379c:	002e      	movs	r6, r5
1000379e:	b085      	sub	sp, #20
100037a0:	36dc      	adds	r6, #220	; 0xdc
100037a2:	9303      	str	r3, [sp, #12]
100037a4:	6833      	ldr	r3, [r6, #0]
100037a6:	0017      	movs	r7, r2
100037a8:	9002      	str	r0, [sp, #8]
100037aa:	9301      	str	r3, [sp, #4]
100037ac:	2c00      	cmp	r4, #0
100037ae:	d018      	beq.n	100037e2 <pio_sm_set_pindirs_with_mask+0x62>
100037b0:	2380      	movs	r3, #128	; 0x80
100037b2:	04db      	lsls	r3, r3, #19
100037b4:	469a      	mov	sl, r3
100037b6:	2301      	movs	r3, #1
100037b8:	4699      	mov	r9, r3
100037ba:	4b12      	ldr	r3, [pc, #72]	; (10003804 <pio_sm_set_pindirs_with_mask+0x84>)
100037bc:	35d8      	adds	r5, #216	; 0xd8
100037be:	4698      	mov	r8, r3
100037c0:	0020      	movs	r0, r4
100037c2:	f7fe fd0f 	bl	100021e4 <__wrap___ctzsi2>
100037c6:	4652      	mov	r2, sl
100037c8:	0143      	lsls	r3, r0, #5
100037ca:	4313      	orrs	r3, r2
100037cc:	6033      	str	r3, [r6, #0]
100037ce:	003b      	movs	r3, r7
100037d0:	464a      	mov	r2, r9
100037d2:	40c3      	lsrs	r3, r0
100037d4:	4013      	ands	r3, r2
100037d6:	4642      	mov	r2, r8
100037d8:	4313      	orrs	r3, r2
100037da:	602b      	str	r3, [r5, #0]
100037dc:	1e63      	subs	r3, r4, #1
100037de:	401c      	ands	r4, r3
100037e0:	d1ee      	bne.n	100037c0 <pio_sm_set_pindirs_with_mask+0x40>
100037e2:	9b03      	ldr	r3, [sp, #12]
100037e4:	445b      	add	r3, fp
100037e6:	00d8      	lsls	r0, r3, #3
100037e8:	9b02      	ldr	r3, [sp, #8]
100037ea:	469c      	mov	ip, r3
100037ec:	9b01      	ldr	r3, [sp, #4]
100037ee:	4460      	add	r0, ip
100037f0:	30dc      	adds	r0, #220	; 0xdc
100037f2:	6003      	str	r3, [r0, #0]
100037f4:	b005      	add	sp, #20
100037f6:	bc3c      	pop	{r2, r3, r4, r5}
100037f8:	4690      	mov	r8, r2
100037fa:	4699      	mov	r9, r3
100037fc:	46a2      	mov	sl, r4
100037fe:	46ab      	mov	fp, r5
10003800:	bdf0      	pop	{r4, r5, r6, r7, pc}
10003802:	46c0      	nop			; (mov r8, r8)
10003804:	0000e080 	.word	0x0000e080

10003808 <pio_sm_init>:
10003808:	b5f0      	push	{r4, r5, r6, r7, lr}
1000380a:	2501      	movs	r5, #1
1000380c:	408d      	lsls	r5, r1
1000380e:	6804      	ldr	r4, [r0, #0]
10003810:	43ac      	bics	r4, r5
10003812:	004d      	lsls	r5, r1, #1
10003814:	6004      	str	r4, [r0, #0]
10003816:	186c      	adds	r4, r5, r1
10003818:	00e4      	lsls	r4, r4, #3
1000381a:	1904      	adds	r4, r0, r4
1000381c:	0026      	movs	r6, r4
1000381e:	36c8      	adds	r6, #200	; 0xc8
10003820:	2b00      	cmp	r3, #0
10003822:	d02a      	beq.n	1000387a <pio_sm_init+0x72>
10003824:	681f      	ldr	r7, [r3, #0]
10003826:	34dc      	adds	r4, #220	; 0xdc
10003828:	6037      	str	r7, [r6, #0]
1000382a:	685f      	ldr	r7, [r3, #4]
1000382c:	6077      	str	r7, [r6, #4]
1000382e:	689f      	ldr	r7, [r3, #8]
10003830:	68db      	ldr	r3, [r3, #12]
10003832:	60b7      	str	r7, [r6, #8]
10003834:	6023      	str	r3, [r4, #0]
10003836:	186b      	adds	r3, r5, r1
10003838:	00db      	lsls	r3, r3, #3
1000383a:	001d      	movs	r5, r3
1000383c:	2480      	movs	r4, #128	; 0x80
1000383e:	35d0      	adds	r5, #208	; 0xd0
10003840:	1945      	adds	r5, r0, r5
10003842:	0164      	lsls	r4, r4, #5
10003844:	432c      	orrs	r4, r5
10003846:	2580      	movs	r5, #128	; 0x80
10003848:	062d      	lsls	r5, r5, #24
1000384a:	6025      	str	r5, [r4, #0]
1000384c:	6025      	str	r5, [r4, #0]
1000384e:	4c11      	ldr	r4, [pc, #68]	; (10003894 <pio_sm_init+0x8c>)
10003850:	1d0d      	adds	r5, r1, #4
10003852:	408c      	lsls	r4, r1
10003854:	6084      	str	r4, [r0, #8]
10003856:	2401      	movs	r4, #1
10003858:	0027      	movs	r7, r4
1000385a:	40af      	lsls	r7, r5
1000385c:	003d      	movs	r5, r7
1000385e:	3108      	adds	r1, #8
10003860:	408c      	lsls	r4, r1
10003862:	211f      	movs	r1, #31
10003864:	6806      	ldr	r6, [r0, #0]
10003866:	400a      	ands	r2, r1
10003868:	4335      	orrs	r5, r6
1000386a:	6005      	str	r5, [r0, #0]
1000386c:	6805      	ldr	r5, [r0, #0]
1000386e:	432c      	orrs	r4, r5
10003870:	6004      	str	r4, [r0, #0]
10003872:	18c0      	adds	r0, r0, r3
10003874:	30d8      	adds	r0, #216	; 0xd8
10003876:	6002      	str	r2, [r0, #0]
10003878:	bdf0      	pop	{r4, r5, r6, r7, pc}
1000387a:	2780      	movs	r7, #128	; 0x80
1000387c:	027f      	lsls	r7, r7, #9
1000387e:	6037      	str	r7, [r6, #0]
10003880:	27f8      	movs	r7, #248	; 0xf8
10003882:	027f      	lsls	r7, r7, #9
10003884:	6077      	str	r7, [r6, #4]
10003886:	27c0      	movs	r7, #192	; 0xc0
10003888:	34dc      	adds	r4, #220	; 0xdc
1000388a:	033f      	lsls	r7, r7, #12
1000388c:	60b7      	str	r7, [r6, #8]
1000388e:	6023      	str	r3, [r4, #0]
10003890:	e7d1      	b.n	10003836 <pio_sm_init+0x2e>
10003892:	46c0      	nop			; (mov r8, r8)
10003894:	01010101 	.word	0x01010101

10003898 <calloc>:
10003898:	0003      	movs	r3, r0
1000389a:	b510      	push	{r4, lr}
1000389c:	000a      	movs	r2, r1
1000389e:	4903      	ldr	r1, [pc, #12]	; (100038ac <calloc+0x14>)
100038a0:	6808      	ldr	r0, [r1, #0]
100038a2:	0019      	movs	r1, r3
100038a4:	f000 f804 	bl	100038b0 <_calloc_r>
100038a8:	bd10      	pop	{r4, pc}
100038aa:	46c0      	nop			; (mov r8, r8)
100038ac:	20011994 	.word	0x20011994

100038b0 <_calloc_r>:
100038b0:	b510      	push	{r4, lr}
100038b2:	4351      	muls	r1, r2
100038b4:	f000 f834 	bl	10003920 <_malloc_r>
100038b8:	1e04      	subs	r4, r0, #0
100038ba:	d00e      	beq.n	100038da <_calloc_r+0x2a>
100038bc:	0003      	movs	r3, r0
100038be:	3b08      	subs	r3, #8
100038c0:	685a      	ldr	r2, [r3, #4]
100038c2:	2303      	movs	r3, #3
100038c4:	439a      	bics	r2, r3
100038c6:	3a04      	subs	r2, #4
100038c8:	2a24      	cmp	r2, #36	; 0x24
100038ca:	d815      	bhi.n	100038f8 <_calloc_r+0x48>
100038cc:	0003      	movs	r3, r0
100038ce:	2a13      	cmp	r2, #19
100038d0:	d805      	bhi.n	100038de <_calloc_r+0x2e>
100038d2:	2200      	movs	r2, #0
100038d4:	601a      	str	r2, [r3, #0]
100038d6:	605a      	str	r2, [r3, #4]
100038d8:	609a      	str	r2, [r3, #8]
100038da:	0020      	movs	r0, r4
100038dc:	bd10      	pop	{r4, pc}
100038de:	2100      	movs	r1, #0
100038e0:	3308      	adds	r3, #8
100038e2:	6001      	str	r1, [r0, #0]
100038e4:	6041      	str	r1, [r0, #4]
100038e6:	2a1b      	cmp	r2, #27
100038e8:	d9f3      	bls.n	100038d2 <_calloc_r+0x22>
100038ea:	6081      	str	r1, [r0, #8]
100038ec:	60c1      	str	r1, [r0, #12]
100038ee:	2a24      	cmp	r2, #36	; 0x24
100038f0:	d006      	beq.n	10003900 <_calloc_r+0x50>
100038f2:	0003      	movs	r3, r0
100038f4:	3310      	adds	r3, #16
100038f6:	e7ec      	b.n	100038d2 <_calloc_r+0x22>
100038f8:	2100      	movs	r1, #0
100038fa:	f7ff f82d 	bl	10002958 <__wrap_memset>
100038fe:	e7ec      	b.n	100038da <_calloc_r+0x2a>
10003900:	0003      	movs	r3, r0
10003902:	6101      	str	r1, [r0, #16]
10003904:	3318      	adds	r3, #24
10003906:	6141      	str	r1, [r0, #20]
10003908:	e7e3      	b.n	100038d2 <_calloc_r+0x22>
1000390a:	46c0      	nop			; (mov r8, r8)

1000390c <malloc>:
1000390c:	b510      	push	{r4, lr}
1000390e:	4b03      	ldr	r3, [pc, #12]	; (1000391c <malloc+0x10>)
10003910:	0001      	movs	r1, r0
10003912:	6818      	ldr	r0, [r3, #0]
10003914:	f000 f804 	bl	10003920 <_malloc_r>
10003918:	bd10      	pop	{r4, pc}
1000391a:	46c0      	nop			; (mov r8, r8)
1000391c:	20011994 	.word	0x20011994

10003920 <_malloc_r>:
10003920:	b5f0      	push	{r4, r5, r6, r7, lr}
10003922:	464e      	mov	r6, r9
10003924:	4645      	mov	r5, r8
10003926:	46de      	mov	lr, fp
10003928:	4657      	mov	r7, sl
1000392a:	b5e0      	push	{r5, r6, r7, lr}
1000392c:	000d      	movs	r5, r1
1000392e:	350b      	adds	r5, #11
10003930:	0006      	movs	r6, r0
10003932:	b083      	sub	sp, #12
10003934:	2d16      	cmp	r5, #22
10003936:	d822      	bhi.n	1000397e <_malloc_r+0x5e>
10003938:	2910      	cmp	r1, #16
1000393a:	d900      	bls.n	1000393e <_malloc_r+0x1e>
1000393c:	e0b2      	b.n	10003aa4 <_malloc_r+0x184>
1000393e:	f000 faaf 	bl	10003ea0 <__malloc_lock>
10003942:	2510      	movs	r5, #16
10003944:	2002      	movs	r0, #2
10003946:	2318      	movs	r3, #24
10003948:	4fcb      	ldr	r7, [pc, #812]	; (10003c78 <_malloc_r+0x358>)
1000394a:	18fb      	adds	r3, r7, r3
1000394c:	001a      	movs	r2, r3
1000394e:	685c      	ldr	r4, [r3, #4]
10003950:	3a08      	subs	r2, #8
10003952:	4294      	cmp	r4, r2
10003954:	d100      	bne.n	10003958 <_malloc_r+0x38>
10003956:	e0b5      	b.n	10003ac4 <_malloc_r+0x1a4>
10003958:	2303      	movs	r3, #3
1000395a:	6862      	ldr	r2, [r4, #4]
1000395c:	439a      	bics	r2, r3
1000395e:	0013      	movs	r3, r2
10003960:	68e2      	ldr	r2, [r4, #12]
10003962:	68a1      	ldr	r1, [r4, #8]
10003964:	60ca      	str	r2, [r1, #12]
10003966:	6091      	str	r1, [r2, #8]
10003968:	2201      	movs	r2, #1
1000396a:	18e3      	adds	r3, r4, r3
1000396c:	6859      	ldr	r1, [r3, #4]
1000396e:	0030      	movs	r0, r6
10003970:	430a      	orrs	r2, r1
10003972:	605a      	str	r2, [r3, #4]
10003974:	f000 fa9c 	bl	10003eb0 <__malloc_unlock>
10003978:	0020      	movs	r0, r4
1000397a:	3008      	adds	r0, #8
1000397c:	e095      	b.n	10003aaa <_malloc_r+0x18a>
1000397e:	2307      	movs	r3, #7
10003980:	439d      	bics	r5, r3
10003982:	d500      	bpl.n	10003986 <_malloc_r+0x66>
10003984:	e08e      	b.n	10003aa4 <_malloc_r+0x184>
10003986:	42a9      	cmp	r1, r5
10003988:	d900      	bls.n	1000398c <_malloc_r+0x6c>
1000398a:	e08b      	b.n	10003aa4 <_malloc_r+0x184>
1000398c:	f000 fa88 	bl	10003ea0 <__malloc_lock>
10003990:	23fc      	movs	r3, #252	; 0xfc
10003992:	005b      	lsls	r3, r3, #1
10003994:	429d      	cmp	r5, r3
10003996:	d200      	bcs.n	1000399a <_malloc_r+0x7a>
10003998:	e1a5      	b.n	10003ce6 <_malloc_r+0x3c6>
1000399a:	0a68      	lsrs	r0, r5, #9
1000399c:	d100      	bne.n	100039a0 <_malloc_r+0x80>
1000399e:	e08b      	b.n	10003ab8 <_malloc_r+0x198>
100039a0:	2804      	cmp	r0, #4
100039a2:	d900      	bls.n	100039a6 <_malloc_r+0x86>
100039a4:	e178      	b.n	10003c98 <_malloc_r+0x378>
100039a6:	2338      	movs	r3, #56	; 0x38
100039a8:	4698      	mov	r8, r3
100039aa:	09a8      	lsrs	r0, r5, #6
100039ac:	4480      	add	r8, r0
100039ae:	3039      	adds	r0, #57	; 0x39
100039b0:	00c1      	lsls	r1, r0, #3
100039b2:	4fb1      	ldr	r7, [pc, #708]	; (10003c78 <_malloc_r+0x358>)
100039b4:	1879      	adds	r1, r7, r1
100039b6:	684c      	ldr	r4, [r1, #4]
100039b8:	3908      	subs	r1, #8
100039ba:	42a1      	cmp	r1, r4
100039bc:	d00e      	beq.n	100039dc <_malloc_r+0xbc>
100039be:	2303      	movs	r3, #3
100039c0:	469c      	mov	ip, r3
100039c2:	e004      	b.n	100039ce <_malloc_r+0xae>
100039c4:	2a00      	cmp	r2, #0
100039c6:	dacb      	bge.n	10003960 <_malloc_r+0x40>
100039c8:	68e4      	ldr	r4, [r4, #12]
100039ca:	42a1      	cmp	r1, r4
100039cc:	d006      	beq.n	100039dc <_malloc_r+0xbc>
100039ce:	4662      	mov	r2, ip
100039d0:	6863      	ldr	r3, [r4, #4]
100039d2:	4393      	bics	r3, r2
100039d4:	1b5a      	subs	r2, r3, r5
100039d6:	2a0f      	cmp	r2, #15
100039d8:	ddf4      	ble.n	100039c4 <_malloc_r+0xa4>
100039da:	4640      	mov	r0, r8
100039dc:	003a      	movs	r2, r7
100039de:	693c      	ldr	r4, [r7, #16]
100039e0:	3208      	adds	r2, #8
100039e2:	4294      	cmp	r4, r2
100039e4:	d100      	bne.n	100039e8 <_malloc_r+0xc8>
100039e6:	e078      	b.n	10003ada <_malloc_r+0x1ba>
100039e8:	2303      	movs	r3, #3
100039ea:	6861      	ldr	r1, [r4, #4]
100039ec:	4399      	bics	r1, r3
100039ee:	4689      	mov	r9, r1
100039f0:	000b      	movs	r3, r1
100039f2:	1b49      	subs	r1, r1, r5
100039f4:	290f      	cmp	r1, #15
100039f6:	dd00      	ble.n	100039fa <_malloc_r+0xda>
100039f8:	e179      	b.n	10003cee <_malloc_r+0x3ce>
100039fa:	617a      	str	r2, [r7, #20]
100039fc:	613a      	str	r2, [r7, #16]
100039fe:	2900      	cmp	r1, #0
10003a00:	dab2      	bge.n	10003968 <_malloc_r+0x48>
10003a02:	2280      	movs	r2, #128	; 0x80
10003a04:	0092      	lsls	r2, r2, #2
10003a06:	4591      	cmp	r9, r2
10003a08:	d300      	bcc.n	10003a0c <_malloc_r+0xec>
10003a0a:	e10e      	b.n	10003c2a <_malloc_r+0x30a>
10003a0c:	0959      	lsrs	r1, r3, #5
10003a0e:	08da      	lsrs	r2, r3, #3
10003a10:	2301      	movs	r3, #1
10003a12:	408b      	lsls	r3, r1
10003a14:	00d2      	lsls	r2, r2, #3
10003a16:	6879      	ldr	r1, [r7, #4]
10003a18:	19d2      	adds	r2, r2, r7
10003a1a:	430b      	orrs	r3, r1
10003a1c:	6891      	ldr	r1, [r2, #8]
10003a1e:	607b      	str	r3, [r7, #4]
10003a20:	60e2      	str	r2, [r4, #12]
10003a22:	60a1      	str	r1, [r4, #8]
10003a24:	6094      	str	r4, [r2, #8]
10003a26:	60cc      	str	r4, [r1, #12]
10003a28:	2101      	movs	r1, #1
10003a2a:	1082      	asrs	r2, r0, #2
10003a2c:	4091      	lsls	r1, r2
10003a2e:	4299      	cmp	r1, r3
10003a30:	d859      	bhi.n	10003ae6 <_malloc_r+0x1c6>
10003a32:	420b      	tst	r3, r1
10003a34:	d105      	bne.n	10003a42 <_malloc_r+0x122>
10003a36:	2203      	movs	r2, #3
10003a38:	4390      	bics	r0, r2
10003a3a:	0049      	lsls	r1, r1, #1
10003a3c:	3004      	adds	r0, #4
10003a3e:	420b      	tst	r3, r1
10003a40:	d0fb      	beq.n	10003a3a <_malloc_r+0x11a>
10003a42:	2303      	movs	r3, #3
10003a44:	4698      	mov	r8, r3
10003a46:	00c3      	lsls	r3, r0, #3
10003a48:	4699      	mov	r9, r3
10003a4a:	44b9      	add	r9, r7
10003a4c:	46cc      	mov	ip, r9
10003a4e:	4682      	mov	sl, r0
10003a50:	4663      	mov	r3, ip
10003a52:	68dc      	ldr	r4, [r3, #12]
10003a54:	45a4      	cmp	ip, r4
10003a56:	d107      	bne.n	10003a68 <_malloc_r+0x148>
10003a58:	e12a      	b.n	10003cb0 <_malloc_r+0x390>
10003a5a:	2a00      	cmp	r2, #0
10003a5c:	db00      	blt.n	10003a60 <_malloc_r+0x140>
10003a5e:	e133      	b.n	10003cc8 <_malloc_r+0x3a8>
10003a60:	68e4      	ldr	r4, [r4, #12]
10003a62:	45a4      	cmp	ip, r4
10003a64:	d100      	bne.n	10003a68 <_malloc_r+0x148>
10003a66:	e123      	b.n	10003cb0 <_malloc_r+0x390>
10003a68:	4642      	mov	r2, r8
10003a6a:	6863      	ldr	r3, [r4, #4]
10003a6c:	4393      	bics	r3, r2
10003a6e:	1b5a      	subs	r2, r3, r5
10003a70:	2a0f      	cmp	r2, #15
10003a72:	ddf2      	ble.n	10003a5a <_malloc_r+0x13a>
10003a74:	2001      	movs	r0, #1
10003a76:	4680      	mov	r8, r0
10003a78:	1961      	adds	r1, r4, r5
10003a7a:	4305      	orrs	r5, r0
10003a7c:	6065      	str	r5, [r4, #4]
10003a7e:	68a0      	ldr	r0, [r4, #8]
10003a80:	68e5      	ldr	r5, [r4, #12]
10003a82:	3708      	adds	r7, #8
10003a84:	60c5      	str	r5, [r0, #12]
10003a86:	60a8      	str	r0, [r5, #8]
10003a88:	4640      	mov	r0, r8
10003a8a:	4310      	orrs	r0, r2
10003a8c:	60f9      	str	r1, [r7, #12]
10003a8e:	60b9      	str	r1, [r7, #8]
10003a90:	6048      	str	r0, [r1, #4]
10003a92:	60cf      	str	r7, [r1, #12]
10003a94:	0030      	movs	r0, r6
10003a96:	608f      	str	r7, [r1, #8]
10003a98:	50e2      	str	r2, [r4, r3]
10003a9a:	f000 fa09 	bl	10003eb0 <__malloc_unlock>
10003a9e:	0020      	movs	r0, r4
10003aa0:	3008      	adds	r0, #8
10003aa2:	e002      	b.n	10003aaa <_malloc_r+0x18a>
10003aa4:	230c      	movs	r3, #12
10003aa6:	2000      	movs	r0, #0
10003aa8:	6033      	str	r3, [r6, #0]
10003aaa:	b003      	add	sp, #12
10003aac:	bc3c      	pop	{r2, r3, r4, r5}
10003aae:	4690      	mov	r8, r2
10003ab0:	4699      	mov	r9, r3
10003ab2:	46a2      	mov	sl, r4
10003ab4:	46ab      	mov	fp, r5
10003ab6:	bdf0      	pop	{r4, r5, r6, r7, pc}
10003ab8:	2180      	movs	r1, #128	; 0x80
10003aba:	233f      	movs	r3, #63	; 0x3f
10003abc:	2040      	movs	r0, #64	; 0x40
10003abe:	4698      	mov	r8, r3
10003ac0:	0089      	lsls	r1, r1, #2
10003ac2:	e776      	b.n	100039b2 <_malloc_r+0x92>
10003ac4:	68dc      	ldr	r4, [r3, #12]
10003ac6:	3002      	adds	r0, #2
10003ac8:	42a3      	cmp	r3, r4
10003aca:	d000      	beq.n	10003ace <_malloc_r+0x1ae>
10003acc:	e744      	b.n	10003958 <_malloc_r+0x38>
10003ace:	003a      	movs	r2, r7
10003ad0:	693c      	ldr	r4, [r7, #16]
10003ad2:	3208      	adds	r2, #8
10003ad4:	4294      	cmp	r4, r2
10003ad6:	d000      	beq.n	10003ada <_malloc_r+0x1ba>
10003ad8:	e786      	b.n	100039e8 <_malloc_r+0xc8>
10003ada:	2101      	movs	r1, #1
10003adc:	687b      	ldr	r3, [r7, #4]
10003ade:	1082      	asrs	r2, r0, #2
10003ae0:	4091      	lsls	r1, r2
10003ae2:	4299      	cmp	r1, r3
10003ae4:	d9a5      	bls.n	10003a32 <_malloc_r+0x112>
10003ae6:	2303      	movs	r3, #3
10003ae8:	68bc      	ldr	r4, [r7, #8]
10003aea:	6862      	ldr	r2, [r4, #4]
10003aec:	439a      	bics	r2, r3
10003aee:	4691      	mov	r9, r2
10003af0:	4295      	cmp	r5, r2
10003af2:	d803      	bhi.n	10003afc <_malloc_r+0x1dc>
10003af4:	1b53      	subs	r3, r2, r5
10003af6:	2b0f      	cmp	r3, #15
10003af8:	dd00      	ble.n	10003afc <_malloc_r+0x1dc>
10003afa:	e088      	b.n	10003c0e <_malloc_r+0x2ee>
10003afc:	0023      	movs	r3, r4
10003afe:	444b      	add	r3, r9
10003b00:	4a5e      	ldr	r2, [pc, #376]	; (10003c7c <_malloc_r+0x35c>)
10003b02:	9301      	str	r3, [sp, #4]
10003b04:	4b5e      	ldr	r3, [pc, #376]	; (10003c80 <_malloc_r+0x360>)
10003b06:	4693      	mov	fp, r2
10003b08:	681b      	ldr	r3, [r3, #0]
10003b0a:	6812      	ldr	r2, [r2, #0]
10003b0c:	18eb      	adds	r3, r5, r3
10003b0e:	3201      	adds	r2, #1
10003b10:	d100      	bne.n	10003b14 <_malloc_r+0x1f4>
10003b12:	e13b      	b.n	10003d8c <_malloc_r+0x46c>
10003b14:	4a5b      	ldr	r2, [pc, #364]	; (10003c84 <_malloc_r+0x364>)
10003b16:	4694      	mov	ip, r2
10003b18:	4463      	add	r3, ip
10003b1a:	0b1b      	lsrs	r3, r3, #12
10003b1c:	031b      	lsls	r3, r3, #12
10003b1e:	9300      	str	r3, [sp, #0]
10003b20:	0030      	movs	r0, r6
10003b22:	9900      	ldr	r1, [sp, #0]
10003b24:	f000 f9e6 	bl	10003ef4 <_sbrk_r>
10003b28:	0003      	movs	r3, r0
10003b2a:	4680      	mov	r8, r0
10003b2c:	3301      	adds	r3, #1
10003b2e:	d100      	bne.n	10003b32 <_malloc_r+0x212>
10003b30:	e0f8      	b.n	10003d24 <_malloc_r+0x404>
10003b32:	9b01      	ldr	r3, [sp, #4]
10003b34:	4283      	cmp	r3, r0
10003b36:	d900      	bls.n	10003b3a <_malloc_r+0x21a>
10003b38:	e0f2      	b.n	10003d20 <_malloc_r+0x400>
10003b3a:	4b53      	ldr	r3, [pc, #332]	; (10003c88 <_malloc_r+0x368>)
10003b3c:	0019      	movs	r1, r3
10003b3e:	469a      	mov	sl, r3
10003b40:	6809      	ldr	r1, [r1, #0]
10003b42:	9b00      	ldr	r3, [sp, #0]
10003b44:	468c      	mov	ip, r1
10003b46:	4651      	mov	r1, sl
10003b48:	4463      	add	r3, ip
10003b4a:	600b      	str	r3, [r1, #0]
10003b4c:	9901      	ldr	r1, [sp, #4]
10003b4e:	001a      	movs	r2, r3
10003b50:	4281      	cmp	r1, r0
10003b52:	d100      	bne.n	10003b56 <_malloc_r+0x236>
10003b54:	e150      	b.n	10003df8 <_malloc_r+0x4d8>
10003b56:	465b      	mov	r3, fp
10003b58:	681b      	ldr	r3, [r3, #0]
10003b5a:	3301      	adds	r3, #1
10003b5c:	d100      	bne.n	10003b60 <_malloc_r+0x240>
10003b5e:	e155      	b.n	10003e0c <_malloc_r+0x4ec>
10003b60:	4643      	mov	r3, r8
10003b62:	9901      	ldr	r1, [sp, #4]
10003b64:	1a5b      	subs	r3, r3, r1
10003b66:	189a      	adds	r2, r3, r2
10003b68:	4653      	mov	r3, sl
10003b6a:	601a      	str	r2, [r3, #0]
10003b6c:	2307      	movs	r3, #7
10003b6e:	4642      	mov	r2, r8
10003b70:	4641      	mov	r1, r8
10003b72:	401a      	ands	r2, r3
10003b74:	9201      	str	r2, [sp, #4]
10003b76:	4219      	tst	r1, r3
10003b78:	d100      	bne.n	10003b7c <_malloc_r+0x25c>
10003b7a:	e111      	b.n	10003da0 <_malloc_r+0x480>
10003b7c:	2308      	movs	r3, #8
10003b7e:	4698      	mov	r8, r3
10003b80:	1a88      	subs	r0, r1, r2
10003b82:	4b42      	ldr	r3, [pc, #264]	; (10003c8c <_malloc_r+0x36c>)
10003b84:	9900      	ldr	r1, [sp, #0]
10003b86:	4480      	add	r8, r0
10003b88:	4441      	add	r1, r8
10003b8a:	1a9b      	subs	r3, r3, r2
10003b8c:	1a5b      	subs	r3, r3, r1
10003b8e:	051b      	lsls	r3, r3, #20
10003b90:	0d1b      	lsrs	r3, r3, #20
10003b92:	9100      	str	r1, [sp, #0]
10003b94:	0030      	movs	r0, r6
10003b96:	0019      	movs	r1, r3
10003b98:	469b      	mov	fp, r3
10003b9a:	f000 f9ab 	bl	10003ef4 <_sbrk_r>
10003b9e:	1c43      	adds	r3, r0, #1
10003ba0:	d100      	bne.n	10003ba4 <_malloc_r+0x284>
10003ba2:	e14f      	b.n	10003e44 <_malloc_r+0x524>
10003ba4:	4643      	mov	r3, r8
10003ba6:	1ac0      	subs	r0, r0, r3
10003ba8:	0003      	movs	r3, r0
10003baa:	445b      	add	r3, fp
10003bac:	9300      	str	r3, [sp, #0]
10003bae:	4653      	mov	r3, sl
10003bb0:	4652      	mov	r2, sl
10003bb2:	681b      	ldr	r3, [r3, #0]
10003bb4:	2101      	movs	r1, #1
10003bb6:	445b      	add	r3, fp
10003bb8:	6013      	str	r3, [r2, #0]
10003bba:	4642      	mov	r2, r8
10003bbc:	4640      	mov	r0, r8
10003bbe:	60ba      	str	r2, [r7, #8]
10003bc0:	9a00      	ldr	r2, [sp, #0]
10003bc2:	430a      	orrs	r2, r1
10003bc4:	6042      	str	r2, [r0, #4]
10003bc6:	42bc      	cmp	r4, r7
10003bc8:	d100      	bne.n	10003bcc <_malloc_r+0x2ac>
10003bca:	e123      	b.n	10003e14 <_malloc_r+0x4f4>
10003bcc:	464a      	mov	r2, r9
10003bce:	2a0f      	cmp	r2, #15
10003bd0:	d800      	bhi.n	10003bd4 <_malloc_r+0x2b4>
10003bd2:	e121      	b.n	10003e18 <_malloc_r+0x4f8>
10003bd4:	2007      	movs	r0, #7
10003bd6:	3a0c      	subs	r2, #12
10003bd8:	4382      	bics	r2, r0
10003bda:	6860      	ldr	r0, [r4, #4]
10003bdc:	4001      	ands	r1, r0
10003bde:	2005      	movs	r0, #5
10003be0:	4311      	orrs	r1, r2
10003be2:	6061      	str	r1, [r4, #4]
10003be4:	18a1      	adds	r1, r4, r2
10003be6:	6048      	str	r0, [r1, #4]
10003be8:	6088      	str	r0, [r1, #8]
10003bea:	2a0f      	cmp	r2, #15
10003bec:	d900      	bls.n	10003bf0 <_malloc_r+0x2d0>
10003bee:	e134      	b.n	10003e5a <_malloc_r+0x53a>
10003bf0:	4642      	mov	r2, r8
10003bf2:	4644      	mov	r4, r8
10003bf4:	6852      	ldr	r2, [r2, #4]
10003bf6:	4926      	ldr	r1, [pc, #152]	; (10003c90 <_malloc_r+0x370>)
10003bf8:	6808      	ldr	r0, [r1, #0]
10003bfa:	4298      	cmp	r0, r3
10003bfc:	d200      	bcs.n	10003c00 <_malloc_r+0x2e0>
10003bfe:	600b      	str	r3, [r1, #0]
10003c00:	4924      	ldr	r1, [pc, #144]	; (10003c94 <_malloc_r+0x374>)
10003c02:	6808      	ldr	r0, [r1, #0]
10003c04:	4298      	cmp	r0, r3
10003c06:	d300      	bcc.n	10003c0a <_malloc_r+0x2ea>
10003c08:	e08e      	b.n	10003d28 <_malloc_r+0x408>
10003c0a:	600b      	str	r3, [r1, #0]
10003c0c:	e08c      	b.n	10003d28 <_malloc_r+0x408>
10003c0e:	2201      	movs	r2, #1
10003c10:	0029      	movs	r1, r5
10003c12:	4313      	orrs	r3, r2
10003c14:	4311      	orrs	r1, r2
10003c16:	1965      	adds	r5, r4, r5
10003c18:	6061      	str	r1, [r4, #4]
10003c1a:	0030      	movs	r0, r6
10003c1c:	60bd      	str	r5, [r7, #8]
10003c1e:	606b      	str	r3, [r5, #4]
10003c20:	f000 f946 	bl	10003eb0 <__malloc_unlock>
10003c24:	0020      	movs	r0, r4
10003c26:	3008      	adds	r0, #8
10003c28:	e73f      	b.n	10003aaa <_malloc_r+0x18a>
10003c2a:	0a5a      	lsrs	r2, r3, #9
10003c2c:	2a04      	cmp	r2, #4
10003c2e:	d971      	bls.n	10003d14 <_malloc_r+0x3f4>
10003c30:	2a14      	cmp	r2, #20
10003c32:	d900      	bls.n	10003c36 <_malloc_r+0x316>
10003c34:	e0c4      	b.n	10003dc0 <_malloc_r+0x4a0>
10003c36:	0011      	movs	r1, r2
10003c38:	325c      	adds	r2, #92	; 0x5c
10003c3a:	315b      	adds	r1, #91	; 0x5b
10003c3c:	00d2      	lsls	r2, r2, #3
10003c3e:	2308      	movs	r3, #8
10003c40:	425b      	negs	r3, r3
10003c42:	469c      	mov	ip, r3
10003c44:	18ba      	adds	r2, r7, r2
10003c46:	4494      	add	ip, r2
10003c48:	4663      	mov	r3, ip
10003c4a:	689a      	ldr	r2, [r3, #8]
10003c4c:	2303      	movs	r3, #3
10003c4e:	4698      	mov	r8, r3
10003c50:	4594      	cmp	ip, r2
10003c52:	d100      	bne.n	10003c56 <_malloc_r+0x336>
10003c54:	e09d      	b.n	10003d92 <_malloc_r+0x472>
10003c56:	4643      	mov	r3, r8
10003c58:	6851      	ldr	r1, [r2, #4]
10003c5a:	4399      	bics	r1, r3
10003c5c:	4549      	cmp	r1, r9
10003c5e:	d902      	bls.n	10003c66 <_malloc_r+0x346>
10003c60:	6892      	ldr	r2, [r2, #8]
10003c62:	4594      	cmp	ip, r2
10003c64:	d1f7      	bne.n	10003c56 <_malloc_r+0x336>
10003c66:	68d3      	ldr	r3, [r2, #12]
10003c68:	469c      	mov	ip, r3
10003c6a:	687b      	ldr	r3, [r7, #4]
10003c6c:	4661      	mov	r1, ip
10003c6e:	60a2      	str	r2, [r4, #8]
10003c70:	60e1      	str	r1, [r4, #12]
10003c72:	608c      	str	r4, [r1, #8]
10003c74:	60d4      	str	r4, [r2, #12]
10003c76:	e6d7      	b.n	10003a28 <_malloc_r+0x108>
10003c78:	20011dc0 	.word	0x20011dc0
10003c7c:	200121c8 	.word	0x200121c8
10003c80:	20012344 	.word	0x20012344
10003c84:	0000100f 	.word	0x0000100f
10003c88:	20012314 	.word	0x20012314
10003c8c:	00001008 	.word	0x00001008
10003c90:	2001233c 	.word	0x2001233c
10003c94:	20012340 	.word	0x20012340
10003c98:	2814      	cmp	r0, #20
10003c9a:	d952      	bls.n	10003d42 <_malloc_r+0x422>
10003c9c:	2854      	cmp	r0, #84	; 0x54
10003c9e:	d900      	bls.n	10003ca2 <_malloc_r+0x382>
10003ca0:	e096      	b.n	10003dd0 <_malloc_r+0x4b0>
10003ca2:	236e      	movs	r3, #110	; 0x6e
10003ca4:	4698      	mov	r8, r3
10003ca6:	0b28      	lsrs	r0, r5, #12
10003ca8:	4480      	add	r8, r0
10003caa:	306f      	adds	r0, #111	; 0x6f
10003cac:	00c1      	lsls	r1, r0, #3
10003cae:	e680      	b.n	100039b2 <_malloc_r+0x92>
10003cb0:	2308      	movs	r3, #8
10003cb2:	469b      	mov	fp, r3
10003cb4:	3b07      	subs	r3, #7
10003cb6:	44dc      	add	ip, fp
10003cb8:	469b      	mov	fp, r3
10003cba:	44da      	add	sl, fp
10003cbc:	4643      	mov	r3, r8
10003cbe:	4652      	mov	r2, sl
10003cc0:	4213      	tst	r3, r2
10003cc2:	d000      	beq.n	10003cc6 <_malloc_r+0x3a6>
10003cc4:	e6c4      	b.n	10003a50 <_malloc_r+0x130>
10003cc6:	e04c      	b.n	10003d62 <_malloc_r+0x442>
10003cc8:	2201      	movs	r2, #1
10003cca:	18e3      	adds	r3, r4, r3
10003ccc:	6859      	ldr	r1, [r3, #4]
10003cce:	0030      	movs	r0, r6
10003cd0:	430a      	orrs	r2, r1
10003cd2:	605a      	str	r2, [r3, #4]
10003cd4:	68e3      	ldr	r3, [r4, #12]
10003cd6:	68a2      	ldr	r2, [r4, #8]
10003cd8:	60d3      	str	r3, [r2, #12]
10003cda:	609a      	str	r2, [r3, #8]
10003cdc:	f000 f8e8 	bl	10003eb0 <__malloc_unlock>
10003ce0:	0020      	movs	r0, r4
10003ce2:	3008      	adds	r0, #8
10003ce4:	e6e1      	b.n	10003aaa <_malloc_r+0x18a>
10003ce6:	002b      	movs	r3, r5
10003ce8:	08e8      	lsrs	r0, r5, #3
10003cea:	3308      	adds	r3, #8
10003cec:	e62c      	b.n	10003948 <_malloc_r+0x28>
10003cee:	2301      	movs	r3, #1
10003cf0:	1960      	adds	r0, r4, r5
10003cf2:	431d      	orrs	r5, r3
10003cf4:	6065      	str	r5, [r4, #4]
10003cf6:	6178      	str	r0, [r7, #20]
10003cf8:	6138      	str	r0, [r7, #16]
10003cfa:	60c2      	str	r2, [r0, #12]
10003cfc:	6082      	str	r2, [r0, #8]
10003cfe:	001a      	movs	r2, r3
10003d00:	464b      	mov	r3, r9
10003d02:	430a      	orrs	r2, r1
10003d04:	6042      	str	r2, [r0, #4]
10003d06:	0030      	movs	r0, r6
10003d08:	50e1      	str	r1, [r4, r3]
10003d0a:	f000 f8d1 	bl	10003eb0 <__malloc_unlock>
10003d0e:	0020      	movs	r0, r4
10003d10:	3008      	adds	r0, #8
10003d12:	e6ca      	b.n	10003aaa <_malloc_r+0x18a>
10003d14:	099a      	lsrs	r2, r3, #6
10003d16:	0011      	movs	r1, r2
10003d18:	3239      	adds	r2, #57	; 0x39
10003d1a:	3138      	adds	r1, #56	; 0x38
10003d1c:	00d2      	lsls	r2, r2, #3
10003d1e:	e78e      	b.n	10003c3e <_malloc_r+0x31e>
10003d20:	42bc      	cmp	r4, r7
10003d22:	d060      	beq.n	10003de6 <_malloc_r+0x4c6>
10003d24:	68bc      	ldr	r4, [r7, #8]
10003d26:	6862      	ldr	r2, [r4, #4]
10003d28:	2303      	movs	r3, #3
10003d2a:	439a      	bics	r2, r3
10003d2c:	1b53      	subs	r3, r2, r5
10003d2e:	4295      	cmp	r5, r2
10003d30:	d802      	bhi.n	10003d38 <_malloc_r+0x418>
10003d32:	2b0f      	cmp	r3, #15
10003d34:	dd00      	ble.n	10003d38 <_malloc_r+0x418>
10003d36:	e76a      	b.n	10003c0e <_malloc_r+0x2ee>
10003d38:	0030      	movs	r0, r6
10003d3a:	f000 f8b9 	bl	10003eb0 <__malloc_unlock>
10003d3e:	2000      	movs	r0, #0
10003d40:	e6b3      	b.n	10003aaa <_malloc_r+0x18a>
10003d42:	235b      	movs	r3, #91	; 0x5b
10003d44:	4698      	mov	r8, r3
10003d46:	4480      	add	r8, r0
10003d48:	305c      	adds	r0, #92	; 0x5c
10003d4a:	00c1      	lsls	r1, r0, #3
10003d4c:	e631      	b.n	100039b2 <_malloc_r+0x92>
10003d4e:	2308      	movs	r3, #8
10003d50:	425b      	negs	r3, r3
10003d52:	469c      	mov	ip, r3
10003d54:	44e1      	add	r9, ip
10003d56:	464b      	mov	r3, r9
10003d58:	689b      	ldr	r3, [r3, #8]
10003d5a:	3801      	subs	r0, #1
10003d5c:	454b      	cmp	r3, r9
10003d5e:	d000      	beq.n	10003d62 <_malloc_r+0x442>
10003d60:	e098      	b.n	10003e94 <_malloc_r+0x574>
10003d62:	4643      	mov	r3, r8
10003d64:	4203      	tst	r3, r0
10003d66:	d1f2      	bne.n	10003d4e <_malloc_r+0x42e>
10003d68:	687b      	ldr	r3, [r7, #4]
10003d6a:	438b      	bics	r3, r1
10003d6c:	607b      	str	r3, [r7, #4]
10003d6e:	0049      	lsls	r1, r1, #1
10003d70:	4299      	cmp	r1, r3
10003d72:	d900      	bls.n	10003d76 <_malloc_r+0x456>
10003d74:	e6b7      	b.n	10003ae6 <_malloc_r+0x1c6>
10003d76:	2900      	cmp	r1, #0
10003d78:	d104      	bne.n	10003d84 <_malloc_r+0x464>
10003d7a:	e6b4      	b.n	10003ae6 <_malloc_r+0x1c6>
10003d7c:	2204      	movs	r2, #4
10003d7e:	4694      	mov	ip, r2
10003d80:	0049      	lsls	r1, r1, #1
10003d82:	44e2      	add	sl, ip
10003d84:	420b      	tst	r3, r1
10003d86:	d0f9      	beq.n	10003d7c <_malloc_r+0x45c>
10003d88:	4650      	mov	r0, sl
10003d8a:	e65c      	b.n	10003a46 <_malloc_r+0x126>
10003d8c:	3310      	adds	r3, #16
10003d8e:	9300      	str	r3, [sp, #0]
10003d90:	e6c6      	b.n	10003b20 <_malloc_r+0x200>
10003d92:	1089      	asrs	r1, r1, #2
10003d94:	3b02      	subs	r3, #2
10003d96:	408b      	lsls	r3, r1
10003d98:	6879      	ldr	r1, [r7, #4]
10003d9a:	430b      	orrs	r3, r1
10003d9c:	607b      	str	r3, [r7, #4]
10003d9e:	e765      	b.n	10003c6c <_malloc_r+0x34c>
10003da0:	9b00      	ldr	r3, [sp, #0]
10003da2:	0030      	movs	r0, r6
10003da4:	4443      	add	r3, r8
10003da6:	425b      	negs	r3, r3
10003da8:	051b      	lsls	r3, r3, #20
10003daa:	0d1b      	lsrs	r3, r3, #20
10003dac:	0019      	movs	r1, r3
10003dae:	469b      	mov	fp, r3
10003db0:	f000 f8a0 	bl	10003ef4 <_sbrk_r>
10003db4:	1c43      	adds	r3, r0, #1
10003db6:	d000      	beq.n	10003dba <_malloc_r+0x49a>
10003db8:	e6f4      	b.n	10003ba4 <_malloc_r+0x284>
10003dba:	2300      	movs	r3, #0
10003dbc:	469b      	mov	fp, r3
10003dbe:	e6f6      	b.n	10003bae <_malloc_r+0x28e>
10003dc0:	2a54      	cmp	r2, #84	; 0x54
10003dc2:	d82b      	bhi.n	10003e1c <_malloc_r+0x4fc>
10003dc4:	0b1a      	lsrs	r2, r3, #12
10003dc6:	0011      	movs	r1, r2
10003dc8:	326f      	adds	r2, #111	; 0x6f
10003dca:	316e      	adds	r1, #110	; 0x6e
10003dcc:	00d2      	lsls	r2, r2, #3
10003dce:	e736      	b.n	10003c3e <_malloc_r+0x31e>
10003dd0:	23aa      	movs	r3, #170	; 0xaa
10003dd2:	005b      	lsls	r3, r3, #1
10003dd4:	4298      	cmp	r0, r3
10003dd6:	d82b      	bhi.n	10003e30 <_malloc_r+0x510>
10003dd8:	3bdd      	subs	r3, #221	; 0xdd
10003dda:	4698      	mov	r8, r3
10003ddc:	0be8      	lsrs	r0, r5, #15
10003dde:	4480      	add	r8, r0
10003de0:	3078      	adds	r0, #120	; 0x78
10003de2:	00c1      	lsls	r1, r0, #3
10003de4:	e5e5      	b.n	100039b2 <_malloc_r+0x92>
10003de6:	4b2c      	ldr	r3, [pc, #176]	; (10003e98 <_malloc_r+0x578>)
10003de8:	9a00      	ldr	r2, [sp, #0]
10003dea:	469a      	mov	sl, r3
10003dec:	681b      	ldr	r3, [r3, #0]
10003dee:	469c      	mov	ip, r3
10003df0:	4653      	mov	r3, sl
10003df2:	4462      	add	r2, ip
10003df4:	601a      	str	r2, [r3, #0]
10003df6:	e6ae      	b.n	10003b56 <_malloc_r+0x236>
10003df8:	0509      	lsls	r1, r1, #20
10003dfa:	d000      	beq.n	10003dfe <_malloc_r+0x4de>
10003dfc:	e6ab      	b.n	10003b56 <_malloc_r+0x236>
10003dfe:	9a00      	ldr	r2, [sp, #0]
10003e00:	68bc      	ldr	r4, [r7, #8]
10003e02:	444a      	add	r2, r9
10003e04:	3101      	adds	r1, #1
10003e06:	430a      	orrs	r2, r1
10003e08:	6062      	str	r2, [r4, #4]
10003e0a:	e6f4      	b.n	10003bf6 <_malloc_r+0x2d6>
10003e0c:	465b      	mov	r3, fp
10003e0e:	4642      	mov	r2, r8
10003e10:	601a      	str	r2, [r3, #0]
10003e12:	e6ab      	b.n	10003b6c <_malloc_r+0x24c>
10003e14:	4644      	mov	r4, r8
10003e16:	e6ee      	b.n	10003bf6 <_malloc_r+0x2d6>
10003e18:	6041      	str	r1, [r0, #4]
10003e1a:	e78d      	b.n	10003d38 <_malloc_r+0x418>
10003e1c:	21aa      	movs	r1, #170	; 0xaa
10003e1e:	0049      	lsls	r1, r1, #1
10003e20:	428a      	cmp	r2, r1
10003e22:	d824      	bhi.n	10003e6e <_malloc_r+0x54e>
10003e24:	0bda      	lsrs	r2, r3, #15
10003e26:	0011      	movs	r1, r2
10003e28:	3278      	adds	r2, #120	; 0x78
10003e2a:	3177      	adds	r1, #119	; 0x77
10003e2c:	00d2      	lsls	r2, r2, #3
10003e2e:	e706      	b.n	10003c3e <_malloc_r+0x31e>
10003e30:	4b1a      	ldr	r3, [pc, #104]	; (10003e9c <_malloc_r+0x57c>)
10003e32:	4298      	cmp	r0, r3
10003e34:	d824      	bhi.n	10003e80 <_malloc_r+0x560>
10003e36:	237c      	movs	r3, #124	; 0x7c
10003e38:	4698      	mov	r8, r3
10003e3a:	0ca8      	lsrs	r0, r5, #18
10003e3c:	4480      	add	r8, r0
10003e3e:	307d      	adds	r0, #125	; 0x7d
10003e40:	00c1      	lsls	r1, r0, #3
10003e42:	e5b6      	b.n	100039b2 <_malloc_r+0x92>
10003e44:	9a00      	ldr	r2, [sp, #0]
10003e46:	9b01      	ldr	r3, [sp, #4]
10003e48:	4694      	mov	ip, r2
10003e4a:	4642      	mov	r2, r8
10003e4c:	3b08      	subs	r3, #8
10003e4e:	4463      	add	r3, ip
10003e50:	1a9b      	subs	r3, r3, r2
10003e52:	9300      	str	r3, [sp, #0]
10003e54:	2300      	movs	r3, #0
10003e56:	469b      	mov	fp, r3
10003e58:	e6a9      	b.n	10003bae <_malloc_r+0x28e>
10003e5a:	0021      	movs	r1, r4
10003e5c:	0030      	movs	r0, r6
10003e5e:	3108      	adds	r1, #8
10003e60:	f000 f8d6 	bl	10004010 <_free_r>
10003e64:	4653      	mov	r3, sl
10003e66:	68bc      	ldr	r4, [r7, #8]
10003e68:	681b      	ldr	r3, [r3, #0]
10003e6a:	6862      	ldr	r2, [r4, #4]
10003e6c:	e6c3      	b.n	10003bf6 <_malloc_r+0x2d6>
10003e6e:	490b      	ldr	r1, [pc, #44]	; (10003e9c <_malloc_r+0x57c>)
10003e70:	428a      	cmp	r2, r1
10003e72:	d80b      	bhi.n	10003e8c <_malloc_r+0x56c>
10003e74:	0c9a      	lsrs	r2, r3, #18
10003e76:	0011      	movs	r1, r2
10003e78:	327d      	adds	r2, #125	; 0x7d
10003e7a:	317c      	adds	r1, #124	; 0x7c
10003e7c:	00d2      	lsls	r2, r2, #3
10003e7e:	e6de      	b.n	10003c3e <_malloc_r+0x31e>
10003e80:	21fe      	movs	r1, #254	; 0xfe
10003e82:	237e      	movs	r3, #126	; 0x7e
10003e84:	207f      	movs	r0, #127	; 0x7f
10003e86:	4698      	mov	r8, r3
10003e88:	0089      	lsls	r1, r1, #2
10003e8a:	e592      	b.n	100039b2 <_malloc_r+0x92>
10003e8c:	22fe      	movs	r2, #254	; 0xfe
10003e8e:	217e      	movs	r1, #126	; 0x7e
10003e90:	0092      	lsls	r2, r2, #2
10003e92:	e6d4      	b.n	10003c3e <_malloc_r+0x31e>
10003e94:	687b      	ldr	r3, [r7, #4]
10003e96:	e76a      	b.n	10003d6e <_malloc_r+0x44e>
10003e98:	20012314 	.word	0x20012314
10003e9c:	00000554 	.word	0x00000554

10003ea0 <__malloc_lock>:
10003ea0:	b510      	push	{r4, lr}
10003ea2:	4802      	ldr	r0, [pc, #8]	; (10003eac <__malloc_lock+0xc>)
10003ea4:	f000 f996 	bl	100041d4 <__retarget_lock_acquire_recursive>
10003ea8:	bd10      	pop	{r4, pc}
10003eaa:	46c0      	nop			; (mov r8, r8)
10003eac:	20013f50 	.word	0x20013f50

10003eb0 <__malloc_unlock>:
10003eb0:	b510      	push	{r4, lr}
10003eb2:	4802      	ldr	r0, [pc, #8]	; (10003ebc <__malloc_unlock+0xc>)
10003eb4:	f000 f990 	bl	100041d8 <__retarget_lock_release_recursive>
10003eb8:	bd10      	pop	{r4, pc}
10003eba:	46c0      	nop			; (mov r8, r8)
10003ebc:	20013f50 	.word	0x20013f50

10003ec0 <rand>:
10003ec0:	4b09      	ldr	r3, [pc, #36]	; (10003ee8 <rand+0x28>)
10003ec2:	b510      	push	{r4, lr}
10003ec4:	681c      	ldr	r4, [r3, #0]
10003ec6:	4a09      	ldr	r2, [pc, #36]	; (10003eec <rand+0x2c>)
10003ec8:	34a8      	adds	r4, #168	; 0xa8
10003eca:	6820      	ldr	r0, [r4, #0]
10003ecc:	6861      	ldr	r1, [r4, #4]
10003ece:	4b08      	ldr	r3, [pc, #32]	; (10003ef0 <rand+0x30>)
10003ed0:	f7fe fc9a 	bl	10002808 <__wrap___aeabi_lmul>
10003ed4:	2201      	movs	r2, #1
10003ed6:	2300      	movs	r3, #0
10003ed8:	1880      	adds	r0, r0, r2
10003eda:	4159      	adcs	r1, r3
10003edc:	6020      	str	r0, [r4, #0]
10003ede:	6061      	str	r1, [r4, #4]
10003ee0:	0048      	lsls	r0, r1, #1
10003ee2:	0840      	lsrs	r0, r0, #1
10003ee4:	bd10      	pop	{r4, pc}
10003ee6:	46c0      	nop			; (mov r8, r8)
10003ee8:	20011994 	.word	0x20011994
10003eec:	4c957f2d 	.word	0x4c957f2d
10003ef0:	5851f42d 	.word	0x5851f42d

10003ef4 <_sbrk_r>:
10003ef4:	2300      	movs	r3, #0
10003ef6:	b570      	push	{r4, r5, r6, lr}
10003ef8:	4d06      	ldr	r5, [pc, #24]	; (10003f14 <_sbrk_r+0x20>)
10003efa:	0004      	movs	r4, r0
10003efc:	0008      	movs	r0, r1
10003efe:	602b      	str	r3, [r5, #0]
10003f00:	f7fd fea2 	bl	10001c48 <_sbrk>
10003f04:	1c43      	adds	r3, r0, #1
10003f06:	d000      	beq.n	10003f0a <_sbrk_r+0x16>
10003f08:	bd70      	pop	{r4, r5, r6, pc}
10003f0a:	682b      	ldr	r3, [r5, #0]
10003f0c:	2b00      	cmp	r3, #0
10003f0e:	d0fb      	beq.n	10003f08 <_sbrk_r+0x14>
10003f10:	6023      	str	r3, [r4, #0]
10003f12:	e7f9      	b.n	10003f08 <_sbrk_r+0x14>
10003f14:	20013f64 	.word	0x20013f64

10003f18 <strlen>:
10003f18:	b510      	push	{r4, lr}
10003f1a:	0783      	lsls	r3, r0, #30
10003f1c:	d00a      	beq.n	10003f34 <strlen+0x1c>
10003f1e:	0003      	movs	r3, r0
10003f20:	2103      	movs	r1, #3
10003f22:	e002      	b.n	10003f2a <strlen+0x12>
10003f24:	3301      	adds	r3, #1
10003f26:	420b      	tst	r3, r1
10003f28:	d005      	beq.n	10003f36 <strlen+0x1e>
10003f2a:	781a      	ldrb	r2, [r3, #0]
10003f2c:	2a00      	cmp	r2, #0
10003f2e:	d1f9      	bne.n	10003f24 <strlen+0xc>
10003f30:	1a18      	subs	r0, r3, r0
10003f32:	bd10      	pop	{r4, pc}
10003f34:	0003      	movs	r3, r0
10003f36:	6819      	ldr	r1, [r3, #0]
10003f38:	4a0c      	ldr	r2, [pc, #48]	; (10003f6c <strlen+0x54>)
10003f3a:	4c0d      	ldr	r4, [pc, #52]	; (10003f70 <strlen+0x58>)
10003f3c:	188a      	adds	r2, r1, r2
10003f3e:	438a      	bics	r2, r1
10003f40:	4222      	tst	r2, r4
10003f42:	d10f      	bne.n	10003f64 <strlen+0x4c>
10003f44:	6859      	ldr	r1, [r3, #4]
10003f46:	4a09      	ldr	r2, [pc, #36]	; (10003f6c <strlen+0x54>)
10003f48:	3304      	adds	r3, #4
10003f4a:	188a      	adds	r2, r1, r2
10003f4c:	438a      	bics	r2, r1
10003f4e:	4222      	tst	r2, r4
10003f50:	d108      	bne.n	10003f64 <strlen+0x4c>
10003f52:	6859      	ldr	r1, [r3, #4]
10003f54:	4a05      	ldr	r2, [pc, #20]	; (10003f6c <strlen+0x54>)
10003f56:	3304      	adds	r3, #4
10003f58:	188a      	adds	r2, r1, r2
10003f5a:	438a      	bics	r2, r1
10003f5c:	4222      	tst	r2, r4
10003f5e:	d0f1      	beq.n	10003f44 <strlen+0x2c>
10003f60:	e000      	b.n	10003f64 <strlen+0x4c>
10003f62:	3301      	adds	r3, #1
10003f64:	781a      	ldrb	r2, [r3, #0]
10003f66:	2a00      	cmp	r2, #0
10003f68:	d1fb      	bne.n	10003f62 <strlen+0x4a>
10003f6a:	e7e1      	b.n	10003f30 <strlen+0x18>
10003f6c:	fefefeff 	.word	0xfefefeff
10003f70:	80808080 	.word	0x80808080

10003f74 <_malloc_trim_r>:
10003f74:	b5f8      	push	{r3, r4, r5, r6, r7, lr}
10003f76:	000c      	movs	r4, r1
10003f78:	0005      	movs	r5, r0
10003f7a:	f7ff ff91 	bl	10003ea0 <__malloc_lock>
10003f7e:	4f20      	ldr	r7, [pc, #128]	; (10004000 <_malloc_trim_r+0x8c>)
10003f80:	68bb      	ldr	r3, [r7, #8]
10003f82:	685e      	ldr	r6, [r3, #4]
10003f84:	2303      	movs	r3, #3
10003f86:	439e      	bics	r6, r3
10003f88:	4b1e      	ldr	r3, [pc, #120]	; (10004004 <_malloc_trim_r+0x90>)
10003f8a:	1b34      	subs	r4, r6, r4
10003f8c:	469c      	mov	ip, r3
10003f8e:	4464      	add	r4, ip
10003f90:	0b24      	lsrs	r4, r4, #12
10003f92:	3c01      	subs	r4, #1
10003f94:	3311      	adds	r3, #17
10003f96:	0324      	lsls	r4, r4, #12
10003f98:	429c      	cmp	r4, r3
10003f9a:	db07      	blt.n	10003fac <_malloc_trim_r+0x38>
10003f9c:	2100      	movs	r1, #0
10003f9e:	0028      	movs	r0, r5
10003fa0:	f7ff ffa8 	bl	10003ef4 <_sbrk_r>
10003fa4:	68bb      	ldr	r3, [r7, #8]
10003fa6:	199b      	adds	r3, r3, r6
10003fa8:	4298      	cmp	r0, r3
10003faa:	d004      	beq.n	10003fb6 <_malloc_trim_r+0x42>
10003fac:	0028      	movs	r0, r5
10003fae:	f7ff ff7f 	bl	10003eb0 <__malloc_unlock>
10003fb2:	2000      	movs	r0, #0
10003fb4:	bdf8      	pop	{r3, r4, r5, r6, r7, pc}
10003fb6:	0028      	movs	r0, r5
10003fb8:	4261      	negs	r1, r4
10003fba:	f7ff ff9b 	bl	10003ef4 <_sbrk_r>
10003fbe:	1c43      	adds	r3, r0, #1
10003fc0:	d00d      	beq.n	10003fde <_malloc_trim_r+0x6a>
10003fc2:	2201      	movs	r2, #1
10003fc4:	68bb      	ldr	r3, [r7, #8]
10003fc6:	1b36      	subs	r6, r6, r4
10003fc8:	4316      	orrs	r6, r2
10003fca:	605e      	str	r6, [r3, #4]
10003fcc:	4b0e      	ldr	r3, [pc, #56]	; (10004008 <_malloc_trim_r+0x94>)
10003fce:	0028      	movs	r0, r5
10003fd0:	681a      	ldr	r2, [r3, #0]
10003fd2:	1b14      	subs	r4, r2, r4
10003fd4:	601c      	str	r4, [r3, #0]
10003fd6:	f7ff ff6b 	bl	10003eb0 <__malloc_unlock>
10003fda:	2001      	movs	r0, #1
10003fdc:	e7ea      	b.n	10003fb4 <_malloc_trim_r+0x40>
10003fde:	2100      	movs	r1, #0
10003fe0:	0028      	movs	r0, r5
10003fe2:	f7ff ff87 	bl	10003ef4 <_sbrk_r>
10003fe6:	68ba      	ldr	r2, [r7, #8]
10003fe8:	1a83      	subs	r3, r0, r2
10003fea:	2b0f      	cmp	r3, #15
10003fec:	ddde      	ble.n	10003fac <_malloc_trim_r+0x38>
10003fee:	4907      	ldr	r1, [pc, #28]	; (1000400c <_malloc_trim_r+0x98>)
10003ff0:	6809      	ldr	r1, [r1, #0]
10003ff2:	1a40      	subs	r0, r0, r1
10003ff4:	4904      	ldr	r1, [pc, #16]	; (10004008 <_malloc_trim_r+0x94>)
10003ff6:	6008      	str	r0, [r1, #0]
10003ff8:	2101      	movs	r1, #1
10003ffa:	430b      	orrs	r3, r1
10003ffc:	6053      	str	r3, [r2, #4]
10003ffe:	e7d5      	b.n	10003fac <_malloc_trim_r+0x38>
10004000:	20011dc0 	.word	0x20011dc0
10004004:	00000fef 	.word	0x00000fef
10004008:	20012314 	.word	0x20012314
1000400c:	200121c8 	.word	0x200121c8

10004010 <_free_r>:
10004010:	b5f0      	push	{r4, r5, r6, r7, lr}
10004012:	46c6      	mov	lr, r8
10004014:	0005      	movs	r5, r0
10004016:	000c      	movs	r4, r1
10004018:	b500      	push	{lr}
1000401a:	2900      	cmp	r1, #0
1000401c:	d04f      	beq.n	100040be <_free_r+0xae>
1000401e:	f7ff ff3f 	bl	10003ea0 <__malloc_lock>
10004022:	0021      	movs	r1, r4
10004024:	3908      	subs	r1, #8
10004026:	684c      	ldr	r4, [r1, #4]
10004028:	2601      	movs	r6, #1
1000402a:	0022      	movs	r2, r4
1000402c:	2003      	movs	r0, #3
1000402e:	43b2      	bics	r2, r6
10004030:	188f      	adds	r7, r1, r2
10004032:	687b      	ldr	r3, [r7, #4]
10004034:	4383      	bics	r3, r0
10004036:	4862      	ldr	r0, [pc, #392]	; (100041c0 <_free_r+0x1b0>)
10004038:	4698      	mov	r8, r3
1000403a:	6883      	ldr	r3, [r0, #8]
1000403c:	42bb      	cmp	r3, r7
1000403e:	d06b      	beq.n	10004118 <_free_r+0x108>
10004040:	4643      	mov	r3, r8
10004042:	607b      	str	r3, [r7, #4]
10004044:	4226      	tst	r6, r4
10004046:	d11e      	bne.n	10004086 <_free_r+0x76>
10004048:	2308      	movs	r3, #8
1000404a:	469c      	mov	ip, r3
1000404c:	680c      	ldr	r4, [r1, #0]
1000404e:	4484      	add	ip, r0
10004050:	1b09      	subs	r1, r1, r4
10004052:	1912      	adds	r2, r2, r4
10004054:	688c      	ldr	r4, [r1, #8]
10004056:	4564      	cmp	r4, ip
10004058:	d04f      	beq.n	100040fa <_free_r+0xea>
1000405a:	68cb      	ldr	r3, [r1, #12]
1000405c:	60e3      	str	r3, [r4, #12]
1000405e:	609c      	str	r4, [r3, #8]
10004060:	4643      	mov	r3, r8
10004062:	18fc      	adds	r4, r7, r3
10004064:	6864      	ldr	r4, [r4, #4]
10004066:	4234      	tst	r4, r6
10004068:	d111      	bne.n	1000408e <_free_r+0x7e>
1000406a:	68bb      	ldr	r3, [r7, #8]
1000406c:	4c55      	ldr	r4, [pc, #340]	; (100041c4 <_free_r+0x1b4>)
1000406e:	4442      	add	r2, r8
10004070:	42a3      	cmp	r3, r4
10004072:	d100      	bne.n	10004076 <_free_r+0x66>
10004074:	e07f      	b.n	10004176 <_free_r+0x166>
10004076:	68fc      	ldr	r4, [r7, #12]
10004078:	60dc      	str	r4, [r3, #12]
1000407a:	60a3      	str	r3, [r4, #8]
1000407c:	2301      	movs	r3, #1
1000407e:	4313      	orrs	r3, r2
10004080:	604b      	str	r3, [r1, #4]
10004082:	508a      	str	r2, [r1, r2]
10004084:	e006      	b.n	10004094 <_free_r+0x84>
10004086:	18fc      	adds	r4, r7, r3
10004088:	6864      	ldr	r4, [r4, #4]
1000408a:	4234      	tst	r4, r6
1000408c:	d0ed      	beq.n	1000406a <_free_r+0x5a>
1000408e:	4316      	orrs	r6, r2
10004090:	604e      	str	r6, [r1, #4]
10004092:	603a      	str	r2, [r7, #0]
10004094:	2380      	movs	r3, #128	; 0x80
10004096:	009b      	lsls	r3, r3, #2
10004098:	429a      	cmp	r2, r3
1000409a:	d213      	bcs.n	100040c4 <_free_r+0xb4>
1000409c:	0954      	lsrs	r4, r2, #5
1000409e:	08d3      	lsrs	r3, r2, #3
100040a0:	2201      	movs	r2, #1
100040a2:	40a2      	lsls	r2, r4
100040a4:	6844      	ldr	r4, [r0, #4]
100040a6:	00db      	lsls	r3, r3, #3
100040a8:	4322      	orrs	r2, r4
100040aa:	6042      	str	r2, [r0, #4]
100040ac:	1818      	adds	r0, r3, r0
100040ae:	6883      	ldr	r3, [r0, #8]
100040b0:	60c8      	str	r0, [r1, #12]
100040b2:	608b      	str	r3, [r1, #8]
100040b4:	6081      	str	r1, [r0, #8]
100040b6:	60d9      	str	r1, [r3, #12]
100040b8:	0028      	movs	r0, r5
100040ba:	f7ff fef9 	bl	10003eb0 <__malloc_unlock>
100040be:	bc04      	pop	{r2}
100040c0:	4690      	mov	r8, r2
100040c2:	bdf0      	pop	{r4, r5, r6, r7, pc}
100040c4:	0a53      	lsrs	r3, r2, #9
100040c6:	2b04      	cmp	r3, #4
100040c8:	d83f      	bhi.n	1000414a <_free_r+0x13a>
100040ca:	0994      	lsrs	r4, r2, #6
100040cc:	0026      	movs	r6, r4
100040ce:	3439      	adds	r4, #57	; 0x39
100040d0:	3638      	adds	r6, #56	; 0x38
100040d2:	00e4      	lsls	r4, r4, #3
100040d4:	1904      	adds	r4, r0, r4
100040d6:	6823      	ldr	r3, [r4, #0]
100040d8:	3c08      	subs	r4, #8
100040da:	2703      	movs	r7, #3
100040dc:	429c      	cmp	r4, r3
100040de:	d043      	beq.n	10004168 <_free_r+0x158>
100040e0:	6858      	ldr	r0, [r3, #4]
100040e2:	43b8      	bics	r0, r7
100040e4:	4290      	cmp	r0, r2
100040e6:	d902      	bls.n	100040ee <_free_r+0xde>
100040e8:	689b      	ldr	r3, [r3, #8]
100040ea:	429c      	cmp	r4, r3
100040ec:	d1f8      	bne.n	100040e0 <_free_r+0xd0>
100040ee:	68dc      	ldr	r4, [r3, #12]
100040f0:	60cc      	str	r4, [r1, #12]
100040f2:	608b      	str	r3, [r1, #8]
100040f4:	60a1      	str	r1, [r4, #8]
100040f6:	60d9      	str	r1, [r3, #12]
100040f8:	e7de      	b.n	100040b8 <_free_r+0xa8>
100040fa:	4643      	mov	r3, r8
100040fc:	18f8      	adds	r0, r7, r3
100040fe:	6840      	ldr	r0, [r0, #4]
10004100:	4230      	tst	r0, r6
10004102:	d158      	bne.n	100041b6 <_free_r+0x1a6>
10004104:	0013      	movs	r3, r2
10004106:	68b8      	ldr	r0, [r7, #8]
10004108:	68fa      	ldr	r2, [r7, #12]
1000410a:	4443      	add	r3, r8
1000410c:	431e      	orrs	r6, r3
1000410e:	60c2      	str	r2, [r0, #12]
10004110:	6090      	str	r0, [r2, #8]
10004112:	604e      	str	r6, [r1, #4]
10004114:	50cb      	str	r3, [r1, r3]
10004116:	e7cf      	b.n	100040b8 <_free_r+0xa8>
10004118:	0013      	movs	r3, r2
1000411a:	4443      	add	r3, r8
1000411c:	4226      	tst	r6, r4
1000411e:	d106      	bne.n	1000412e <_free_r+0x11e>
10004120:	680a      	ldr	r2, [r1, #0]
10004122:	1a89      	subs	r1, r1, r2
10004124:	688c      	ldr	r4, [r1, #8]
10004126:	189b      	adds	r3, r3, r2
10004128:	68ca      	ldr	r2, [r1, #12]
1000412a:	60e2      	str	r2, [r4, #12]
1000412c:	6094      	str	r4, [r2, #8]
1000412e:	2201      	movs	r2, #1
10004130:	431a      	orrs	r2, r3
10004132:	604a      	str	r2, [r1, #4]
10004134:	4a24      	ldr	r2, [pc, #144]	; (100041c8 <_free_r+0x1b8>)
10004136:	6081      	str	r1, [r0, #8]
10004138:	6812      	ldr	r2, [r2, #0]
1000413a:	429a      	cmp	r2, r3
1000413c:	d8bc      	bhi.n	100040b8 <_free_r+0xa8>
1000413e:	4b23      	ldr	r3, [pc, #140]	; (100041cc <_free_r+0x1bc>)
10004140:	0028      	movs	r0, r5
10004142:	6819      	ldr	r1, [r3, #0]
10004144:	f7ff ff16 	bl	10003f74 <_malloc_trim_r>
10004148:	e7b6      	b.n	100040b8 <_free_r+0xa8>
1000414a:	2b14      	cmp	r3, #20
1000414c:	d907      	bls.n	1000415e <_free_r+0x14e>
1000414e:	2b54      	cmp	r3, #84	; 0x54
10004150:	d81a      	bhi.n	10004188 <_free_r+0x178>
10004152:	0b14      	lsrs	r4, r2, #12
10004154:	0026      	movs	r6, r4
10004156:	346f      	adds	r4, #111	; 0x6f
10004158:	366e      	adds	r6, #110	; 0x6e
1000415a:	00e4      	lsls	r4, r4, #3
1000415c:	e7ba      	b.n	100040d4 <_free_r+0xc4>
1000415e:	001e      	movs	r6, r3
10004160:	335c      	adds	r3, #92	; 0x5c
10004162:	365b      	adds	r6, #91	; 0x5b
10004164:	00dc      	lsls	r4, r3, #3
10004166:	e7b5      	b.n	100040d4 <_free_r+0xc4>
10004168:	2201      	movs	r2, #1
1000416a:	10b6      	asrs	r6, r6, #2
1000416c:	40b2      	lsls	r2, r6
1000416e:	6846      	ldr	r6, [r0, #4]
10004170:	4332      	orrs	r2, r6
10004172:	6042      	str	r2, [r0, #4]
10004174:	e7bc      	b.n	100040f0 <_free_r+0xe0>
10004176:	60d9      	str	r1, [r3, #12]
10004178:	6099      	str	r1, [r3, #8]
1000417a:	60cb      	str	r3, [r1, #12]
1000417c:	608b      	str	r3, [r1, #8]
1000417e:	2301      	movs	r3, #1
10004180:	4313      	orrs	r3, r2
10004182:	604b      	str	r3, [r1, #4]
10004184:	508a      	str	r2, [r1, r2]
10004186:	e797      	b.n	100040b8 <_free_r+0xa8>
10004188:	24aa      	movs	r4, #170	; 0xaa
1000418a:	0064      	lsls	r4, r4, #1
1000418c:	42a3      	cmp	r3, r4
1000418e:	d805      	bhi.n	1000419c <_free_r+0x18c>
10004190:	0bd4      	lsrs	r4, r2, #15
10004192:	0026      	movs	r6, r4
10004194:	3478      	adds	r4, #120	; 0x78
10004196:	3677      	adds	r6, #119	; 0x77
10004198:	00e4      	lsls	r4, r4, #3
1000419a:	e79b      	b.n	100040d4 <_free_r+0xc4>
1000419c:	4c0c      	ldr	r4, [pc, #48]	; (100041d0 <_free_r+0x1c0>)
1000419e:	42a3      	cmp	r3, r4
100041a0:	d805      	bhi.n	100041ae <_free_r+0x19e>
100041a2:	0c94      	lsrs	r4, r2, #18
100041a4:	0026      	movs	r6, r4
100041a6:	347d      	adds	r4, #125	; 0x7d
100041a8:	367c      	adds	r6, #124	; 0x7c
100041aa:	00e4      	lsls	r4, r4, #3
100041ac:	e792      	b.n	100040d4 <_free_r+0xc4>
100041ae:	24fe      	movs	r4, #254	; 0xfe
100041b0:	267e      	movs	r6, #126	; 0x7e
100041b2:	00a4      	lsls	r4, r4, #2
100041b4:	e78e      	b.n	100040d4 <_free_r+0xc4>
100041b6:	0033      	movs	r3, r6
100041b8:	4313      	orrs	r3, r2
100041ba:	604b      	str	r3, [r1, #4]
100041bc:	603a      	str	r2, [r7, #0]
100041be:	e77b      	b.n	100040b8 <_free_r+0xa8>
100041c0:	20011dc0 	.word	0x20011dc0
100041c4:	20011dc8 	.word	0x20011dc8
100041c8:	200121cc 	.word	0x200121cc
100041cc:	20012344 	.word	0x20012344
100041d0:	00000554 	.word	0x00000554

100041d4 <__retarget_lock_acquire_recursive>:
100041d4:	4770      	bx	lr
100041d6:	46c0      	nop			; (mov r8, r8)

100041d8 <__retarget_lock_release_recursive>:
100041d8:	4770      	bx	lr
100041da:	46c0      	nop			; (mov r8, r8)

100041dc <_fini>:
100041dc:	b5f8      	push	{r3, r4, r5, r6, r7, lr}
100041de:	46c0      	nop			; (mov r8, r8)

100041e0 <__mutex_exit_veneer>:
100041e0:	b401      	push	{r0}
100041e2:	4802      	ldr	r0, [pc, #8]	; (100041ec <__mutex_exit_veneer+0xc>)
100041e4:	4684      	mov	ip, r0
100041e6:	bc01      	pop	{r0}
100041e8:	4760      	bx	ip
100041ea:	bf00      	nop
100041ec:	20000919 	.word	0x20000919

100041f0 <____aeabi_ldiv0_veneer>:
100041f0:	b401      	push	{r0}
100041f2:	4802      	ldr	r0, [pc, #8]	; (100041fc <____aeabi_ldiv0_veneer+0xc>)
100041f4:	4684      	mov	ip, r0
100041f6:	bc01      	pop	{r0}
100041f8:	4760      	bx	ip
100041fa:	bf00      	nop
100041fc:	20001481 	.word	0x20001481

10004200 <__dvi_scanbuf_main_16bpp_veneer>:
10004200:	b401      	push	{r0}
10004202:	4802      	ldr	r0, [pc, #8]	; (1000420c <__dvi_scanbuf_main_16bpp_veneer+0xc>)
10004204:	4684      	mov	ip, r0
10004206:	bc01      	pop	{r0}
10004208:	4760      	bx	ip
1000420a:	bf00      	nop
1000420c:	20000e95 	.word	0x20000e95

10004210 <____aeabi_idiv0_veneer>:
10004210:	b401      	push	{r0}
10004212:	4802      	ldr	r0, [pc, #8]	; (1000421c <____aeabi_idiv0_veneer+0xc>)
10004214:	4684      	mov	ip, r0
10004216:	bc01      	pop	{r0}
10004218:	4760      	bx	ip
1000421a:	bf00      	nop
1000421c:	20001481 	.word	0x20001481

10004220 <__mutex_try_enter_veneer>:
10004220:	b401      	push	{r0}
10004222:	4802      	ldr	r0, [pc, #8]	; (1000422c <__mutex_try_enter_veneer+0xc>)
10004224:	4684      	mov	ip, r0
10004226:	bc01      	pop	{r0}
10004228:	4760      	bx	ip
1000422a:	bf00      	nop
1000422c:	200008d1 	.word	0x200008d1

10004230 <__render_loop_veneer>:
10004230:	b401      	push	{r0}
10004232:	4802      	ldr	r0, [pc, #8]	; (1000423c <__render_loop_veneer+0xc>)
10004234:	4684      	mov	ip, r0
10004236:	bc01      	pop	{r0}
10004238:	4760      	bx	ip
1000423a:	bf00      	nop
1000423c:	200000c1 	.word	0x200000c1

10004240 <__mutex_enter_blocking_veneer>:
10004240:	b401      	push	{r0}
10004242:	4802      	ldr	r0, [pc, #8]	; (1000424c <__mutex_enter_blocking_veneer+0xc>)
10004244:	4684      	mov	ip, r0
10004246:	bc01      	pop	{r0}
10004248:	4760      	bx	ip
1000424a:	bf00      	nop
1000424c:	20000889 	.word	0x20000889

Disassembly of section .data:

200000c0 <render_loop>:
200000c0:	b5f0      	push	{r4, r5, r6, r7, lr}
200000c2:	46de      	mov	lr, fp
200000c4:	4657      	mov	r7, sl
200000c6:	464e      	mov	r6, r9
200000c8:	4645      	mov	r5, r8
200000ca:	2301      	movs	r3, #1
200000cc:	b5e0      	push	{r5, r6, r7, lr}
200000ce:	b0a9      	sub	sp, #164	; 0xa4
200000d0:	9325      	str	r3, [sp, #148]	; 0x94
200000d2:	22c3      	movs	r2, #195	; 0xc3
200000d4:	0092      	lsls	r2, r2, #2
200000d6:	4694      	mov	ip, r2
200000d8:	4be0      	ldr	r3, [pc, #896]	; (2000045c <render_loop+0x39c>)
200000da:	2500      	movs	r5, #0
200000dc:	4463      	add	r3, ip
200000de:	001f      	movs	r7, r3
200000e0:	48df      	ldr	r0, [pc, #892]	; (20000460 <render_loop+0x3a0>)
200000e2:	a927      	add	r1, sp, #156	; 0x9c
200000e4:	f001 f9f0 	bl	200014c8 <__queue_remove_blocking_veneer>
200000e8:	22a0      	movs	r2, #160	; 0xa0
200000ea:	49de      	ldr	r1, [pc, #888]	; (20000464 <render_loop+0x3a4>)
200000ec:	9827      	ldr	r0, [sp, #156]	; 0x9c
200000ee:	0052      	lsls	r2, r2, #1
200000f0:	f001 f8ac 	bl	2000124c <sprite_fill16>
200000f4:	4ed9      	ldr	r6, [pc, #868]	; (2000045c <render_loop+0x39c>)
200000f6:	0034      	movs	r4, r6
200000f8:	23a0      	movs	r3, #160	; 0xa0
200000fa:	0021      	movs	r1, r4
200000fc:	002a      	movs	r2, r5
200000fe:	9827      	ldr	r0, [sp, #156]	; 0x9c
20000100:	005b      	lsls	r3, r3, #1
20000102:	340c      	adds	r4, #12
20000104:	f001 f948 	bl	20001398 <sprite_sprite16>
20000108:	42bc      	cmp	r4, r7
2000010a:	d1f5      	bne.n	200000f8 <render_loop+0x38>
2000010c:	48d6      	ldr	r0, [pc, #856]	; (20000468 <render_loop+0x3a8>)
2000010e:	a927      	add	r1, sp, #156	; 0x9c
20000110:	3501      	adds	r5, #1
20000112:	f001 f9d1 	bl	200014b8 <__queue_add_blocking_veneer>
20000116:	2df0      	cmp	r5, #240	; 0xf0
20000118:	d1e2      	bne.n	200000e0 <render_loop+0x20>
2000011a:	4bd4      	ldr	r3, [pc, #848]	; (2000046c <render_loop+0x3ac>)
2000011c:	4ad4      	ldr	r2, [pc, #848]	; (20000470 <render_loop+0x3b0>)
2000011e:	4698      	mov	r8, r3
20000120:	4bd4      	ldr	r3, [pc, #848]	; (20000474 <render_loop+0x3b4>)
20000122:	46b2      	mov	sl, r6
20000124:	4699      	mov	r9, r3
20000126:	4bd4      	ldr	r3, [pc, #848]	; (20000478 <render_loop+0x3b8>)
20000128:	921a      	str	r2, [sp, #104]	; 0x68
2000012a:	9322      	str	r3, [sp, #136]	; 0x88
2000012c:	4bd3      	ldr	r3, [pc, #844]	; (2000047c <render_loop+0x3bc>)
2000012e:	931c      	str	r3, [sp, #112]	; 0x70
20000130:	e05b      	b.n	200001ea <render_loop+0x12a>
20000132:	0013      	movs	r3, r2
20000134:	991d      	ldr	r1, [sp, #116]	; 0x74
20000136:	000a      	movs	r2, r1
20000138:	29d2      	cmp	r1, #210	; 0xd2
2000013a:	dc00      	bgt.n	2000013e <render_loop+0x7e>
2000013c:	e179      	b.n	20000432 <render_loop+0x372>
2000013e:	22d2      	movs	r2, #210	; 0xd2
20000140:	991b      	ldr	r1, [sp, #108]	; 0x6c
20000142:	4299      	cmp	r1, r3
20000144:	d102      	bne.n	2000014c <render_loop+0x8c>
20000146:	991d      	ldr	r1, [sp, #116]	; 0x74
20000148:	4291      	cmp	r1, r2
2000014a:	d03b      	beq.n	200001c4 <render_loop+0x104>
2000014c:	4651      	mov	r1, sl
2000014e:	800b      	strh	r3, [r1, #0]
20000150:	804a      	strh	r2, [r1, #2]
20000152:	f001 f9c1 	bl	200014d8 <__rand_veneer>
20000156:	2503      	movs	r5, #3
20000158:	17c3      	asrs	r3, r0, #31
2000015a:	0f9b      	lsrs	r3, r3, #30
2000015c:	18c0      	adds	r0, r0, r3
2000015e:	4005      	ands	r5, r0
20000160:	1aed      	subs	r5, r5, r3
20000162:	1c6e      	adds	r6, r5, #1
20000164:	f001 f9b8 	bl	200014d8 <__rand_veneer>
20000168:	0403      	lsls	r3, r0, #16
2000016a:	d400      	bmi.n	2000016e <render_loop+0xae>
2000016c:	43ee      	mvns	r6, r5
2000016e:	4643      	mov	r3, r8
20000170:	601e      	str	r6, [r3, #0]
20000172:	f001 f9b1 	bl	200014d8 <__rand_veneer>
20000176:	2503      	movs	r5, #3
20000178:	17c3      	asrs	r3, r0, #31
2000017a:	0f9b      	lsrs	r3, r3, #30
2000017c:	18c0      	adds	r0, r0, r3
2000017e:	4005      	ands	r5, r0
20000180:	1aed      	subs	r5, r5, r3
20000182:	1c6e      	adds	r6, r5, #1
20000184:	f001 f9a8 	bl	200014d8 <__rand_veneer>
20000188:	0403      	lsls	r3, r0, #16
2000018a:	d400      	bmi.n	2000018e <render_loop+0xce>
2000018c:	43ee      	mvns	r6, r5
2000018e:	464b      	mov	r3, r9
20000190:	601e      	str	r6, [r3, #0]
20000192:	f001 f9a1 	bl	200014d8 <__rand_veneer>
20000196:	2503      	movs	r5, #3
20000198:	17c3      	asrs	r3, r0, #31
2000019a:	0f9b      	lsrs	r3, r3, #30
2000019c:	18c0      	adds	r0, r0, r3
2000019e:	4005      	ands	r5, r0
200001a0:	1aed      	subs	r5, r5, r3
200001a2:	1c6e      	adds	r6, r5, #1
200001a4:	f001 f998 	bl	200014d8 <__rand_veneer>
200001a8:	0403      	lsls	r3, r0, #16
200001aa:	d400      	bmi.n	200001ae <render_loop+0xee>
200001ac:	43ee      	mvns	r6, r5
200001ae:	9b1c      	ldr	r3, [sp, #112]	; 0x70
200001b0:	4652      	mov	r2, sl
200001b2:	601e      	str	r6, [r3, #0]
200001b4:	4643      	mov	r3, r8
200001b6:	681b      	ldr	r3, [r3, #0]
200001b8:	0fdb      	lsrs	r3, r3, #31
200001ba:	7293      	strb	r3, [r2, #10]
200001bc:	464b      	mov	r3, r9
200001be:	681b      	ldr	r3, [r3, #0]
200001c0:	0fdb      	lsrs	r3, r3, #31
200001c2:	72d3      	strb	r3, [r2, #11]
200001c4:	230c      	movs	r3, #12
200001c6:	469c      	mov	ip, r3
200001c8:	3b08      	subs	r3, #8
200001ca:	44e2      	add	sl, ip
200001cc:	469c      	mov	ip, r3
200001ce:	9b22      	ldr	r3, [sp, #136]	; 0x88
200001d0:	44e0      	add	r8, ip
200001d2:	3301      	adds	r3, #1
200001d4:	9322      	str	r3, [sp, #136]	; 0x88
200001d6:	9b1c      	ldr	r3, [sp, #112]	; 0x70
200001d8:	44e1      	add	r9, ip
200001da:	4463      	add	r3, ip
200001dc:	931c      	str	r3, [sp, #112]	; 0x70
200001de:	9b1a      	ldr	r3, [sp, #104]	; 0x68
200001e0:	3318      	adds	r3, #24
200001e2:	931a      	str	r3, [sp, #104]	; 0x68
200001e4:	4557      	cmp	r7, sl
200001e6:	d100      	bne.n	200001ea <render_loop+0x12a>
200001e8:	e129      	b.n	2000043e <render_loop+0x37e>
200001ea:	4642      	mov	r2, r8
200001ec:	4653      	mov	r3, sl
200001ee:	6812      	ldr	r2, [r2, #0]
200001f0:	881b      	ldrh	r3, [r3, #0]
200001f2:	4694      	mov	ip, r2
200001f4:	4652      	mov	r2, sl
200001f6:	4463      	add	r3, ip
200001f8:	b21b      	sxth	r3, r3
200001fa:	8013      	strh	r3, [r2, #0]
200001fc:	931b      	str	r3, [sp, #108]	; 0x6c
200001fe:	8853      	ldrh	r3, [r2, #2]
20000200:	464a      	mov	r2, r9
20000202:	6812      	ldr	r2, [r2, #0]
20000204:	4651      	mov	r1, sl
20000206:	4694      	mov	ip, r2
20000208:	4463      	add	r3, ip
2000020a:	b21a      	sxth	r2, r3
2000020c:	804a      	strh	r2, [r1, #2]
2000020e:	991c      	ldr	r1, [sp, #112]	; 0x70
20000210:	921d      	str	r2, [sp, #116]	; 0x74
20000212:	6809      	ldr	r1, [r1, #0]
20000214:	9a22      	ldr	r2, [sp, #136]	; 0x88
20000216:	468c      	mov	ip, r1
20000218:	7813      	ldrb	r3, [r2, #0]
2000021a:	4999      	ldr	r1, [pc, #612]	; (20000480 <render_loop+0x3c0>)
2000021c:	4463      	add	r3, ip
2000021e:	b2db      	uxtb	r3, r3
20000220:	7013      	strb	r3, [r2, #0]
20000222:	009a      	lsls	r2, r3, #2
20000224:	588a      	ldr	r2, [r1, r2]
20000226:	3340      	adds	r3, #64	; 0x40
20000228:	4693      	mov	fp, r2
2000022a:	22ff      	movs	r2, #255	; 0xff
2000022c:	4013      	ands	r3, r2
2000022e:	009b      	lsls	r3, r3, #2
20000230:	58cb      	ldr	r3, [r1, r3]
20000232:	931e      	str	r3, [sp, #120]	; 0x78
20000234:	17db      	asrs	r3, r3, #31
20000236:	931f      	str	r3, [sp, #124]	; 0x7c
20000238:	9d1e      	ldr	r5, [sp, #120]	; 0x78
2000023a:	9e1f      	ldr	r6, [sp, #124]	; 0x7c
2000023c:	0028      	movs	r0, r5
2000023e:	0031      	movs	r1, r6
20000240:	0f6a      	lsrs	r2, r5, #29
20000242:	00dc      	lsls	r4, r3, #3
20000244:	4314      	orrs	r4, r2
20000246:	00ea      	lsls	r2, r5, #3
20000248:	9401      	str	r4, [sp, #4]
2000024a:	9200      	str	r2, [sp, #0]
2000024c:	9a00      	ldr	r2, [sp, #0]
2000024e:	9b01      	ldr	r3, [sp, #4]
20000250:	1812      	adds	r2, r2, r0
20000252:	414b      	adcs	r3, r1
20000254:	0f51      	lsrs	r1, r2, #29
20000256:	00dc      	lsls	r4, r3, #3
20000258:	430c      	orrs	r4, r1
2000025a:	0031      	movs	r1, r6
2000025c:	00d2      	lsls	r2, r2, #3
2000025e:	9403      	str	r4, [sp, #12]
20000260:	9202      	str	r2, [sp, #8]
20000262:	9a02      	ldr	r2, [sp, #8]
20000264:	9b03      	ldr	r3, [sp, #12]
20000266:	1812      	adds	r2, r2, r0
20000268:	414b      	adcs	r3, r1
2000026a:	0dd1      	lsrs	r1, r2, #23
2000026c:	0258      	lsls	r0, r3, #9
2000026e:	4308      	orrs	r0, r1
20000270:	0251      	lsls	r1, r2, #9
20000272:	9005      	str	r0, [sp, #20]
20000274:	9104      	str	r1, [sp, #16]
20000276:	9804      	ldr	r0, [sp, #16]
20000278:	9905      	ldr	r1, [sp, #20]
2000027a:	1812      	adds	r2, r2, r0
2000027c:	414b      	adcs	r3, r1
2000027e:	1892      	adds	r2, r2, r2
20000280:	415b      	adcs	r3, r3
20000282:	0011      	movs	r1, r2
20000284:	041b      	lsls	r3, r3, #16
20000286:	0c09      	lsrs	r1, r1, #16
20000288:	4319      	orrs	r1, r3
2000028a:	040a      	lsls	r2, r1, #16
2000028c:	0c0b      	lsrs	r3, r1, #16
2000028e:	041b      	lsls	r3, r3, #16
20000290:	0c14      	lsrs	r4, r2, #16
20000292:	431c      	orrs	r4, r3
20000294:	465b      	mov	r3, fp
20000296:	425b      	negs	r3, r3
20000298:	9306      	str	r3, [sp, #24]
2000029a:	17db      	asrs	r3, r3, #31
2000029c:	9307      	str	r3, [sp, #28]
2000029e:	9424      	str	r4, [sp, #144]	; 0x90
200002a0:	00d8      	lsls	r0, r3, #3
200002a2:	9c06      	ldr	r4, [sp, #24]
200002a4:	9d07      	ldr	r5, [sp, #28]
200002a6:	0f62      	lsrs	r2, r4, #29
200002a8:	002b      	movs	r3, r5
200002aa:	4310      	orrs	r0, r2
200002ac:	0022      	movs	r2, r4
200002ae:	9009      	str	r0, [sp, #36]	; 0x24
200002b0:	00e0      	lsls	r0, r4, #3
200002b2:	9008      	str	r0, [sp, #32]
200002b4:	9c08      	ldr	r4, [sp, #32]
200002b6:	9d09      	ldr	r5, [sp, #36]	; 0x24
200002b8:	18a4      	adds	r4, r4, r2
200002ba:	415d      	adcs	r5, r3
200002bc:	0022      	movs	r2, r4
200002be:	0f60      	lsrs	r0, r4, #29
200002c0:	00ed      	lsls	r5, r5, #3
200002c2:	4305      	orrs	r5, r0
200002c4:	00d0      	lsls	r0, r2, #3
200002c6:	900a      	str	r0, [sp, #40]	; 0x28
200002c8:	950b      	str	r5, [sp, #44]	; 0x2c
200002ca:	9a06      	ldr	r2, [sp, #24]
200002cc:	9b07      	ldr	r3, [sp, #28]
200002ce:	9c0a      	ldr	r4, [sp, #40]	; 0x28
200002d0:	9d0b      	ldr	r5, [sp, #44]	; 0x2c
200002d2:	18a4      	adds	r4, r4, r2
200002d4:	415d      	adcs	r5, r3
200002d6:	0022      	movs	r2, r4
200002d8:	002b      	movs	r3, r5
200002da:	0de0      	lsrs	r0, r4, #23
200002dc:	026d      	lsls	r5, r5, #9
200002de:	4305      	orrs	r5, r0
200002e0:	0250      	lsls	r0, r2, #9
200002e2:	900c      	str	r0, [sp, #48]	; 0x30
200002e4:	950d      	str	r5, [sp, #52]	; 0x34
200002e6:	9c0c      	ldr	r4, [sp, #48]	; 0x30
200002e8:	9d0d      	ldr	r5, [sp, #52]	; 0x34
200002ea:	1912      	adds	r2, r2, r4
200002ec:	416b      	adcs	r3, r5
200002ee:	1892      	adds	r2, r2, r2
200002f0:	415b      	adcs	r3, r3
200002f2:	0f0d      	lsrs	r5, r1, #28
200002f4:	0014      	movs	r4, r2
200002f6:	46ac      	mov	ip, r5
200002f8:	17ce      	asrs	r6, r1, #31
200002fa:	041b      	lsls	r3, r3, #16
200002fc:	0c20      	lsrs	r0, r4, #16
200002fe:	4318      	orrs	r0, r3
20000300:	0135      	lsls	r5, r6, #4
20000302:	0033      	movs	r3, r6
20000304:	4666      	mov	r6, ip
20000306:	17c2      	asrs	r2, r0, #31
20000308:	9223      	str	r2, [sp, #140]	; 0x8c
2000030a:	000a      	movs	r2, r1
2000030c:	4335      	orrs	r5, r6
2000030e:	0109      	lsls	r1, r1, #4
20000310:	910e      	str	r1, [sp, #56]	; 0x38
20000312:	950f      	str	r5, [sp, #60]	; 0x3c
20000314:	9c0e      	ldr	r4, [sp, #56]	; 0x38
20000316:	9d0f      	ldr	r5, [sp, #60]	; 0x3c
20000318:	1b12      	subs	r2, r2, r4
2000031a:	41ab      	sbcs	r3, r5
2000031c:	0495      	lsls	r5, r2, #18
2000031e:	46ac      	mov	ip, r5
20000320:	4664      	mov	r4, ip
20000322:	0499      	lsls	r1, r3, #18
20000324:	0b96      	lsrs	r6, r2, #14
20000326:	430e      	orrs	r6, r1
20000328:	0c21      	lsrs	r1, r4, #16
2000032a:	000a      	movs	r2, r1
2000032c:	0433      	lsls	r3, r6, #16
2000032e:	431a      	orrs	r2, r3
20000330:	465b      	mov	r3, fp
20000332:	9320      	str	r3, [sp, #128]	; 0x80
20000334:	17db      	asrs	r3, r3, #31
20000336:	9321      	str	r3, [sp, #132]	; 0x84
20000338:	9d20      	ldr	r5, [sp, #128]	; 0x80
2000033a:	9e21      	ldr	r6, [sp, #132]	; 0x84
2000033c:	4694      	mov	ip, r2
2000033e:	00d9      	lsls	r1, r3, #3
20000340:	0f6a      	lsrs	r2, r5, #29
20000342:	4311      	orrs	r1, r2
20000344:	9111      	str	r1, [sp, #68]	; 0x44
20000346:	00e9      	lsls	r1, r5, #3
20000348:	9110      	str	r1, [sp, #64]	; 0x40
2000034a:	9a10      	ldr	r2, [sp, #64]	; 0x40
2000034c:	9b11      	ldr	r3, [sp, #68]	; 0x44
2000034e:	1952      	adds	r2, r2, r5
20000350:	4173      	adcs	r3, r6
20000352:	0f51      	lsrs	r1, r2, #29
20000354:	00dc      	lsls	r4, r3, #3
20000356:	430c      	orrs	r4, r1
20000358:	00d1      	lsls	r1, r2, #3
2000035a:	9413      	str	r4, [sp, #76]	; 0x4c
2000035c:	9112      	str	r1, [sp, #72]	; 0x48
2000035e:	9a12      	ldr	r2, [sp, #72]	; 0x48
20000360:	9b13      	ldr	r3, [sp, #76]	; 0x4c
20000362:	1952      	adds	r2, r2, r5
20000364:	4173      	adcs	r3, r6
20000366:	0dd1      	lsrs	r1, r2, #23
20000368:	025d      	lsls	r5, r3, #9
2000036a:	430d      	orrs	r5, r1
2000036c:	0251      	lsls	r1, r2, #9
2000036e:	9114      	str	r1, [sp, #80]	; 0x50
20000370:	9515      	str	r5, [sp, #84]	; 0x54
20000372:	9c14      	ldr	r4, [sp, #80]	; 0x50
20000374:	9d15      	ldr	r5, [sp, #84]	; 0x54
20000376:	1912      	adds	r2, r2, r4
20000378:	416b      	adcs	r3, r5
2000037a:	1892      	adds	r2, r2, r2
2000037c:	415b      	adcs	r3, r3
2000037e:	0011      	movs	r1, r2
20000380:	041b      	lsls	r3, r3, #16
20000382:	0c0e      	lsrs	r6, r1, #16
20000384:	431e      	orrs	r6, r3
20000386:	0c02      	lsrs	r2, r0, #16
20000388:	0403      	lsls	r3, r0, #16
2000038a:	991a      	ldr	r1, [sp, #104]	; 0x68
2000038c:	9d23      	ldr	r5, [sp, #140]	; 0x8c
2000038e:	0412      	lsls	r2, r2, #16
20000390:	0c1b      	lsrs	r3, r3, #16
20000392:	4313      	orrs	r3, r2
20000394:	604b      	str	r3, [r1, #4]
20000396:	0002      	movs	r2, r0
20000398:	002b      	movs	r3, r5
2000039a:	9c24      	ldr	r4, [sp, #144]	; 0x90
2000039c:	012d      	lsls	r5, r5, #4
2000039e:	600c      	str	r4, [r1, #0]
200003a0:	0f01      	lsrs	r1, r0, #28
200003a2:	430d      	orrs	r5, r1
200003a4:	0100      	lsls	r0, r0, #4
200003a6:	9517      	str	r5, [sp, #92]	; 0x5c
200003a8:	9016      	str	r0, [sp, #88]	; 0x58
200003aa:	9816      	ldr	r0, [sp, #88]	; 0x58
200003ac:	9917      	ldr	r1, [sp, #92]	; 0x5c
200003ae:	1a12      	subs	r2, r2, r0
200003b0:	418b      	sbcs	r3, r1
200003b2:	0010      	movs	r0, r2
200003b4:	0485      	lsls	r5, r0, #18
200003b6:	4833      	ldr	r0, [pc, #204]	; (20000484 <render_loop+0x3c4>)
200003b8:	049b      	lsls	r3, r3, #18
200003ba:	4683      	mov	fp, r0
200003bc:	0b92      	lsrs	r2, r2, #14
200003be:	431a      	orrs	r2, r3
200003c0:	0413      	lsls	r3, r2, #16
200003c2:	0c2a      	lsrs	r2, r5, #16
200003c4:	431a      	orrs	r2, r3
200003c6:	991a      	ldr	r1, [sp, #104]	; 0x68
200003c8:	4462      	add	r2, ip
200003ca:	445a      	add	r2, fp
200003cc:	608a      	str	r2, [r1, #8]
200003ce:	0433      	lsls	r3, r6, #16
200003d0:	0c32      	lsrs	r2, r6, #16
200003d2:	0412      	lsls	r2, r2, #16
200003d4:	0c1b      	lsrs	r3, r3, #16
200003d6:	4313      	orrs	r3, r2
200003d8:	610c      	str	r4, [r1, #16]
200003da:	17f4      	asrs	r4, r6, #31
200003dc:	60cb      	str	r3, [r1, #12]
200003de:	0122      	lsls	r2, r4, #4
200003e0:	0f33      	lsrs	r3, r6, #28
200003e2:	431a      	orrs	r2, r3
200003e4:	9219      	str	r2, [sp, #100]	; 0x64
200003e6:	0132      	lsls	r2, r6, #4
200003e8:	0023      	movs	r3, r4
200003ea:	9218      	str	r2, [sp, #96]	; 0x60
200003ec:	0032      	movs	r2, r6
200003ee:	9818      	ldr	r0, [sp, #96]	; 0x60
200003f0:	9919      	ldr	r1, [sp, #100]	; 0x64
200003f2:	1a12      	subs	r2, r2, r0
200003f4:	418b      	sbcs	r3, r1
200003f6:	001c      	movs	r4, r3
200003f8:	0b90      	lsrs	r0, r2, #14
200003fa:	04a1      	lsls	r1, r4, #18
200003fc:	4308      	orrs	r0, r1
200003fe:	0495      	lsls	r5, r2, #18
20000400:	0403      	lsls	r3, r0, #16
20000402:	0c2a      	lsrs	r2, r5, #16
20000404:	431a      	orrs	r2, r3
20000406:	991a      	ldr	r1, [sp, #104]	; 0x68
20000408:	4462      	add	r2, ip
2000040a:	445a      	add	r2, fp
2000040c:	614a      	str	r2, [r1, #20]
2000040e:	9a1b      	ldr	r2, [sp, #108]	; 0x6c
20000410:	0013      	movs	r3, r2
20000412:	2291      	movs	r2, #145	; 0x91
20000414:	0052      	lsls	r2, r2, #1
20000416:	4293      	cmp	r3, r2
20000418:	dd00      	ble.n	2000041c <render_loop+0x35c>
2000041a:	e68a      	b.n	20000132 <render_loop+0x72>
2000041c:	9a1b      	ldr	r2, [sp, #108]	; 0x6c
2000041e:	3264      	adds	r2, #100	; 0x64
20000420:	db00      	blt.n	20000424 <render_loop+0x364>
20000422:	e687      	b.n	20000134 <render_loop+0x74>
20000424:	2364      	movs	r3, #100	; 0x64
20000426:	991d      	ldr	r1, [sp, #116]	; 0x74
20000428:	425b      	negs	r3, r3
2000042a:	000a      	movs	r2, r1
2000042c:	29d2      	cmp	r1, #210	; 0xd2
2000042e:	dd00      	ble.n	20000432 <render_loop+0x372>
20000430:	e685      	b.n	2000013e <render_loop+0x7e>
20000432:	3164      	adds	r1, #100	; 0x64
20000434:	db00      	blt.n	20000438 <render_loop+0x378>
20000436:	e683      	b.n	20000140 <render_loop+0x80>
20000438:	2264      	movs	r2, #100	; 0x64
2000043a:	4252      	negs	r2, r2
2000043c:	e680      	b.n	20000140 <render_loop+0x80>
2000043e:	9b25      	ldr	r3, [sp, #148]	; 0x94
20000440:	3301      	adds	r3, #1
20000442:	9325      	str	r3, [sp, #148]	; 0x94
20000444:	2b1e      	cmp	r3, #30
20000446:	d000      	beq.n	2000044a <render_loop+0x38a>
20000448:	e643      	b.n	200000d2 <render_loop+0x12>
2000044a:	23d0      	movs	r3, #208	; 0xd0
2000044c:	2280      	movs	r2, #128	; 0x80
2000044e:	061b      	lsls	r3, r3, #24
20000450:	0392      	lsls	r2, r2, #14
20000452:	61da      	str	r2, [r3, #28]
20000454:	2300      	movs	r3, #0
20000456:	9325      	str	r3, [sp, #148]	; 0x94
20000458:	e63b      	b.n	200000d2 <render_loop+0x12>
2000045a:	46c0      	nop			; (mov r8, r8)
2000045c:	2001261c 	.word	0x2001261c
20000460:	20012c10 	.word	0x20012c10
20000464:	000007ff 	.word	0x000007ff
20000468:	20012c00 	.word	0x20012c00
2000046c:	20012414 	.word	0x20012414
20000470:	20012d24 	.word	0x20012d24
20000474:	20012c20 	.word	0x20012c20
20000478:	20012928 	.word	0x20012928
2000047c:	20012518 	.word	0x20012518
20000480:	20000488 	.word	0x20000488
20000484:	003ffff0 	.word	0x003ffff0

20000488 <sin_lookup_fp1616>:
20000488:	00000000 00000648 00000c8f 000012d5     ....H...........
20000498:	00001917 00001f56 00002590 00002bc4     ....V....%...+..
200004a8:	000031f1 00003817 00003e33 00004447     .1...8..3>..GD..
200004b8:	00004a50 0000504d 0000563e 00005c22     PJ..MP..>V.."\..
200004c8:	000061f7 000067bd 00006d74 00007319     .a...g..tm...s..
200004d8:	000078ad 00007e2e 0000839c 000088f5     .x...~..........
200004e8:	00008e39 00009368 0000987f 00009d7f     9...h...........
200004f8:	0000a267 0000a736 0000abeb 0000b085     g...6...........
20000508:	0000b504 0000b968 0000bdae 0000c1d8     ....h...........
20000518:	0000c5e4 0000c9d1 0000cd9f 0000d14d     ............M...
20000528:	0000d4db 0000d848 0000db94 0000debe     ....H...........
20000538:	0000e1c5 0000e4aa 0000e76b 0000ea09     ........k.......
20000548:	0000ec83 0000eed8 0000f109 0000f314     ................
20000558:	0000f4fa 0000f6ba 0000f853 0000f9c7     ........S.......
20000568:	0000fb14 0000fc3b 0000fd3a 0000fe13     ....;...:.......
20000578:	0000fec4 0000ff4e 0000ffb1 0000ffec     ....N...........
20000588:	00010000 0000ffec 0000ffb1 0000ff4e     ............N...
20000598:	0000fec4 0000fe13 0000fd3a 0000fc3b     ........:...;...
200005a8:	0000fb14 0000f9c7 0000f853 0000f6ba     ........S.......
200005b8:	0000f4fa 0000f314 0000f109 0000eed8     ................
200005c8:	0000ec83 0000ea09 0000e76b 0000e4aa     ........k.......
200005d8:	0000e1c5 0000debe 0000db94 0000d848     ............H...
200005e8:	0000d4db 0000d14d 0000cd9f 0000c9d1     ....M...........
200005f8:	0000c5e4 0000c1d8 0000bdae 0000b968     ............h...
20000608:	0000b504 0000b085 0000abeb 0000a736     ............6...
20000618:	0000a267 00009d7f 0000987f 00009368     g...........h...
20000628:	00008e39 000088f5 0000839c 00007e2e     9............~..
20000638:	000078ad 00007319 00006d74 000067bd     .x...s..tm...g..
20000648:	000061f7 00005c22 0000563e 0000504d     .a.."\..>V..MP..
20000658:	00004a50 00004447 00003e33 00003817     PJ..GD..3>...8..
20000668:	000031f1 00002bc4 00002590 00001f56     .1...+...%..V...
20000678:	00001917 000012d5 00000c8f 00000648     ............H...
20000688:	00000000 fffff9b8 fffff371 ffffed2b     ........q...+...
20000698:	ffffe6e9 ffffe0aa ffffda70 ffffd43c     ........p...<...
200006a8:	ffffce0f ffffc7e9 ffffc1cd ffffbbb9     ................
200006b8:	ffffb5b0 ffffafb3 ffffa9c2 ffffa3de     ................
200006c8:	ffff9e09 ffff9843 ffff928c ffff8ce7     ....C...........
200006d8:	ffff8753 ffff81d2 ffff7c64 ffff770b     S.......d|...w..
200006e8:	ffff71c7 ffff6c98 ffff6781 ffff6281     .q...l...g...b..
200006f8:	ffff5d99 ffff58ca ffff5415 ffff4f7b     .]...X...T..{O..
20000708:	ffff4afc ffff4698 ffff4252 ffff3e28     .J...F..RB..(>..
20000718:	ffff3a1c ffff362f ffff3261 ffff2eb3     .:../6..a2......
20000728:	ffff2b25 ffff27b8 ffff246c ffff2142     %+...'..l$..B!..
20000738:	ffff1e3b ffff1b56 ffff1895 ffff15f7     ;...V...........
20000748:	ffff137d ffff1128 ffff0ef7 ffff0cec     }...(...........
20000758:	ffff0b06 ffff0946 ffff07ad ffff0639     ....F.......9...
20000768:	ffff04ec ffff03c5 ffff02c6 ffff01ed     ................
20000778:	ffff013c ffff00b2 ffff004f ffff0014     <.......O.......
20000788:	ffff0000 ffff0014 ffff004f ffff00b2     ........O.......
20000798:	ffff013c ffff01ed ffff02c6 ffff03c5     <...............
200007a8:	ffff04ec ffff0639 ffff07ad ffff0946     ....9.......F...
200007b8:	ffff0b06 ffff0cec ffff0ef7 ffff1128     ............(...
200007c8:	ffff137d ffff15f7 ffff1895 ffff1b56     }...........V...
200007d8:	ffff1e3b ffff2142 ffff246c ffff27b8     ;...B!..l$...'..
200007e8:	ffff2b25 ffff2eb3 ffff3261 ffff362f     %+......a2../6..
200007f8:	ffff3a1c ffff3e28 ffff4252 ffff4698     .:..(>..RB...F..
20000808:	ffff4afc ffff4f7b ffff5415 ffff58ca     .J..{O...T...X..
20000818:	ffff5d99 ffff6281 ffff6781 ffff6c98     .]...b...g...l..
20000828:	ffff71c7 ffff770b ffff7c64 ffff81d2     .q...w..d|......
20000838:	ffff8753 ffff8ce7 ffff928c ffff9843     S...........C...
20000848:	ffff9e09 ffffa3de ffffa9c2 ffffafb3     ................
20000858:	ffffb5b0 ffffbbb9 ffffc1cd ffffc7e9     ................
20000868:	ffffce0f ffffd43c ffffda70 ffffe0aa     ....<...p.......
20000878:	ffffe6e9 ffffed2b fffff371 fffff9b8     ....+...q.......

20000888 <mutex_enter_blocking>:
20000888:	23d0      	movs	r3, #208	; 0xd0
2000088a:	b530      	push	{r4, r5, lr}
2000088c:	2500      	movs	r5, #0
2000088e:	061b      	lsls	r3, r3, #24
20000890:	2400      	movs	r4, #0
20000892:	575d      	ldrsb	r5, [r3, r5]
20000894:	e006      	b.n	200008a4 <mutex_enter_blocking+0x1c>
20000896:	6803      	ldr	r3, [r0, #0]
20000898:	f3bf 8f5f 	dmb	sy
2000089c:	601c      	str	r4, [r3, #0]
2000089e:	f381 8810 	msr	PRIMASK, r1
200008a2:	bf20      	wfe
200008a4:	6802      	ldr	r2, [r0, #0]
200008a6:	f3ef 8110 	mrs	r1, PRIMASK
200008aa:	b672      	cpsid	i
200008ac:	6813      	ldr	r3, [r2, #0]
200008ae:	2b00      	cmp	r3, #0
200008b0:	d0fc      	beq.n	200008ac <mutex_enter_blocking+0x24>
200008b2:	f3bf 8f5f 	dmb	sy
200008b6:	7903      	ldrb	r3, [r0, #4]
200008b8:	2b7f      	cmp	r3, #127	; 0x7f
200008ba:	d9ec      	bls.n	20000896 <mutex_enter_blocking+0xe>
200008bc:	7105      	strb	r5, [r0, #4]
200008be:	6803      	ldr	r3, [r0, #0]
200008c0:	f3bf 8f5f 	dmb	sy
200008c4:	2200      	movs	r2, #0
200008c6:	601a      	str	r2, [r3, #0]
200008c8:	f381 8810 	msr	PRIMASK, r1
200008cc:	bd30      	pop	{r4, r5, pc}
200008ce:	46c0      	nop			; (mov r8, r8)

200008d0 <mutex_try_enter>:
200008d0:	0003      	movs	r3, r0
200008d2:	b510      	push	{r4, lr}
200008d4:	6800      	ldr	r0, [r0, #0]
200008d6:	f3ef 8410 	mrs	r4, PRIMASK
200008da:	b672      	cpsid	i
200008dc:	6802      	ldr	r2, [r0, #0]
200008de:	2a00      	cmp	r2, #0
200008e0:	d0fc      	beq.n	200008dc <mutex_try_enter+0xc>
200008e2:	f3bf 8f5f 	dmb	sy
200008e6:	2204      	movs	r2, #4
200008e8:	569a      	ldrsb	r2, [r3, r2]
200008ea:	2a00      	cmp	r2, #0
200008ec:	db0b      	blt.n	20000906 <mutex_try_enter+0x36>
200008ee:	2900      	cmp	r1, #0
200008f0:	d00f      	beq.n	20000912 <mutex_try_enter+0x42>
200008f2:	2000      	movs	r0, #0
200008f4:	600a      	str	r2, [r1, #0]
200008f6:	681b      	ldr	r3, [r3, #0]
200008f8:	f3bf 8f5f 	dmb	sy
200008fc:	2200      	movs	r2, #0
200008fe:	601a      	str	r2, [r3, #0]
20000900:	f384 8810 	msr	PRIMASK, r4
20000904:	bd10      	pop	{r4, pc}
20000906:	22d0      	movs	r2, #208	; 0xd0
20000908:	0612      	lsls	r2, r2, #24
2000090a:	6812      	ldr	r2, [r2, #0]
2000090c:	2001      	movs	r0, #1
2000090e:	711a      	strb	r2, [r3, #4]
20000910:	e7f1      	b.n	200008f6 <mutex_try_enter+0x26>
20000912:	2000      	movs	r0, #0
20000914:	e7ef      	b.n	200008f6 <mutex_try_enter+0x26>
20000916:	46c0      	nop			; (mov r8, r8)

20000918 <mutex_exit>:
20000918:	6802      	ldr	r2, [r0, #0]
2000091a:	f3ef 8110 	mrs	r1, PRIMASK
2000091e:	b672      	cpsid	i
20000920:	6813      	ldr	r3, [r2, #0]
20000922:	2b00      	cmp	r3, #0
20000924:	d0fc      	beq.n	20000920 <mutex_exit+0x8>
20000926:	f3bf 8f5f 	dmb	sy
2000092a:	23ff      	movs	r3, #255	; 0xff
2000092c:	7103      	strb	r3, [r0, #4]
2000092e:	6803      	ldr	r3, [r0, #0]
20000930:	f3bf 8f5f 	dmb	sy
20000934:	2200      	movs	r2, #0
20000936:	601a      	str	r2, [r3, #0]
20000938:	f381 8810 	msr	PRIMASK, r1
2000093c:	bf40      	sev
2000093e:	4770      	bx	lr

20000940 <dvi_dma_irq_handler>:
20000940:	b5f8      	push	{r3, r4, r5, r6, r7, lr}
20000942:	0001      	movs	r1, r0
20000944:	46de      	mov	lr, fp
20000946:	4657      	mov	r7, sl
20000948:	464e      	mov	r6, r9
2000094a:	4645      	mov	r5, r8
2000094c:	0004      	movs	r4, r0
2000094e:	b5e0      	push	{r5, r6, r7, lr}
20000950:	6800      	ldr	r0, [r0, #0]
20000952:	3134      	adds	r1, #52	; 0x34
20000954:	f000 fbd8 	bl	20001108 <dvi_timing_state_advance>
20000958:	239b      	movs	r3, #155	; 0x9b
2000095a:	009b      	lsls	r3, r3, #2
2000095c:	58e3      	ldr	r3, [r4, r3]
2000095e:	2b00      	cmp	r3, #0
20000960:	d02e      	beq.n	200009c0 <dvi_dma_irq_handler+0x80>
20000962:	23a1      	movs	r3, #161	; 0xa1
20000964:	009b      	lsls	r3, r3, #2
20000966:	58e3      	ldr	r3, [r4, r3]
20000968:	f3ef 8510 	mrs	r5, PRIMASK
2000096c:	b672      	cpsid	i
2000096e:	681a      	ldr	r2, [r3, #0]
20000970:	2a00      	cmp	r2, #0
20000972:	d0fc      	beq.n	2000096e <dvi_dma_irq_handler+0x2e>
20000974:	f3bf 8f5f 	dmb	sy
20000978:	23a1      	movs	r3, #161	; 0xa1
2000097a:	009b      	lsls	r3, r3, #2
2000097c:	18e1      	adds	r1, r4, r3
2000097e:	890b      	ldrh	r3, [r1, #8]
20000980:	894a      	ldrh	r2, [r1, #10]
20000982:	89c8      	ldrh	r0, [r1, #14]
20000984:	1a9a      	subs	r2, r3, r2
20000986:	d500      	bpl.n	2000098a <dvi_dma_irq_handler+0x4a>
20000988:	e135      	b.n	20000bf6 <dvi_dma_irq_handler+0x2b6>
2000098a:	4282      	cmp	r2, r0
2000098c:	d100      	bne.n	20000990 <dvi_dma_irq_handler+0x50>
2000098e:	e1dd      	b.n	20000d4c <dvi_dma_irq_handler+0x40c>
20000990:	229b      	movs	r2, #155	; 0x9b
20000992:	0092      	lsls	r2, r2, #2
20000994:	58a6      	ldr	r6, [r4, r2]
20000996:	684f      	ldr	r7, [r1, #4]
20000998:	009a      	lsls	r2, r3, #2
2000099a:	51d6      	str	r6, [r2, r7]
2000099c:	2200      	movs	r2, #0
2000099e:	0016      	movs	r6, r2
200009a0:	3301      	adds	r3, #1
200009a2:	b29b      	uxth	r3, r3
200009a4:	4298      	cmp	r0, r3
200009a6:	4156      	adcs	r6, r2
200009a8:	4270      	negs	r0, r6
200009aa:	4003      	ands	r3, r0
200009ac:	810b      	strh	r3, [r1, #8]
200009ae:	23a1      	movs	r3, #161	; 0xa1
200009b0:	009b      	lsls	r3, r3, #2
200009b2:	58e3      	ldr	r3, [r4, r3]
200009b4:	f3bf 8f5f 	dmb	sy
200009b8:	601a      	str	r2, [r3, #0]
200009ba:	f385 8810 	msr	PRIMASK, r5
200009be:	bf40      	sev
200009c0:	239a      	movs	r3, #154	; 0x9a
200009c2:	229b      	movs	r2, #155	; 0x9b
200009c4:	009b      	lsls	r3, r3, #2
200009c6:	58e1      	ldr	r1, [r4, r3]
200009c8:	0092      	lsls	r2, r2, #2
200009ca:	50a1      	str	r1, [r4, r2]
200009cc:	2200      	movs	r2, #0
200009ce:	50e2      	str	r2, [r4, r3]
200009d0:	68a2      	ldr	r2, [r4, #8]
200009d2:	6823      	ldr	r3, [r4, #0]
200009d4:	0191      	lsls	r1, r2, #6
200009d6:	4a8b      	ldr	r2, [pc, #556]	; (20000c04 <dvi_dma_irq_handler+0x2c4>)
200009d8:	691b      	ldr	r3, [r3, #16]
200009da:	4694      	mov	ip, r2
200009dc:	085b      	lsrs	r3, r3, #1
200009de:	4461      	add	r1, ip
200009e0:	680a      	ldr	r2, [r1, #0]
200009e2:	4293      	cmp	r3, r2
200009e4:	d1fc      	bne.n	200009e0 <dvi_dma_irq_handler+0xa0>
200009e6:	69a2      	ldr	r2, [r4, #24]
200009e8:	0191      	lsls	r1, r2, #6
200009ea:	4a86      	ldr	r2, [pc, #536]	; (20000c04 <dvi_dma_irq_handler+0x2c4>)
200009ec:	4694      	mov	ip, r2
200009ee:	4461      	add	r1, ip
200009f0:	680a      	ldr	r2, [r1, #0]
200009f2:	4293      	cmp	r3, r2
200009f4:	d1fc      	bne.n	200009f0 <dvi_dma_irq_handler+0xb0>
200009f6:	6aa2      	ldr	r2, [r4, #40]	; 0x28
200009f8:	0191      	lsls	r1, r2, #6
200009fa:	4a82      	ldr	r2, [pc, #520]	; (20000c04 <dvi_dma_irq_handler+0x2c4>)
200009fc:	4694      	mov	ip, r2
200009fe:	4461      	add	r1, ip
20000a00:	680a      	ldr	r2, [r1, #0]
20000a02:	429a      	cmp	r2, r3
20000a04:	d1fc      	bne.n	20000a00 <dvi_dma_irq_handler+0xc0>
20000a06:	229d      	movs	r2, #157	; 0x9d
20000a08:	239c      	movs	r3, #156	; 0x9c
20000a0a:	0092      	lsls	r2, r2, #2
20000a0c:	4692      	mov	sl, r2
20000a0e:	009b      	lsls	r3, r3, #2
20000a10:	58e2      	ldr	r2, [r4, r3]
20000a12:	44a2      	add	sl, r4
20000a14:	2a00      	cmp	r2, #0
20000a16:	d100      	bne.n	20000a1a <dvi_dma_irq_handler+0xda>
20000a18:	e079      	b.n	20000b0e <dvi_dma_irq_handler+0x1ce>
20000a1a:	229d      	movs	r2, #157	; 0x9d
20000a1c:	0092      	lsls	r2, r2, #2
20000a1e:	4693      	mov	fp, r2
20000a20:	3210      	adds	r2, #16
20000a22:	0015      	movs	r5, r2
20000a24:	4698      	mov	r8, r3
20000a26:	18a1      	adds	r1, r4, r2
20000a28:	e018      	b.n	20000a5c <dvi_dma_irq_handler+0x11c>
20000a2a:	4681      	mov	r9, r0
20000a2c:	4660      	mov	r0, ip
20000a2e:	009a      	lsls	r2, r3, #2
20000a30:	684f      	ldr	r7, [r1, #4]
20000a32:	3301      	adds	r3, #1
20000a34:	b29b      	uxth	r3, r3
20000a36:	51d0      	str	r0, [r2, r7]
20000a38:	42b3      	cmp	r3, r6
20000a3a:	d95a      	bls.n	20000af2 <dvi_dma_irq_handler+0x1b2>
20000a3c:	2200      	movs	r2, #0
20000a3e:	5963      	ldr	r3, [r4, r5]
20000a40:	810a      	strh	r2, [r1, #8]
20000a42:	f3bf 8f5f 	dmb	sy
20000a46:	601a      	str	r2, [r3, #0]
20000a48:	f389 8810 	msr	PRIMASK, r9
20000a4c:	bf40      	sev
20000a4e:	4643      	mov	r3, r8
20000a50:	4642      	mov	r2, r8
20000a52:	58e3      	ldr	r3, [r4, r3]
20000a54:	3b01      	subs	r3, #1
20000a56:	50a3      	str	r3, [r4, r2]
20000a58:	2b00      	cmp	r3, #0
20000a5a:	d058      	beq.n	20000b0e <dvi_dma_irq_handler+0x1ce>
20000a5c:	465b      	mov	r3, fp
20000a5e:	58e0      	ldr	r0, [r4, r3]
20000a60:	f3ef 8210 	mrs	r2, PRIMASK
20000a64:	b672      	cpsid	i
20000a66:	6803      	ldr	r3, [r0, #0]
20000a68:	2b00      	cmp	r3, #0
20000a6a:	d0fc      	beq.n	20000a66 <dvi_dma_irq_handler+0x126>
20000a6c:	f3bf 8f5f 	dmb	sy
20000a70:	4653      	mov	r3, sl
20000a72:	4650      	mov	r0, sl
20000a74:	895b      	ldrh	r3, [r3, #10]
20000a76:	8900      	ldrh	r0, [r0, #8]
20000a78:	1ac0      	subs	r0, r0, r3
20000a7a:	d503      	bpl.n	20000a84 <dvi_dma_irq_handler+0x144>
20000a7c:	4656      	mov	r6, sl
20000a7e:	89f6      	ldrh	r6, [r6, #14]
20000a80:	3601      	adds	r6, #1
20000a82:	1980      	adds	r0, r0, r6
20000a84:	2800      	cmp	r0, #0
20000a86:	d03a      	beq.n	20000afe <dvi_dma_irq_handler+0x1be>
20000a88:	4656      	mov	r6, sl
20000a8a:	6876      	ldr	r6, [r6, #4]
20000a8c:	0098      	lsls	r0, r3, #2
20000a8e:	5980      	ldr	r0, [r0, r6]
20000a90:	2700      	movs	r7, #0
20000a92:	2600      	movs	r6, #0
20000a94:	4684      	mov	ip, r0
20000a96:	485c      	ldr	r0, [pc, #368]	; (20000c08 <dvi_dma_irq_handler+0x2c8>)
20000a98:	3301      	adds	r3, #1
20000a9a:	5a20      	ldrh	r0, [r4, r0]
20000a9c:	b29b      	uxth	r3, r3
20000a9e:	4298      	cmp	r0, r3
20000aa0:	4177      	adcs	r7, r6
20000aa2:	4278      	negs	r0, r7
20000aa4:	4003      	ands	r3, r0
20000aa6:	4650      	mov	r0, sl
20000aa8:	8143      	strh	r3, [r0, #10]
20000aaa:	465b      	mov	r3, fp
20000aac:	58e3      	ldr	r3, [r4, r3]
20000aae:	f3bf 8f5f 	dmb	sy
20000ab2:	601e      	str	r6, [r3, #0]
20000ab4:	f382 8810 	msr	PRIMASK, r2
20000ab8:	bf40      	sev
20000aba:	5963      	ldr	r3, [r4, r5]
20000abc:	f3ef 8010 	mrs	r0, PRIMASK
20000ac0:	b672      	cpsid	i
20000ac2:	681a      	ldr	r2, [r3, #0]
20000ac4:	2a00      	cmp	r2, #0
20000ac6:	d0fc      	beq.n	20000ac2 <dvi_dma_irq_handler+0x182>
20000ac8:	f3bf 8f5f 	dmb	sy
20000acc:	890b      	ldrh	r3, [r1, #8]
20000ace:	894a      	ldrh	r2, [r1, #10]
20000ad0:	89ce      	ldrh	r6, [r1, #14]
20000ad2:	1a9a      	subs	r2, r3, r2
20000ad4:	d502      	bpl.n	20000adc <dvi_dma_irq_handler+0x19c>
20000ad6:	1c77      	adds	r7, r6, #1
20000ad8:	46b9      	mov	r9, r7
20000ada:	444a      	add	r2, r9
20000adc:	4296      	cmp	r6, r2
20000ade:	d1a4      	bne.n	20000a2a <dvi_dma_irq_handler+0xea>
20000ae0:	5963      	ldr	r3, [r4, r5]
20000ae2:	f3bf 8f5f 	dmb	sy
20000ae6:	2200      	movs	r2, #0
20000ae8:	601a      	str	r2, [r3, #0]
20000aea:	f380 8810 	msr	PRIMASK, r0
20000aee:	bf20      	wfe
20000af0:	e7e3      	b.n	20000aba <dvi_dma_irq_handler+0x17a>
20000af2:	810b      	strh	r3, [r1, #8]
20000af4:	5963      	ldr	r3, [r4, r5]
20000af6:	f3bf 8f5f 	dmb	sy
20000afa:	2200      	movs	r2, #0
20000afc:	e7a3      	b.n	20000a46 <dvi_dma_irq_handler+0x106>
20000afe:	239d      	movs	r3, #157	; 0x9d
20000b00:	009b      	lsls	r3, r3, #2
20000b02:	58e3      	ldr	r3, [r4, r3]
20000b04:	f3bf 8f5f 	dmb	sy
20000b08:	6018      	str	r0, [r3, #0]
20000b0a:	f382 8810 	msr	PRIMASK, r2
20000b0e:	2338      	movs	r3, #56	; 0x38
20000b10:	5ce3      	ldrb	r3, [r4, r3]
20000b12:	2b03      	cmp	r3, #3
20000b14:	d100      	bne.n	20000b18 <dvi_dma_irq_handler+0x1d8>
20000b16:	e07d      	b.n	20000c14 <dvi_dma_irq_handler+0x2d4>
20000b18:	2b01      	cmp	r3, #1
20000b1a:	d039      	beq.n	20000b90 <dvi_dma_irq_handler+0x250>
20000b1c:	26a0      	movs	r6, #160	; 0xa0
20000b1e:	05f6      	lsls	r6, r6, #23
20000b20:	46b4      	mov	ip, r6
20000b22:	0026      	movs	r6, r4
20000b24:	6863      	ldr	r3, [r4, #4]
20000b26:	68a5      	ldr	r5, [r4, #8]
20000b28:	02d9      	lsls	r1, r3, #11
20000b2a:	01ad      	lsls	r5, r5, #6
20000b2c:	019b      	lsls	r3, r3, #6
20000b2e:	4463      	add	r3, ip
20000b30:	4465      	add	r5, ip
20000b32:	36e8      	adds	r6, #232	; 0xe8
20000b34:	601e      	str	r6, [r3, #0]
20000b36:	605d      	str	r5, [r3, #4]
20000b38:	2504      	movs	r5, #4
20000b3a:	0027      	movs	r7, r4
20000b3c:	4833      	ldr	r0, [pc, #204]	; (20000c0c <dvi_dma_irq_handler+0x2cc>)
20000b3e:	4a34      	ldr	r2, [pc, #208]	; (20000c10 <dvi_dma_irq_handler+0x2d0>)
20000b40:	4001      	ands	r1, r0
20000b42:	4311      	orrs	r1, r2
20000b44:	609d      	str	r5, [r3, #8]
20000b46:	6119      	str	r1, [r3, #16]
20000b48:	6963      	ldr	r3, [r4, #20]
20000b4a:	69a6      	ldr	r6, [r4, #24]
20000b4c:	02d9      	lsls	r1, r3, #11
20000b4e:	4001      	ands	r1, r0
20000b50:	01b6      	lsls	r6, r6, #6
20000b52:	019b      	lsls	r3, r3, #6
20000b54:	3729      	adds	r7, #41	; 0x29
20000b56:	4463      	add	r3, ip
20000b58:	4311      	orrs	r1, r2
20000b5a:	4466      	add	r6, ip
20000b5c:	37ff      	adds	r7, #255	; 0xff
20000b5e:	601f      	str	r7, [r3, #0]
20000b60:	605e      	str	r6, [r3, #4]
20000b62:	609d      	str	r5, [r3, #8]
20000b64:	6119      	str	r1, [r3, #16]
20000b66:	6a63      	ldr	r3, [r4, #36]	; 0x24
20000b68:	02d9      	lsls	r1, r3, #11
20000b6a:	4008      	ands	r0, r1
20000b6c:	6aa1      	ldr	r1, [r4, #40]	; 0x28
20000b6e:	019b      	lsls	r3, r3, #6
20000b70:	0189      	lsls	r1, r1, #6
20000b72:	3449      	adds	r4, #73	; 0x49
20000b74:	4463      	add	r3, ip
20000b76:	4302      	orrs	r2, r0
20000b78:	4461      	add	r1, ip
20000b7a:	34ff      	adds	r4, #255	; 0xff
20000b7c:	601c      	str	r4, [r3, #0]
20000b7e:	6059      	str	r1, [r3, #4]
20000b80:	609d      	str	r5, [r3, #8]
20000b82:	611a      	str	r2, [r3, #16]
20000b84:	bc3c      	pop	{r2, r3, r4, r5}
20000b86:	4690      	mov	r8, r2
20000b88:	4699      	mov	r9, r3
20000b8a:	46a2      	mov	sl, r4
20000b8c:	46ab      	mov	fp, r5
20000b8e:	bdf8      	pop	{r3, r4, r5, r6, r7, pc}
20000b90:	26a0      	movs	r6, #160	; 0xa0
20000b92:	05f6      	lsls	r6, r6, #23
20000b94:	46b4      	mov	ip, r6
20000b96:	0026      	movs	r6, r4
20000b98:	6863      	ldr	r3, [r4, #4]
20000b9a:	68a5      	ldr	r5, [r4, #8]
20000b9c:	02d9      	lsls	r1, r3, #11
20000b9e:	01ad      	lsls	r5, r5, #6
20000ba0:	019b      	lsls	r3, r3, #6
20000ba2:	4463      	add	r3, ip
20000ba4:	4465      	add	r5, ip
20000ba6:	3668      	adds	r6, #104	; 0x68
20000ba8:	601e      	str	r6, [r3, #0]
20000baa:	605d      	str	r5, [r3, #4]
20000bac:	2504      	movs	r5, #4
20000bae:	0027      	movs	r7, r4
20000bb0:	4816      	ldr	r0, [pc, #88]	; (20000c0c <dvi_dma_irq_handler+0x2cc>)
20000bb2:	4a17      	ldr	r2, [pc, #92]	; (20000c10 <dvi_dma_irq_handler+0x2d0>)
20000bb4:	4001      	ands	r1, r0
20000bb6:	4311      	orrs	r1, r2
20000bb8:	609d      	str	r5, [r3, #8]
20000bba:	6119      	str	r1, [r3, #16]
20000bbc:	6963      	ldr	r3, [r4, #20]
20000bbe:	69a6      	ldr	r6, [r4, #24]
20000bc0:	02d9      	lsls	r1, r3, #11
20000bc2:	4001      	ands	r1, r0
20000bc4:	01b6      	lsls	r6, r6, #6
20000bc6:	019b      	lsls	r3, r3, #6
20000bc8:	4463      	add	r3, ip
20000bca:	4311      	orrs	r1, r2
20000bcc:	4466      	add	r6, ip
20000bce:	37a8      	adds	r7, #168	; 0xa8
20000bd0:	601f      	str	r7, [r3, #0]
20000bd2:	605e      	str	r6, [r3, #4]
20000bd4:	609d      	str	r5, [r3, #8]
20000bd6:	6119      	str	r1, [r3, #16]
20000bd8:	6a63      	ldr	r3, [r4, #36]	; 0x24
20000bda:	02d9      	lsls	r1, r3, #11
20000bdc:	4008      	ands	r0, r1
20000bde:	6aa1      	ldr	r1, [r4, #40]	; 0x28
20000be0:	019b      	lsls	r3, r3, #6
20000be2:	0189      	lsls	r1, r1, #6
20000be4:	4463      	add	r3, ip
20000be6:	4302      	orrs	r2, r0
20000be8:	4461      	add	r1, ip
20000bea:	34c8      	adds	r4, #200	; 0xc8
20000bec:	601c      	str	r4, [r3, #0]
20000bee:	6059      	str	r1, [r3, #4]
20000bf0:	609d      	str	r5, [r3, #8]
20000bf2:	611a      	str	r2, [r3, #16]
20000bf4:	e7c6      	b.n	20000b84 <dvi_dma_irq_handler+0x244>
20000bf6:	1c46      	adds	r6, r0, #1
20000bf8:	1992      	adds	r2, r2, r6
20000bfa:	4282      	cmp	r2, r0
20000bfc:	d000      	beq.n	20000c00 <dvi_dma_irq_handler+0x2c0>
20000bfe:	e6c7      	b.n	20000990 <dvi_dma_irq_handler+0x50>
20000c00:	e0a4      	b.n	20000d4c <dvi_dma_irq_handler+0x40c>
20000c02:	46c0      	nop			; (mov r8, r8)
20000c04:	50000804 	.word	0x50000804
20000c08:	00000282 	.word	0x00000282
20000c0c:	ff1ffffd 	.word	0xff1ffffd
20000c10:	001f8539 	.word	0x001f8539
20000c14:	239d      	movs	r3, #157	; 0x9d
20000c16:	009b      	lsls	r3, r3, #2
20000c18:	58e2      	ldr	r2, [r4, r3]
20000c1a:	f3ef 8010 	mrs	r0, PRIMASK
20000c1e:	b672      	cpsid	i
20000c20:	6813      	ldr	r3, [r2, #0]
20000c22:	2b00      	cmp	r3, #0
20000c24:	d0fc      	beq.n	20000c20 <dvi_dma_irq_handler+0x2e0>
20000c26:	f3bf 8f5f 	dmb	sy
20000c2a:	239d      	movs	r3, #157	; 0x9d
20000c2c:	009b      	lsls	r3, r3, #2
20000c2e:	469a      	mov	sl, r3
20000c30:	44a2      	add	sl, r4
20000c32:	4653      	mov	r3, sl
20000c34:	895a      	ldrh	r2, [r3, #10]
20000c36:	891b      	ldrh	r3, [r3, #8]
20000c38:	1a9b      	subs	r3, r3, r2
20000c3a:	d500      	bpl.n	20000c3e <dvi_dma_irq_handler+0x2fe>
20000c3c:	e0ea      	b.n	20000e14 <dvi_dma_irq_handler+0x4d4>
20000c3e:	2b00      	cmp	r3, #0
20000c40:	d100      	bne.n	20000c44 <dvi_dma_irq_handler+0x304>
20000c42:	e08f      	b.n	20000d64 <dvi_dma_irq_handler+0x424>
20000c44:	4651      	mov	r1, sl
20000c46:	239d      	movs	r3, #157	; 0x9d
20000c48:	6849      	ldr	r1, [r1, #4]
20000c4a:	009b      	lsls	r3, r3, #2
20000c4c:	0092      	lsls	r2, r2, #2
20000c4e:	5851      	ldr	r1, [r2, r1]
20000c50:	58e2      	ldr	r2, [r4, r3]
20000c52:	f3bf 8f5f 	dmb	sy
20000c56:	2500      	movs	r5, #0
20000c58:	6015      	str	r5, [r2, #0]
20000c5a:	f380 8810 	msr	PRIMASK, r0
20000c5e:	6b62      	ldr	r2, [r4, #52]	; 0x34
20000c60:	07d2      	lsls	r2, r2, #31
20000c62:	d52e      	bpl.n	20000cc2 <dvi_dma_irq_handler+0x382>
20000c64:	0019      	movs	r1, r3
20000c66:	2600      	movs	r6, #0
20000c68:	4655      	mov	r5, sl
20000c6a:	5863      	ldr	r3, [r4, r1]
20000c6c:	f3ef 8010 	mrs	r0, PRIMASK
20000c70:	b672      	cpsid	i
20000c72:	681a      	ldr	r2, [r3, #0]
20000c74:	2a00      	cmp	r2, #0
20000c76:	d0fc      	beq.n	20000c72 <dvi_dma_irq_handler+0x332>
20000c78:	f3bf 8f5f 	dmb	sy
20000c7c:	896b      	ldrh	r3, [r5, #10]
20000c7e:	892a      	ldrh	r2, [r5, #8]
20000c80:	1ad2      	subs	r2, r2, r3
20000c82:	d500      	bpl.n	20000c86 <dvi_dma_irq_handler+0x346>
20000c84:	e0cb      	b.n	20000e1e <dvi_dma_irq_handler+0x4de>
20000c86:	d100      	bne.n	20000c8a <dvi_dma_irq_handler+0x34a>
20000c88:	e0cf      	b.n	20000e2a <dvi_dma_irq_handler+0x4ea>
20000c8a:	6869      	ldr	r1, [r5, #4]
20000c8c:	009a      	lsls	r2, r3, #2
20000c8e:	5851      	ldr	r1, [r2, r1]
20000c90:	4a6a      	ldr	r2, [pc, #424]	; (20000e3c <dvi_dma_irq_handler+0x4fc>)
20000c92:	46aa      	mov	sl, r5
20000c94:	5aa5      	ldrh	r5, [r4, r2]
20000c96:	2200      	movs	r2, #0
20000c98:	0016      	movs	r6, r2
20000c9a:	3301      	adds	r3, #1
20000c9c:	b29b      	uxth	r3, r3
20000c9e:	429d      	cmp	r5, r3
20000ca0:	4156      	adcs	r6, r2
20000ca2:	4275      	negs	r5, r6
20000ca4:	402b      	ands	r3, r5
20000ca6:	4655      	mov	r5, sl
20000ca8:	816b      	strh	r3, [r5, #10]
20000caa:	239d      	movs	r3, #157	; 0x9d
20000cac:	009b      	lsls	r3, r3, #2
20000cae:	58e3      	ldr	r3, [r4, r3]
20000cb0:	f3bf 8f5f 	dmb	sy
20000cb4:	601a      	str	r2, [r3, #0]
20000cb6:	f380 8810 	msr	PRIMASK, r0
20000cba:	bf40      	sev
20000cbc:	239a      	movs	r3, #154	; 0x9a
20000cbe:	009b      	lsls	r3, r3, #2
20000cc0:	50e1      	str	r1, [r4, r3]
20000cc2:	2338      	movs	r3, #56	; 0x38
20000cc4:	5ce3      	ldrb	r3, [r4, r3]
20000cc6:	2b01      	cmp	r3, #1
20000cc8:	d100      	bne.n	20000ccc <dvi_dma_irq_handler+0x38c>
20000cca:	e761      	b.n	20000b90 <dvi_dma_irq_handler+0x250>
20000ccc:	2b03      	cmp	r3, #3
20000cce:	d000      	beq.n	20000cd2 <dvi_dma_irq_handler+0x392>
20000cd0:	e724      	b.n	20000b1c <dvi_dma_irq_handler+0x1dc>
20000cd2:	2900      	cmp	r1, #0
20000cd4:	d05e      	beq.n	20000d94 <dvi_dma_irq_handler+0x454>
20000cd6:	0026      	movs	r6, r4
20000cd8:	27a0      	movs	r7, #160	; 0xa0
20000cda:	3669      	adds	r6, #105	; 0x69
20000cdc:	36ff      	adds	r6, #255	; 0xff
20000cde:	0032      	movs	r2, r6
20000ce0:	6820      	ldr	r0, [r4, #0]
20000ce2:	05ff      	lsls	r7, r7, #23
20000ce4:	f000 fa32 	bl	2000114c <dvi_update_scanline_data_dma>
20000ce8:	46bc      	mov	ip, r7
20000cea:	6863      	ldr	r3, [r4, #4]
20000cec:	68a0      	ldr	r0, [r4, #8]
20000cee:	02d9      	lsls	r1, r3, #11
20000cf0:	0180      	lsls	r0, r0, #6
20000cf2:	019b      	lsls	r3, r3, #6
20000cf4:	4463      	add	r3, ip
20000cf6:	4460      	add	r0, ip
20000cf8:	601e      	str	r6, [r3, #0]
20000cfa:	6058      	str	r0, [r3, #4]
20000cfc:	2004      	movs	r0, #4
20000cfe:	0027      	movs	r7, r4
20000d00:	4d4f      	ldr	r5, [pc, #316]	; (20000e40 <dvi_dma_irq_handler+0x500>)
20000d02:	4a50      	ldr	r2, [pc, #320]	; (20000e44 <dvi_dma_irq_handler+0x504>)
20000d04:	4029      	ands	r1, r5
20000d06:	4311      	orrs	r1, r2
20000d08:	6098      	str	r0, [r3, #8]
20000d0a:	6119      	str	r1, [r3, #16]
20000d0c:	6963      	ldr	r3, [r4, #20]
20000d0e:	69a6      	ldr	r6, [r4, #24]
20000d10:	02d9      	lsls	r1, r3, #11
20000d12:	4029      	ands	r1, r5
20000d14:	01b6      	lsls	r6, r6, #6
20000d16:	019b      	lsls	r3, r3, #6
20000d18:	37a9      	adds	r7, #169	; 0xa9
20000d1a:	4463      	add	r3, ip
20000d1c:	4311      	orrs	r1, r2
20000d1e:	4466      	add	r6, ip
20000d20:	37ff      	adds	r7, #255	; 0xff
20000d22:	601f      	str	r7, [r3, #0]
20000d24:	605e      	str	r6, [r3, #4]
20000d26:	6098      	str	r0, [r3, #8]
20000d28:	6119      	str	r1, [r3, #16]
20000d2a:	6a63      	ldr	r3, [r4, #36]	; 0x24
20000d2c:	02d9      	lsls	r1, r3, #11
20000d2e:	400d      	ands	r5, r1
20000d30:	432a      	orrs	r2, r5
20000d32:	0025      	movs	r5, r4
20000d34:	6aa1      	ldr	r1, [r4, #40]	; 0x28
20000d36:	019b      	lsls	r3, r3, #6
20000d38:	0189      	lsls	r1, r1, #6
20000d3a:	35c9      	adds	r5, #201	; 0xc9
20000d3c:	4463      	add	r3, ip
20000d3e:	4461      	add	r1, ip
20000d40:	35ff      	adds	r5, #255	; 0xff
20000d42:	601d      	str	r5, [r3, #0]
20000d44:	6059      	str	r1, [r3, #4]
20000d46:	6098      	str	r0, [r3, #8]
20000d48:	611a      	str	r2, [r3, #16]
20000d4a:	e059      	b.n	20000e00 <dvi_dma_irq_handler+0x4c0>
20000d4c:	23a1      	movs	r3, #161	; 0xa1
20000d4e:	009b      	lsls	r3, r3, #2
20000d50:	58e3      	ldr	r3, [r4, r3]
20000d52:	f3bf 8f5f 	dmb	sy
20000d56:	2200      	movs	r2, #0
20000d58:	601a      	str	r2, [r3, #0]
20000d5a:	f385 8810 	msr	PRIMASK, r5
20000d5e:	483a      	ldr	r0, [pc, #232]	; (20000e48 <dvi_dma_irq_handler+0x508>)
20000d60:	f000 fb92 	bl	20001488 <__panic_veneer>
20000d64:	229d      	movs	r2, #157	; 0x9d
20000d66:	0092      	lsls	r2, r2, #2
20000d68:	58a2      	ldr	r2, [r4, r2]
20000d6a:	f3bf 8f5f 	dmb	sy
20000d6e:	6013      	str	r3, [r2, #0]
20000d70:	f380 8810 	msr	PRIMASK, r0
20000d74:	6b63      	ldr	r3, [r4, #52]	; 0x34
20000d76:	07db      	lsls	r3, r3, #31
20000d78:	d504      	bpl.n	20000d84 <dvi_dma_irq_handler+0x444>
20000d7a:	229c      	movs	r2, #156	; 0x9c
20000d7c:	0092      	lsls	r2, r2, #2
20000d7e:	58a3      	ldr	r3, [r4, r2]
20000d80:	3301      	adds	r3, #1
20000d82:	50a3      	str	r3, [r4, r2]
20000d84:	2338      	movs	r3, #56	; 0x38
20000d86:	5ce3      	ldrb	r3, [r4, r3]
20000d88:	2b01      	cmp	r3, #1
20000d8a:	d100      	bne.n	20000d8e <dvi_dma_irq_handler+0x44e>
20000d8c:	e700      	b.n	20000b90 <dvi_dma_irq_handler+0x250>
20000d8e:	2b03      	cmp	r3, #3
20000d90:	d000      	beq.n	20000d94 <dvi_dma_irq_handler+0x454>
20000d92:	e6c3      	b.n	20000b1c <dvi_dma_irq_handler+0x1dc>
20000d94:	26a0      	movs	r6, #160	; 0xa0
20000d96:	05f6      	lsls	r6, r6, #23
20000d98:	46b4      	mov	ip, r6
20000d9a:	0026      	movs	r6, r4
20000d9c:	6863      	ldr	r3, [r4, #4]
20000d9e:	68a0      	ldr	r0, [r4, #8]
20000da0:	02d9      	lsls	r1, r3, #11
20000da2:	0180      	lsls	r0, r0, #6
20000da4:	019b      	lsls	r3, r3, #6
20000da6:	36e9      	adds	r6, #233	; 0xe9
20000da8:	4463      	add	r3, ip
20000daa:	4460      	add	r0, ip
20000dac:	36ff      	adds	r6, #255	; 0xff
20000dae:	601e      	str	r6, [r3, #0]
20000db0:	6058      	str	r0, [r3, #4]
20000db2:	2004      	movs	r0, #4
20000db4:	278a      	movs	r7, #138	; 0x8a
20000db6:	4d22      	ldr	r5, [pc, #136]	; (20000e40 <dvi_dma_irq_handler+0x500>)
20000db8:	4a22      	ldr	r2, [pc, #136]	; (20000e44 <dvi_dma_irq_handler+0x504>)
20000dba:	4029      	ands	r1, r5
20000dbc:	4311      	orrs	r1, r2
20000dbe:	6098      	str	r0, [r3, #8]
20000dc0:	6119      	str	r1, [r3, #16]
20000dc2:	6963      	ldr	r3, [r4, #20]
20000dc4:	69a6      	ldr	r6, [r4, #24]
20000dc6:	02d9      	lsls	r1, r3, #11
20000dc8:	4029      	ands	r1, r5
20000dca:	01b6      	lsls	r6, r6, #6
20000dcc:	019b      	lsls	r3, r3, #6
20000dce:	00bf      	lsls	r7, r7, #2
20000dd0:	4463      	add	r3, ip
20000dd2:	4311      	orrs	r1, r2
20000dd4:	4466      	add	r6, ip
20000dd6:	19e7      	adds	r7, r4, r7
20000dd8:	601f      	str	r7, [r3, #0]
20000dda:	605e      	str	r6, [r3, #4]
20000ddc:	6098      	str	r0, [r3, #8]
20000dde:	6119      	str	r1, [r3, #16]
20000de0:	6a63      	ldr	r3, [r4, #36]	; 0x24
20000de2:	02d9      	lsls	r1, r3, #11
20000de4:	400d      	ands	r5, r1
20000de6:	432a      	orrs	r2, r5
20000de8:	2592      	movs	r5, #146	; 0x92
20000dea:	6aa1      	ldr	r1, [r4, #40]	; 0x28
20000dec:	019b      	lsls	r3, r3, #6
20000dee:	0189      	lsls	r1, r1, #6
20000df0:	00ad      	lsls	r5, r5, #2
20000df2:	4463      	add	r3, ip
20000df4:	4461      	add	r1, ip
20000df6:	1965      	adds	r5, r4, r5
20000df8:	601d      	str	r5, [r3, #0]
20000dfa:	6059      	str	r1, [r3, #4]
20000dfc:	6098      	str	r0, [r3, #8]
20000dfe:	611a      	str	r2, [r3, #16]
20000e00:	6e63      	ldr	r3, [r4, #100]	; 0x64
20000e02:	2b00      	cmp	r3, #0
20000e04:	d100      	bne.n	20000e08 <dvi_dma_irq_handler+0x4c8>
20000e06:	e6bd      	b.n	20000b84 <dvi_dma_irq_handler+0x244>
20000e08:	6b62      	ldr	r2, [r4, #52]	; 0x34
20000e0a:	07d2      	lsls	r2, r2, #31
20000e0c:	d400      	bmi.n	20000e10 <dvi_dma_irq_handler+0x4d0>
20000e0e:	e6b9      	b.n	20000b84 <dvi_dma_irq_handler+0x244>
20000e10:	4798      	blx	r3
20000e12:	e6b7      	b.n	20000b84 <dvi_dma_irq_handler+0x244>
20000e14:	4651      	mov	r1, sl
20000e16:	89c9      	ldrh	r1, [r1, #14]
20000e18:	3101      	adds	r1, #1
20000e1a:	185b      	adds	r3, r3, r1
20000e1c:	e70f      	b.n	20000c3e <dvi_dma_irq_handler+0x2fe>
20000e1e:	89ef      	ldrh	r7, [r5, #14]
20000e20:	3701      	adds	r7, #1
20000e22:	18ba      	adds	r2, r7, r2
20000e24:	2a00      	cmp	r2, #0
20000e26:	d000      	beq.n	20000e2a <dvi_dma_irq_handler+0x4ea>
20000e28:	e72f      	b.n	20000c8a <dvi_dma_irq_handler+0x34a>
20000e2a:	5863      	ldr	r3, [r4, r1]
20000e2c:	f3bf 8f5f 	dmb	sy
20000e30:	601e      	str	r6, [r3, #0]
20000e32:	f380 8810 	msr	PRIMASK, r0
20000e36:	bf20      	wfe
20000e38:	e717      	b.n	20000c6a <dvi_dma_irq_handler+0x32a>
20000e3a:	46c0      	nop			; (mov r8, r8)
20000e3c:	00000282 	.word	0x00000282
20000e40:	ff1ffffd 	.word	0xff1ffffd
20000e44:	001f8539 	.word	0x001f8539
20000e48:	100043d0 	.word	0x100043d0

20000e4c <dvi_dma1_irq>:
20000e4c:	4b06      	ldr	r3, [pc, #24]	; (20000e68 <dvi_dma1_irq+0x1c>)
20000e4e:	21a0      	movs	r1, #160	; 0xa0
20000e50:	6858      	ldr	r0, [r3, #4]
20000e52:	2301      	movs	r3, #1
20000e54:	6882      	ldr	r2, [r0, #8]
20000e56:	b510      	push	{r4, lr}
20000e58:	4093      	lsls	r3, r2
20000e5a:	4a04      	ldr	r2, [pc, #16]	; (20000e6c <dvi_dma1_irq+0x20>)
20000e5c:	05c9      	lsls	r1, r1, #23
20000e5e:	508b      	str	r3, [r1, r2]
20000e60:	f7ff fd6e 	bl	20000940 <dvi_dma_irq_handler>
20000e64:	bd10      	pop	{r4, pc}
20000e66:	46c0      	nop			; (mov r8, r8)
20000e68:	200123c8 	.word	0x200123c8
20000e6c:	0000041c 	.word	0x0000041c

20000e70 <dvi_dma0_irq>:
20000e70:	4b06      	ldr	r3, [pc, #24]	; (20000e8c <dvi_dma0_irq+0x1c>)
20000e72:	21a0      	movs	r1, #160	; 0xa0
20000e74:	6818      	ldr	r0, [r3, #0]
20000e76:	2301      	movs	r3, #1
20000e78:	6882      	ldr	r2, [r0, #8]
20000e7a:	b510      	push	{r4, lr}
20000e7c:	4093      	lsls	r3, r2
20000e7e:	4a04      	ldr	r2, [pc, #16]	; (20000e90 <dvi_dma0_irq+0x20>)
20000e80:	05c9      	lsls	r1, r1, #23
20000e82:	508b      	str	r3, [r1, r2]
20000e84:	f7ff fd5c 	bl	20000940 <dvi_dma_irq_handler>
20000e88:	bd10      	pop	{r4, pc}
20000e8a:	46c0      	nop			; (mov r8, r8)
20000e8c:	200123c8 	.word	0x200123c8
20000e90:	0000040c 	.word	0x0000040c

20000e94 <dvi_scanbuf_main_16bpp>:
20000e94:	23a5      	movs	r3, #165	; 0xa5
20000e96:	b5f0      	push	{r4, r5, r6, r7, lr}
20000e98:	4657      	mov	r7, sl
20000e9a:	464e      	mov	r6, r9
20000e9c:	46de      	mov	lr, fp
20000e9e:	4645      	mov	r5, r8
20000ea0:	009b      	lsls	r3, r3, #2
20000ea2:	469a      	mov	sl, r3
20000ea4:	3b10      	subs	r3, #16
20000ea6:	469b      	mov	fp, r3
20000ea8:	3b10      	subs	r3, #16
20000eaa:	b5e0      	push	{r5, r6, r7, lr}
20000eac:	18c6      	adds	r6, r0, r3
20000eae:	3330      	adds	r3, #48	; 0x30
20000eb0:	4699      	mov	r9, r3
20000eb2:	4481      	add	r9, r0
20000eb4:	0004      	movs	r4, r0
20000eb6:	2500      	movs	r5, #0
20000eb8:	464f      	mov	r7, r9
20000eba:	b087      	sub	sp, #28
20000ebc:	4482      	add	sl, r0
20000ebe:	4483      	add	fp, r0
20000ec0:	23a5      	movs	r3, #165	; 0xa5
20000ec2:	009b      	lsls	r3, r3, #2
20000ec4:	58e3      	ldr	r3, [r4, r3]
20000ec6:	f3ef 8110 	mrs	r1, PRIMASK
20000eca:	b672      	cpsid	i
20000ecc:	681a      	ldr	r2, [r3, #0]
20000ece:	2a00      	cmp	r2, #0
20000ed0:	d0fc      	beq.n	20000ecc <dvi_scanbuf_main_16bpp+0x38>
20000ed2:	f3bf 8f5f 	dmb	sy
20000ed6:	4653      	mov	r3, sl
20000ed8:	4652      	mov	r2, sl
20000eda:	895b      	ldrh	r3, [r3, #10]
20000edc:	8912      	ldrh	r2, [r2, #8]
20000ede:	1ad2      	subs	r2, r2, r3
20000ee0:	d500      	bpl.n	20000ee4 <dvi_scanbuf_main_16bpp+0x50>
20000ee2:	e0fc      	b.n	200010de <dvi_scanbuf_main_16bpp+0x24a>
20000ee4:	d100      	bne.n	20000ee8 <dvi_scanbuf_main_16bpp+0x54>
20000ee6:	e101      	b.n	200010ec <dvi_scanbuf_main_16bpp+0x258>
20000ee8:	4650      	mov	r0, sl
20000eea:	6840      	ldr	r0, [r0, #4]
20000eec:	009a      	lsls	r2, r3, #2
20000eee:	5812      	ldr	r2, [r2, r0]
20000ef0:	0028      	movs	r0, r5
20000ef2:	4691      	mov	r9, r2
20000ef4:	4a82      	ldr	r2, [pc, #520]	; (20001100 <dvi_scanbuf_main_16bpp+0x26c>)
20000ef6:	3301      	adds	r3, #1
20000ef8:	5aa2      	ldrh	r2, [r4, r2]
20000efa:	b29b      	uxth	r3, r3
20000efc:	429a      	cmp	r2, r3
20000efe:	4168      	adcs	r0, r5
20000f00:	4242      	negs	r2, r0
20000f02:	4013      	ands	r3, r2
20000f04:	4652      	mov	r2, sl
20000f06:	8153      	strh	r3, [r2, #10]
20000f08:	23a5      	movs	r3, #165	; 0xa5
20000f0a:	009b      	lsls	r3, r3, #2
20000f0c:	58e3      	ldr	r3, [r4, r3]
20000f0e:	f3bf 8f5f 	dmb	sy
20000f12:	601d      	str	r5, [r3, #0]
20000f14:	f381 8810 	msr	PRIMASK, r1
20000f18:	bf40      	sev
20000f1a:	20a1      	movs	r0, #161	; 0xa1
20000f1c:	465b      	mov	r3, fp
20000f1e:	0080      	lsls	r0, r0, #2
20000f20:	9603      	str	r6, [sp, #12]
20000f22:	5822      	ldr	r2, [r4, r0]
20000f24:	f3ef 8c10 	mrs	ip, PRIMASK
20000f28:	b672      	cpsid	i
20000f2a:	6811      	ldr	r1, [r2, #0]
20000f2c:	2900      	cmp	r1, #0
20000f2e:	d0fc      	beq.n	20000f2a <dvi_scanbuf_main_16bpp+0x96>
20000f30:	f3bf 8f5f 	dmb	sy
20000f34:	8959      	ldrh	r1, [r3, #10]
20000f36:	891a      	ldrh	r2, [r3, #8]
20000f38:	1a52      	subs	r2, r2, r1
20000f3a:	d500      	bpl.n	20000f3e <dvi_scanbuf_main_16bpp+0xaa>
20000f3c:	e0be      	b.n	200010bc <dvi_scanbuf_main_16bpp+0x228>
20000f3e:	d100      	bne.n	20000f42 <dvi_scanbuf_main_16bpp+0xae>
20000f40:	e0c5      	b.n	200010ce <dvi_scanbuf_main_16bpp+0x23a>
20000f42:	469b      	mov	fp, r3
20000f44:	008a      	lsls	r2, r1, #2
20000f46:	000b      	movs	r3, r1
20000f48:	4659      	mov	r1, fp
20000f4a:	6849      	ldr	r1, [r1, #4]
20000f4c:	3301      	adds	r3, #1
20000f4e:	5850      	ldr	r0, [r2, r1]
20000f50:	0029      	movs	r1, r5
20000f52:	4a6c      	ldr	r2, [pc, #432]	; (20001104 <dvi_scanbuf_main_16bpp+0x270>)
20000f54:	b29b      	uxth	r3, r3
20000f56:	5aa2      	ldrh	r2, [r4, r2]
20000f58:	9e03      	ldr	r6, [sp, #12]
20000f5a:	429a      	cmp	r2, r3
20000f5c:	4169      	adcs	r1, r5
20000f5e:	424a      	negs	r2, r1
20000f60:	4013      	ands	r3, r2
20000f62:	465a      	mov	r2, fp
20000f64:	8153      	strh	r3, [r2, #10]
20000f66:	23a1      	movs	r3, #161	; 0xa1
20000f68:	009b      	lsls	r3, r3, #2
20000f6a:	58e3      	ldr	r3, [r4, r3]
20000f6c:	f3bf 8f5f 	dmb	sy
20000f70:	601d      	str	r5, [r3, #0]
20000f72:	f38c 8810 	msr	PRIMASK, ip
20000f76:	bf40      	sev
20000f78:	6823      	ldr	r3, [r4, #0]
20000f7a:	0001      	movs	r1, r0
20000f7c:	691b      	ldr	r3, [r3, #16]
20000f7e:	9003      	str	r0, [sp, #12]
20000f80:	085b      	lsrs	r3, r3, #1
20000f82:	4698      	mov	r8, r3
20000f84:	4648      	mov	r0, r9
20000f86:	2304      	movs	r3, #4
20000f88:	4642      	mov	r2, r8
20000f8a:	9500      	str	r5, [sp, #0]
20000f8c:	f000 f90c 	bl	200011a8 <tmds_encode_data_channel_16bpp>
20000f90:	4643      	mov	r3, r8
20000f92:	009b      	lsls	r3, r3, #2
20000f94:	469c      	mov	ip, r3
20000f96:	9304      	str	r3, [sp, #16]
20000f98:	2305      	movs	r3, #5
20000f9a:	9803      	ldr	r0, [sp, #12]
20000f9c:	4642      	mov	r2, r8
20000f9e:	4460      	add	r0, ip
20000fa0:	0001      	movs	r1, r0
20000fa2:	9300      	str	r3, [sp, #0]
20000fa4:	9005      	str	r0, [sp, #20]
20000fa6:	3305      	adds	r3, #5
20000fa8:	4648      	mov	r0, r9
20000faa:	f000 f8fd 	bl	200011a8 <tmds_encode_data_channel_16bpp>
20000fae:	9b04      	ldr	r3, [sp, #16]
20000fb0:	9805      	ldr	r0, [sp, #20]
20000fb2:	469c      	mov	ip, r3
20000fb4:	230b      	movs	r3, #11
20000fb6:	4460      	add	r0, ip
20000fb8:	0001      	movs	r1, r0
20000fba:	9300      	str	r3, [sp, #0]
20000fbc:	4642      	mov	r2, r8
20000fbe:	3304      	adds	r3, #4
20000fc0:	4648      	mov	r0, r9
20000fc2:	f000 f8f1 	bl	200011a8 <tmds_encode_data_channel_16bpp>
20000fc6:	239d      	movs	r3, #157	; 0x9d
20000fc8:	009b      	lsls	r3, r3, #2
20000fca:	469c      	mov	ip, r3
20000fcc:	4663      	mov	r3, ip
20000fce:	58e3      	ldr	r3, [r4, r3]
20000fd0:	f3ef 8010 	mrs	r0, PRIMASK
20000fd4:	b672      	cpsid	i
20000fd6:	681a      	ldr	r2, [r3, #0]
20000fd8:	2a00      	cmp	r2, #0
20000fda:	d0fc      	beq.n	20000fd6 <dvi_scanbuf_main_16bpp+0x142>
20000fdc:	f3bf 8f5f 	dmb	sy
20000fe0:	8933      	ldrh	r3, [r6, #8]
20000fe2:	9304      	str	r3, [sp, #16]
20000fe4:	8972      	ldrh	r2, [r6, #10]
20000fe6:	89f1      	ldrh	r1, [r6, #14]
20000fe8:	1a9a      	subs	r2, r3, r2
20000fea:	d502      	bpl.n	20000ff2 <dvi_scanbuf_main_16bpp+0x15e>
20000fec:	1c4b      	adds	r3, r1, #1
20000fee:	4698      	mov	r8, r3
20000ff0:	4442      	add	r2, r8
20000ff2:	4291      	cmp	r1, r2
20000ff4:	d050      	beq.n	20001098 <dvi_scanbuf_main_16bpp+0x204>
20000ff6:	4688      	mov	r8, r1
20000ff8:	9b04      	ldr	r3, [sp, #16]
20000ffa:	6871      	ldr	r1, [r6, #4]
20000ffc:	4684      	mov	ip, r0
20000ffe:	9803      	ldr	r0, [sp, #12]
20001000:	009a      	lsls	r2, r3, #2
20001002:	5050      	str	r0, [r2, r1]
20001004:	002a      	movs	r2, r5
20001006:	4641      	mov	r1, r8
20001008:	3301      	adds	r3, #1
2000100a:	b29b      	uxth	r3, r3
2000100c:	4299      	cmp	r1, r3
2000100e:	416a      	adcs	r2, r5
20001010:	4252      	negs	r2, r2
20001012:	4013      	ands	r3, r2
20001014:	8133      	strh	r3, [r6, #8]
20001016:	239d      	movs	r3, #157	; 0x9d
20001018:	009b      	lsls	r3, r3, #2
2000101a:	58e3      	ldr	r3, [r4, r3]
2000101c:	f3bf 8f5f 	dmb	sy
20001020:	601d      	str	r5, [r3, #0]
20001022:	f38c 8810 	msr	PRIMASK, ip
20001026:	bf40      	sev
20001028:	23a9      	movs	r3, #169	; 0xa9
2000102a:	009b      	lsls	r3, r3, #2
2000102c:	469c      	mov	ip, r3
2000102e:	4663      	mov	r3, ip
20001030:	58e3      	ldr	r3, [r4, r3]
20001032:	f3ef 8110 	mrs	r1, PRIMASK
20001036:	b672      	cpsid	i
20001038:	681a      	ldr	r2, [r3, #0]
2000103a:	2a00      	cmp	r2, #0
2000103c:	d0fc      	beq.n	20001038 <dvi_scanbuf_main_16bpp+0x1a4>
2000103e:	f3bf 8f5f 	dmb	sy
20001042:	893b      	ldrh	r3, [r7, #8]
20001044:	9303      	str	r3, [sp, #12]
20001046:	897a      	ldrh	r2, [r7, #10]
20001048:	89f8      	ldrh	r0, [r7, #14]
2000104a:	1a9a      	subs	r2, r3, r2
2000104c:	d502      	bpl.n	20001054 <dvi_scanbuf_main_16bpp+0x1c0>
2000104e:	1c43      	adds	r3, r0, #1
20001050:	4698      	mov	r8, r3
20001052:	4442      	add	r2, r8
20001054:	4290      	cmp	r0, r2
20001056:	d028      	beq.n	200010aa <dvi_scanbuf_main_16bpp+0x216>
20001058:	4684      	mov	ip, r0
2000105a:	4648      	mov	r0, r9
2000105c:	9b03      	ldr	r3, [sp, #12]
2000105e:	4688      	mov	r8, r1
20001060:	6879      	ldr	r1, [r7, #4]
20001062:	009a      	lsls	r2, r3, #2
20001064:	5050      	str	r0, [r2, r1]
20001066:	002a      	movs	r2, r5
20001068:	4661      	mov	r1, ip
2000106a:	3301      	adds	r3, #1
2000106c:	b29b      	uxth	r3, r3
2000106e:	4299      	cmp	r1, r3
20001070:	416a      	adcs	r2, r5
20001072:	4252      	negs	r2, r2
20001074:	4013      	ands	r3, r2
20001076:	813b      	strh	r3, [r7, #8]
20001078:	23a9      	movs	r3, #169	; 0xa9
2000107a:	009b      	lsls	r3, r3, #2
2000107c:	58e3      	ldr	r3, [r4, r3]
2000107e:	f3bf 8f5f 	dmb	sy
20001082:	601d      	str	r5, [r3, #0]
20001084:	f388 8810 	msr	PRIMASK, r8
20001088:	bf40      	sev
2000108a:	23a5      	movs	r3, #165	; 0xa5
2000108c:	009b      	lsls	r3, r3, #2
2000108e:	58e3      	ldr	r3, [r4, r3]
20001090:	f3ef 8110 	mrs	r1, PRIMASK
20001094:	b672      	cpsid	i
20001096:	e719      	b.n	20000ecc <dvi_scanbuf_main_16bpp+0x38>
20001098:	4663      	mov	r3, ip
2000109a:	58e3      	ldr	r3, [r4, r3]
2000109c:	f3bf 8f5f 	dmb	sy
200010a0:	601d      	str	r5, [r3, #0]
200010a2:	f380 8810 	msr	PRIMASK, r0
200010a6:	bf20      	wfe
200010a8:	e790      	b.n	20000fcc <dvi_scanbuf_main_16bpp+0x138>
200010aa:	4663      	mov	r3, ip
200010ac:	58e3      	ldr	r3, [r4, r3]
200010ae:	f3bf 8f5f 	dmb	sy
200010b2:	601d      	str	r5, [r3, #0]
200010b4:	f381 8810 	msr	PRIMASK, r1
200010b8:	bf20      	wfe
200010ba:	e7b8      	b.n	2000102e <dvi_scanbuf_main_16bpp+0x19a>
200010bc:	89de      	ldrh	r6, [r3, #14]
200010be:	46b0      	mov	r8, r6
200010c0:	2601      	movs	r6, #1
200010c2:	46b3      	mov	fp, r6
200010c4:	44d8      	add	r8, fp
200010c6:	4442      	add	r2, r8
200010c8:	2a00      	cmp	r2, #0
200010ca:	d000      	beq.n	200010ce <dvi_scanbuf_main_16bpp+0x23a>
200010cc:	e739      	b.n	20000f42 <dvi_scanbuf_main_16bpp+0xae>
200010ce:	5822      	ldr	r2, [r4, r0]
200010d0:	f3bf 8f5f 	dmb	sy
200010d4:	6015      	str	r5, [r2, #0]
200010d6:	f38c 8810 	msr	PRIMASK, ip
200010da:	bf20      	wfe
200010dc:	e721      	b.n	20000f22 <dvi_scanbuf_main_16bpp+0x8e>
200010de:	4650      	mov	r0, sl
200010e0:	89c0      	ldrh	r0, [r0, #14]
200010e2:	3001      	adds	r0, #1
200010e4:	1882      	adds	r2, r0, r2
200010e6:	2a00      	cmp	r2, #0
200010e8:	d000      	beq.n	200010ec <dvi_scanbuf_main_16bpp+0x258>
200010ea:	e6fd      	b.n	20000ee8 <dvi_scanbuf_main_16bpp+0x54>
200010ec:	23a5      	movs	r3, #165	; 0xa5
200010ee:	009b      	lsls	r3, r3, #2
200010f0:	58e3      	ldr	r3, [r4, r3]
200010f2:	f3bf 8f5f 	dmb	sy
200010f6:	601d      	str	r5, [r3, #0]
200010f8:	f381 8810 	msr	PRIMASK, r1
200010fc:	bf20      	wfe
200010fe:	e6df      	b.n	20000ec0 <dvi_scanbuf_main_16bpp+0x2c>
20001100:	000002a2 	.word	0x000002a2
20001104:	00000292 	.word	0x00000292

20001108 <dvi_timing_state_advance>:
20001108:	680b      	ldr	r3, [r1, #0]
2000110a:	790a      	ldrb	r2, [r1, #4]
2000110c:	3301      	adds	r3, #1
2000110e:	600b      	str	r3, [r1, #0]
20001110:	2a00      	cmp	r2, #0
20001112:	d103      	bne.n	2000111c <dvi_timing_state_advance+0x14>
20001114:	6980      	ldr	r0, [r0, #24]
20001116:	4283      	cmp	r3, r0
20001118:	d005      	beq.n	20001126 <dvi_timing_state_advance+0x1e>
2000111a:	4770      	bx	lr
2000111c:	2a01      	cmp	r2, #1
2000111e:	d109      	bne.n	20001134 <dvi_timing_state_advance+0x2c>
20001120:	69c0      	ldr	r0, [r0, #28]
20001122:	4283      	cmp	r3, r0
20001124:	d1f9      	bne.n	2000111a <dvi_timing_state_advance+0x12>
20001126:	2303      	movs	r3, #3
20001128:	3201      	adds	r2, #1
2000112a:	401a      	ands	r2, r3
2000112c:	2300      	movs	r3, #0
2000112e:	710a      	strb	r2, [r1, #4]
20001130:	600b      	str	r3, [r1, #0]
20001132:	e7f2      	b.n	2000111a <dvi_timing_state_advance+0x12>
20001134:	2a02      	cmp	r2, #2
20001136:	d103      	bne.n	20001140 <dvi_timing_state_advance+0x38>
20001138:	6a00      	ldr	r0, [r0, #32]
2000113a:	4283      	cmp	r3, r0
2000113c:	d1ed      	bne.n	2000111a <dvi_timing_state_advance+0x12>
2000113e:	e7f2      	b.n	20001126 <dvi_timing_state_advance+0x1e>
20001140:	2a03      	cmp	r2, #3
20001142:	d1ea      	bne.n	2000111a <dvi_timing_state_advance+0x12>
20001144:	6a40      	ldr	r0, [r0, #36]	; 0x24
20001146:	4283      	cmp	r3, r0
20001148:	d1e7      	bne.n	2000111a <dvi_timing_state_advance+0x12>
2000114a:	e7ec      	b.n	20001126 <dvi_timing_state_advance+0x1e>

2000114c <dvi_update_scanline_data_dma>:
2000114c:	6900      	ldr	r0, [r0, #16]
2000114e:	6311      	str	r1, [r2, #48]	; 0x30
20001150:	0843      	lsrs	r3, r0, #1
20001152:	009b      	lsls	r3, r3, #2
20001154:	0080      	lsls	r0, r0, #2
20001156:	18cb      	adds	r3, r1, r3
20001158:	1809      	adds	r1, r1, r0
2000115a:	6513      	str	r3, [r2, #80]	; 0x50
2000115c:	6711      	str	r1, [r2, #112]	; 0x70
2000115e:	4770      	bx	lr

20001160 <dvi_ctrl_syms>:
20001160:	5354 000d acab 0002 5154 0005 aeab 000a     TS......TQ......

20001170 <dvi_timing_640x480p_60hz>:
20001170:	0000 0000 0010 0000 0060 0000 0030 0000     ........`...0...
20001180:	0280 0000 0000 0000 000a 0000 0002 0000     ................
20001190:	0021 0000 01e0 0000 d860 0003               !.......`...

2000119c <empty_scanline_tmds>:
2000119c:	fd00 0007 fd00 0007 fa01 000b               ............

200011a8 <tmds_encode_data_channel_16bpp>:
200011a8:	b5f0      	push	{r4, r5, r6, r7, lr}
200011aa:	46c6      	mov	lr, r8
200011ac:	001c      	movs	r4, r3
200011ae:	b500      	push	{lr}
200011b0:	4d23      	ldr	r5, [pc, #140]	; (20001240 <tmds_encode_data_channel_16bpp+0x98>)
200011b2:	b088      	sub	sp, #32
200011b4:	0006      	movs	r6, r0
200011b6:	000f      	movs	r7, r1
200011b8:	0028      	movs	r0, r5
200011ba:	a901      	add	r1, sp, #4
200011bc:	4690      	mov	r8, r2
200011be:	f000 f973 	bl	200014a8 <__interp_save_veneer>
200011c2:	9a0e      	ldr	r2, [sp, #56]	; 0x38
200011c4:	3207      	adds	r2, #7
200011c6:	1fe3      	subs	r3, r4, #7
200011c8:	d423      	bmi.n	20001212 <tmds_encode_data_channel_16bpp+0x6a>
200011ca:	21f8      	movs	r1, #248	; 0xf8
200011cc:	1b12      	subs	r2, r2, r4
200011ce:	0089      	lsls	r1, r1, #2
200011d0:	0152      	lsls	r2, r2, #5
200011d2:	400a      	ands	r2, r1
200011d4:	211f      	movs	r1, #31
200011d6:	400b      	ands	r3, r1
200011d8:	4313      	orrs	r3, r2
200011da:	0018      	movs	r0, r3
200011dc:	3409      	adds	r4, #9
200011de:	23e0      	movs	r3, #224	; 0xe0
200011e0:	4021      	ands	r1, r4
200011e2:	430a      	orrs	r2, r1
200011e4:	218e      	movs	r1, #142	; 0x8e
200011e6:	015b      	lsls	r3, r3, #5
200011e8:	4303      	orrs	r3, r0
200011ea:	62eb      	str	r3, [r5, #44]	; 0x2c
200011ec:	0249      	lsls	r1, r1, #9
200011ee:	4b15      	ldr	r3, [pc, #84]	; (20001244 <tmds_encode_data_channel_16bpp+0x9c>)
200011f0:	430a      	orrs	r2, r1
200011f2:	632a      	str	r2, [r5, #48]	; 0x30
200011f4:	0039      	movs	r1, r7
200011f6:	60ab      	str	r3, [r5, #8]
200011f8:	4642      	mov	r2, r8
200011fa:	0030      	movs	r0, r6
200011fc:	60eb      	str	r3, [r5, #12]
200011fe:	f03e feff 	bl	20040000 <tmds_encode_loop_16bpp>
20001202:	480f      	ldr	r0, [pc, #60]	; (20001240 <tmds_encode_data_channel_16bpp+0x98>)
20001204:	a901      	add	r1, sp, #4
20001206:	f000 f947 	bl	20001498 <__interp_restore_veneer>
2000120a:	b008      	add	sp, #32
2000120c:	bc04      	pop	{r2}
2000120e:	4690      	mov	r8, r2
20001210:	bdf0      	pop	{r4, r5, r6, r7, pc}
20001212:	1b14      	subs	r4, r2, r4
20001214:	22f8      	movs	r2, #248	; 0xf8
20001216:	0164      	lsls	r4, r4, #5
20001218:	0092      	lsls	r2, r2, #2
2000121a:	4014      	ands	r4, r2
2000121c:	22e0      	movs	r2, #224	; 0xe0
2000121e:	0152      	lsls	r2, r2, #5
20001220:	4322      	orrs	r2, r4
20001222:	62ea      	str	r2, [r5, #44]	; 0x2c
20001224:	4a08      	ldr	r2, [pc, #32]	; (20001248 <tmds_encode_data_channel_16bpp+0xa0>)
20001226:	0039      	movs	r1, r7
20001228:	4314      	orrs	r4, r2
2000122a:	4a06      	ldr	r2, [pc, #24]	; (20001244 <tmds_encode_data_channel_16bpp+0x9c>)
2000122c:	632c      	str	r4, [r5, #48]	; 0x30
2000122e:	0030      	movs	r0, r6
20001230:	60aa      	str	r2, [r5, #8]
20001232:	425b      	negs	r3, r3
20001234:	60ea      	str	r2, [r5, #12]
20001236:	4642      	mov	r2, r8
20001238:	f03e fefa 	bl	20040030 <tmds_encode_loop_16bpp_leftshift>
2000123c:	e7e1      	b.n	20001202 <tmds_encode_data_channel_16bpp+0x5a>
2000123e:	46c0      	nop			; (mov r8, r8)
20001240:	d0000080 	.word	0xd0000080
20001244:	20040064 	.word	0x20040064
20001248:	00011c10 	.word	0x00011c10

2000124c <sprite_fill16>:
2000124c:	2a0f      	cmp	r2, #15
2000124e:	d816      	bhi.n	2000127e <sprite_fill16+0x32>
20001250:	a30a      	add	r3, pc, #40	; (adr r3, 2000127c <sprite_fill16+0x30>)
20001252:	0052      	lsls	r2, r2, #1
20001254:	1a9b      	subs	r3, r3, r2
20001256:	3301      	adds	r3, #1
20001258:	4718      	bx	r3
2000125a:	46c0      	nop			; (mov r8, r8)
2000125c:	83c1      	strh	r1, [r0, #30]
2000125e:	8381      	strh	r1, [r0, #28]
20001260:	8341      	strh	r1, [r0, #26]
20001262:	8301      	strh	r1, [r0, #24]
20001264:	82c1      	strh	r1, [r0, #22]
20001266:	8281      	strh	r1, [r0, #20]
20001268:	8241      	strh	r1, [r0, #18]
2000126a:	8201      	strh	r1, [r0, #16]
2000126c:	81c1      	strh	r1, [r0, #14]
2000126e:	8181      	strh	r1, [r0, #12]
20001270:	8141      	strh	r1, [r0, #10]
20001272:	8101      	strh	r1, [r0, #8]
20001274:	80c1      	strh	r1, [r0, #6]
20001276:	8081      	strh	r1, [r0, #4]
20001278:	8041      	strh	r1, [r0, #2]
2000127a:	8001      	strh	r1, [r0, #0]
2000127c:	4770      	bx	lr
2000127e:	b5f0      	push	{r4, r5, r6, r7, lr}
20001280:	0893      	lsrs	r3, r2, #2
20001282:	d302      	bcc.n	2000128a <sprite_fill16+0x3e>
20001284:	8001      	strh	r1, [r0, #0]
20001286:	3002      	adds	r0, #2
20001288:	3a01      	subs	r2, #1
2000128a:	0052      	lsls	r2, r2, #1
2000128c:	1812      	adds	r2, r2, r0
2000128e:	3a1a      	subs	r2, #26
20001290:	4694      	mov	ip, r2
20001292:	040a      	lsls	r2, r1, #16
20001294:	4311      	orrs	r1, r2
20001296:	460a      	mov	r2, r1
20001298:	460b      	mov	r3, r1
2000129a:	460c      	mov	r4, r1
2000129c:	460d      	mov	r5, r1
2000129e:	460e      	mov	r6, r1
200012a0:	460f      	mov	r7, r1
200012a2:	c0fe      	stmia	r0!, {r1, r2, r3, r4, r5, r6, r7}
200012a4:	4560      	cmp	r0, ip
200012a6:	d3fc      	bcc.n	200012a2 <sprite_fill16+0x56>
200012a8:	221a      	movs	r2, #26
200012aa:	4462      	add	r2, ip
200012ac:	1a12      	subs	r2, r2, r0
200012ae:	0712      	lsls	r2, r2, #28
200012b0:	d300      	bcc.n	200012b4 <sprite_fill16+0x68>
200012b2:	c0f0      	stmia	r0!, {r4, r5, r6, r7}
200012b4:	0052      	lsls	r2, r2, #1
200012b6:	d300      	bcc.n	200012ba <sprite_fill16+0x6e>
200012b8:	c030      	stmia	r0!, {r4, r5}
200012ba:	0052      	lsls	r2, r2, #1
200012bc:	d300      	bcc.n	200012c0 <sprite_fill16+0x74>
200012be:	c010      	stmia	r0!, {r4}
200012c0:	0052      	lsls	r2, r2, #1
200012c2:	d300      	bcc.n	200012c6 <sprite_fill16+0x7a>
200012c4:	8004      	strh	r4, [r0, #0]
200012c6:	bdf0      	pop	{r4, r5, r6, r7, pc}

200012c8 <sprite_blit16>:
200012c8:	088b      	lsrs	r3, r1, #2
200012ca:	d304      	bcc.n	200012d6 <sprite_blit16+0xe>
200012cc:	880b      	ldrh	r3, [r1, #0]
200012ce:	8003      	strh	r3, [r0, #0]
200012d0:	3002      	adds	r0, #2
200012d2:	3102      	adds	r1, #2
200012d4:	3a01      	subs	r2, #1
200012d6:	0052      	lsls	r2, r2, #1
200012d8:	1812      	adds	r2, r2, r0
200012da:	3a10      	subs	r2, #16
200012dc:	4694      	mov	ip, r2
200012de:	e00e      	b.n	200012fe <sprite_blit16+0x36>
200012e0:	c90c      	ldmia	r1!, {r2, r3}
200012e2:	8002      	strh	r2, [r0, #0]
200012e4:	0c12      	lsrs	r2, r2, #16
200012e6:	8042      	strh	r2, [r0, #2]
200012e8:	8083      	strh	r3, [r0, #4]
200012ea:	0c1b      	lsrs	r3, r3, #16
200012ec:	80c3      	strh	r3, [r0, #6]
200012ee:	c90c      	ldmia	r1!, {r2, r3}
200012f0:	8102      	strh	r2, [r0, #8]
200012f2:	0c12      	lsrs	r2, r2, #16
200012f4:	8142      	strh	r2, [r0, #10]
200012f6:	8183      	strh	r3, [r0, #12]
200012f8:	0c1b      	lsrs	r3, r3, #16
200012fa:	81c3      	strh	r3, [r0, #14]
200012fc:	3010      	adds	r0, #16
200012fe:	4560      	cmp	r0, ip
20001300:	d9ee      	bls.n	200012e0 <sprite_blit16+0x18>
20001302:	4662      	mov	r2, ip
20001304:	1a12      	subs	r2, r2, r0
20001306:	0752      	lsls	r2, r2, #29
20001308:	d308      	bcc.n	2000131c <sprite_blit16+0x54>
2000130a:	c908      	ldmia	r1!, {r3}
2000130c:	8003      	strh	r3, [r0, #0]
2000130e:	0c1b      	lsrs	r3, r3, #16
20001310:	8043      	strh	r3, [r0, #2]
20001312:	c908      	ldmia	r1!, {r3}
20001314:	8083      	strh	r3, [r0, #4]
20001316:	0c1b      	lsrs	r3, r3, #16
20001318:	80c3      	strh	r3, [r0, #6]
2000131a:	3008      	adds	r0, #8
2000131c:	0052      	lsls	r2, r2, #1
2000131e:	d304      	bcc.n	2000132a <sprite_blit16+0x62>
20001320:	c908      	ldmia	r1!, {r3}
20001322:	8003      	strh	r3, [r0, #0]
20001324:	0c1b      	lsrs	r3, r3, #16
20001326:	8043      	strh	r3, [r0, #2]
20001328:	3004      	adds	r0, #4
2000132a:	0052      	lsls	r2, r2, #1
2000132c:	d301      	bcc.n	20001332 <sprite_blit16+0x6a>
2000132e:	880b      	ldrh	r3, [r1, #0]
20001330:	8003      	strh	r3, [r0, #0]
20001332:	4770      	bx	lr

20001334 <sprite_blit16_alpha>:
20001334:	4684      	mov	ip, r0
20001336:	08d3      	lsrs	r3, r2, #3
20001338:	00db      	lsls	r3, r3, #3
2000133a:	405a      	eors	r2, r3
2000133c:	005b      	lsls	r3, r3, #1
2000133e:	4418      	add	r0, r3
20001340:	4419      	add	r1, r3
20001342:	a313      	add	r3, pc, #76	; (adr r3, 20001390 <sprite_blit16_alpha+0x5c>)
20001344:	00d2      	lsls	r2, r2, #3
20001346:	1a9b      	subs	r3, r3, r2
20001348:	3301      	adds	r3, #1
2000134a:	4718      	bx	r3
2000134c:	3810      	subs	r0, #16
2000134e:	3910      	subs	r1, #16
20001350:	89cb      	ldrh	r3, [r1, #14]
20001352:	099a      	lsrs	r2, r3, #6
20001354:	d300      	bcc.n	20001358 <sprite_blit16_alpha+0x24>
20001356:	81c3      	strh	r3, [r0, #14]
20001358:	898b      	ldrh	r3, [r1, #12]
2000135a:	099a      	lsrs	r2, r3, #6
2000135c:	d300      	bcc.n	20001360 <sprite_blit16_alpha+0x2c>
2000135e:	8183      	strh	r3, [r0, #12]
20001360:	894b      	ldrh	r3, [r1, #10]
20001362:	099a      	lsrs	r2, r3, #6
20001364:	d300      	bcc.n	20001368 <sprite_blit16_alpha+0x34>
20001366:	8143      	strh	r3, [r0, #10]
20001368:	890b      	ldrh	r3, [r1, #8]
2000136a:	099a      	lsrs	r2, r3, #6
2000136c:	d300      	bcc.n	20001370 <sprite_blit16_alpha+0x3c>
2000136e:	8103      	strh	r3, [r0, #8]
20001370:	88cb      	ldrh	r3, [r1, #6]
20001372:	099a      	lsrs	r2, r3, #6
20001374:	d300      	bcc.n	20001378 <sprite_blit16_alpha+0x44>
20001376:	80c3      	strh	r3, [r0, #6]
20001378:	888b      	ldrh	r3, [r1, #4]
2000137a:	099a      	lsrs	r2, r3, #6
2000137c:	d300      	bcc.n	20001380 <sprite_blit16_alpha+0x4c>
2000137e:	8083      	strh	r3, [r0, #4]
20001380:	884b      	ldrh	r3, [r1, #2]
20001382:	099a      	lsrs	r2, r3, #6
20001384:	d300      	bcc.n	20001388 <sprite_blit16_alpha+0x54>
20001386:	8043      	strh	r3, [r0, #2]
20001388:	880b      	ldrh	r3, [r1, #0]
2000138a:	099a      	lsrs	r2, r3, #6
2000138c:	d300      	bcc.n	20001390 <sprite_blit16_alpha+0x5c>
2000138e:	8003      	strh	r3, [r0, #0]
20001390:	4560      	cmp	r0, ip
20001392:	d8db      	bhi.n	2000134c <sprite_blit16_alpha+0x18>
20001394:	4770      	bx	lr
20001396:	46c0      	nop			; (mov r8, r8)

20001398 <sprite_sprite16>:
20001398:	b5f0      	push	{r4, r5, r6, r7, lr}
2000139a:	4646      	mov	r6, r8
2000139c:	46d6      	mov	lr, sl
2000139e:	464f      	mov	r7, r9
200013a0:	2501      	movs	r5, #1
200013a2:	b5c0      	push	{r6, r7, lr}
200013a4:	7a0c      	ldrb	r4, [r1, #8]
200013a6:	40a5      	lsls	r5, r4
200013a8:	46a4      	mov	ip, r4
200013aa:	2602      	movs	r6, #2
200013ac:	5f8c      	ldrsh	r4, [r1, r6]
200013ae:	1b14      	subs	r4, r2, r4
200013b0:	426a      	negs	r2, r5
200013b2:	4214      	tst	r4, r2
200013b4:	d122      	bne.n	200013fc <sprite_sprite16+0x64>
200013b6:	2200      	movs	r2, #0
200013b8:	5e8e      	ldrsh	r6, [r1, r2]
200013ba:	43f2      	mvns	r2, r6
200013bc:	17d2      	asrs	r2, r2, #31
200013be:	4032      	ands	r2, r6
200013c0:	1b97      	subs	r7, r2, r6
200013c2:	46ba      	mov	sl, r7
200013c4:	19af      	adds	r7, r5, r6
200013c6:	46b8      	mov	r8, r7
200013c8:	429f      	cmp	r7, r3
200013ca:	dc40      	bgt.n	2000144e <sprite_sprite16+0xb6>
200013cc:	4643      	mov	r3, r8
200013ce:	1a9a      	subs	r2, r3, r2
200013d0:	2a00      	cmp	r2, #0
200013d2:	dd13      	ble.n	200013fc <sprite_sprite16+0x64>
200013d4:	7acb      	ldrb	r3, [r1, #11]
200013d6:	2b00      	cmp	r3, #0
200013d8:	d001      	beq.n	200013de <sprite_sprite16+0x46>
200013da:	1e6b      	subs	r3, r5, #1
200013dc:	1b1c      	subs	r4, r3, r4
200013de:	684b      	ldr	r3, [r1, #4]
200013e0:	7a49      	ldrb	r1, [r1, #9]
200013e2:	2900      	cmp	r1, #0
200013e4:	d10f      	bne.n	20001406 <sprite_sprite16+0x6e>
200013e6:	2e00      	cmp	r6, #0
200013e8:	db01      	blt.n	200013ee <sprite_sprite16+0x56>
200013ea:	0076      	lsls	r6, r6, #1
200013ec:	1980      	adds	r0, r0, r6
200013ee:	4661      	mov	r1, ip
200013f0:	408c      	lsls	r4, r1
200013f2:	4454      	add	r4, sl
200013f4:	0064      	lsls	r4, r4, #1
200013f6:	1919      	adds	r1, r3, r4
200013f8:	f7ff ff9c 	bl	20001334 <sprite_blit16_alpha>
200013fc:	bc1c      	pop	{r2, r3, r4}
200013fe:	4690      	mov	r8, r2
20001400:	4699      	mov	r9, r3
20001402:	46a2      	mov	sl, r4
20001404:	bdf0      	pop	{r4, r5, r6, r7, pc}
20001406:	4662      	mov	r2, ip
20001408:	4095      	lsls	r5, r2
2000140a:	00a2      	lsls	r2, r4, #2
2000140c:	006d      	lsls	r5, r5, #1
2000140e:	18ad      	adds	r5, r5, r2
20001410:	58ea      	ldr	r2, [r5, r3]
20001412:	0055      	lsls	r5, r2, #1
20001414:	4691      	mov	r9, r2
20001416:	0c6d      	lsrs	r5, r5, #17
20001418:	4555      	cmp	r5, sl
2000141a:	db1c      	blt.n	20001456 <sprite_sprite16+0xbe>
2000141c:	464a      	mov	r2, r9
2000141e:	4641      	mov	r1, r8
20001420:	0412      	lsls	r2, r2, #16
20001422:	1b89      	subs	r1, r1, r6
20001424:	0c12      	lsrs	r2, r2, #16
20001426:	428a      	cmp	r2, r1
20001428:	dc13      	bgt.n	20001452 <sprite_sprite16+0xba>
2000142a:	1b52      	subs	r2, r2, r5
2000142c:	2a00      	cmp	r2, #0
2000142e:	dde5      	ble.n	200013fc <sprite_sprite16+0x64>
20001430:	4649      	mov	r1, r9
20001432:	2900      	cmp	r1, #0
20001434:	db18      	blt.n	20001468 <sprite_sprite16+0xd0>
20001436:	0021      	movs	r1, r4
20001438:	4664      	mov	r4, ip
2000143a:	40a1      	lsls	r1, r4
2000143c:	1976      	adds	r6, r6, r5
2000143e:	1949      	adds	r1, r1, r5
20001440:	0076      	lsls	r6, r6, #1
20001442:	0049      	lsls	r1, r1, #1
20001444:	1859      	adds	r1, r3, r1
20001446:	1980      	adds	r0, r0, r6
20001448:	f7ff ff74 	bl	20001334 <sprite_blit16_alpha>
2000144c:	e7d6      	b.n	200013fc <sprite_sprite16+0x64>
2000144e:	4698      	mov	r8, r3
20001450:	e7bc      	b.n	200013cc <sprite_sprite16+0x34>
20001452:	000a      	movs	r2, r1
20001454:	e7e9      	b.n	2000142a <sprite_sprite16+0x92>
20001456:	464a      	mov	r2, r9
20001458:	4641      	mov	r1, r8
2000145a:	0412      	lsls	r2, r2, #16
2000145c:	4655      	mov	r5, sl
2000145e:	1b89      	subs	r1, r1, r6
20001460:	0c12      	lsrs	r2, r2, #16
20001462:	428a      	cmp	r2, r1
20001464:	dde1      	ble.n	2000142a <sprite_sprite16+0x92>
20001466:	e7f4      	b.n	20001452 <sprite_sprite16+0xba>
20001468:	0021      	movs	r1, r4
2000146a:	4664      	mov	r4, ip
2000146c:	40a1      	lsls	r1, r4
2000146e:	1976      	adds	r6, r6, r5
20001470:	1949      	adds	r1, r1, r5
20001472:	0076      	lsls	r6, r6, #1
20001474:	0049      	lsls	r1, r1, #1
20001476:	1859      	adds	r1, r3, r1
20001478:	1980      	adds	r0, r0, r6
2000147a:	f7ff ff25 	bl	200012c8 <sprite_blit16>
2000147e:	e7bd      	b.n	200013fc <sprite_sprite16+0x64>

20001480 <__aeabi_idiv0>:
20001480:	4770      	bx	lr
20001482:	46c0      	nop			; (mov r8, r8)
20001484:	0000      	movs	r0, r0
	...

20001488 <__panic_veneer>:
20001488:	b401      	push	{r0}
2000148a:	4802      	ldr	r0, [pc, #8]	; (20001494 <__panic_veneer+0xc>)
2000148c:	4684      	mov	ip, r0
2000148e:	bc01      	pop	{r0}
20001490:	4760      	bx	ip
20001492:	bf00      	nop
20001494:	10001c81 	.word	0x10001c81

20001498 <__interp_restore_veneer>:
20001498:	b401      	push	{r0}
2000149a:	4802      	ldr	r0, [pc, #8]	; (200014a4 <__interp_restore_veneer+0xc>)
2000149c:	4684      	mov	ip, r0
2000149e:	bc01      	pop	{r0}
200014a0:	4760      	bx	ip
200014a2:	bf00      	nop
200014a4:	100035c9 	.word	0x100035c9

200014a8 <__interp_save_veneer>:
200014a8:	b401      	push	{r0}
200014aa:	4802      	ldr	r0, [pc, #8]	; (200014b4 <__interp_save_veneer+0xc>)
200014ac:	4684      	mov	ip, r0
200014ae:	bc01      	pop	{r0}
200014b0:	4760      	bx	ip
200014b2:	bf00      	nop
200014b4:	100035a9 	.word	0x100035a9

200014b8 <__queue_add_blocking_veneer>:
200014b8:	b401      	push	{r0}
200014ba:	4802      	ldr	r0, [pc, #8]	; (200014c4 <__queue_add_blocking_veneer+0xc>)
200014bc:	4684      	mov	ip, r0
200014be:	bc01      	pop	{r0}
200014c0:	4760      	bx	ip
200014c2:	bf00      	nop
200014c4:	10001955 	.word	0x10001955

200014c8 <__queue_remove_blocking_veneer>:
200014c8:	b401      	push	{r0}
200014ca:	4802      	ldr	r0, [pc, #8]	; (200014d4 <__queue_remove_blocking_veneer+0xc>)
200014cc:	4684      	mov	ip, r0
200014ce:	bc01      	pop	{r0}
200014d0:	4760      	bx	ip
200014d2:	bf00      	nop
200014d4:	100019c9 	.word	0x100019c9

200014d8 <__rand_veneer>:
200014d8:	b401      	push	{r0}
200014da:	4802      	ldr	r0, [pc, #8]	; (200014e4 <__rand_veneer+0xc>)
200014dc:	4684      	mov	ip, r0
200014de:	bc01      	pop	{r0}
200014e0:	4760      	bx	ip
200014e2:	bf00      	nop
200014e4:	10003ec1 	.word	0x10003ec1

200014e8 <eben_128x128>:
	...
20001558:	dedbffdf bdf7bdd7 a534ad75 a534a534     ........u.4.4.4.
20001568:	94f294b2 a53494f2 b575ad34 bdf6bdb6     ......4.4.u.....
20001578:	c6b9ad95 0000df5d 00000000 00000000     ....]...........
	...
20001650:	e79effdf c617e73c 8c70ad74 73ae83ef     ....<...t.p....s
20001660:	7b6d7bae 8bee8bee 7b6d836d 94308bef     .{m{....m.m{..0.
20001670:	8c309430 8c309cb1 ad748cb1 b5d7b5f6     0.0...0...t.....
20001680:	ffdfce9c 00000000 00000000 00000000     ................
	...
2000174c:	d69bffdf 9cf4bdd7 83ad9430 6aeb6aeb     ........0....j.j
2000175c:	7b6d6aeb 9c318bef a472a471 a471a471     .jm{..1.q.r.q.q.
2000176c:	b4f4b4f3 a4b29c71 9430a4b2 a4b19430     ....q.....0.0...
2000177c:	9cb29470 bdb6ad74 e75dc618 00000000     p...t.....].....
	...
20001844:	ffdf0000 ffdfffff 7befb5f6 736d7bae     ...........{.{ms
20001854:	836d7b6d 9c3093ef acb2a471 bd75bd75     m{m...0.q...u.u.
20001864:	c576c576 c576c5b6 cdb7d5f8 cdb6c5b6     v.v...v.........
20001874:	bd75cdb6 b4f3bd35 a4b2b4f3 9cb2a4b2     ..u.5...........
20001884:	b5b6ad34 0000defc 00000000 00000000     4...............
	...
20001940:	ffdf0000 b5b5e75d 83ef8c70 6b2c736d     ....]...p...ms,k
20001950:	9430732c b4f49c71 bd75b534 bd34b4f4     ,s0.q...4.u...4.
20001960:	cdb7cdb6 cdb7c575 cdb7cdb6 d5f7d5f8     ....u...........
20001970:	cdf7cdb6 de38cdb7 cdf7cdb7 bd34cdb7     ......8.......4.
20001980:	acf3acb3 ad34a4f3 c618ad34 c69ae7de     ......4.4.......
20001990:	0000ffdf 00000000 00000000 00000000     ................
	...
20001a3c:	ffdfffdf b5d6d6db 7bae9cf3 6b2b6b2b     ...........{+k+k
20001a4c:	9c718bef bd34b533 c576c576 cdb6cdb7     ..q.3.4.v.v.....
20001a5c:	bd34c576 cdb6d5f7 c535c575 c575cd76     v.4.....u.5.v.u.
20001a6c:	cd76d5f7 cdb6cdb6 d5f7cdb6 d638d638     ..v.........8.8.
20001a7c:	c576d638 c575c576 a4b2b534 acf3acb3     8.v.v.u.4.......
20001a8c:	ce99c638 0000c659 00000000 00000000     8...Y...........
	...
20001b38:	defbce9a b5b6ce59 83ef9cf3 736d62ea     ....Y........bms
20001b48:	a4b28bee c575b4f3 c576bd75 cdb7c5b6     ......u.u.v.....
20001b58:	d5b6cdb7 c533c534 c534c534 bcf3bcf3     ....4.3.4.4.....
20001b68:	c4f3bcf3 cd74bcf3 d5b5cd74 cdb6cd75     ......t.t...u...
20001b78:	d638d5f7 cdb6cdb7 cdb6c575 bd34c575     ..8.....u...u.4.
20001b88:	a471acb2 bdb5a4f3 cedac5d7 00000000     ..q.............
	...
20001c38:	b5b6e77d 7bae8c70 732c736c acf38bee     }...p..{ls,s....
20001c48:	bd35c576 c576c576 cdb7cdb7 cd76cdb7     v.5.v.v.......v.
20001c58:	cd34d5b6 c4f3c533 ccf2ccf3 c4b1cd32     ..4.3.......2...
20001c68:	c4b1d533 cd32c4b1 d533d574 d575d574     3.....2.t.3.t.u.
20001c78:	d5f7ddf7 cdb7d5b7 d5f7d5f7 cdb6d5f7     ................
20001c88:	b4f3c574 acf2acf2 c5f7b575 bedcb638     t.......u...8...
20001c98:	0000efdf 00000000 00000000 00000000     ................
	...
20001d34:	d6dcffdf 8c30b5b7 732c62eb a4b183ae     ......0..b,s....
20001d44:	c575bd34 bd76bd35 c5b7c576 c5b7c5b6     4.u.5.v.v.......
20001d54:	c534c535 c4f2c4f3 ccf2c4f2 d532ccf1     5.4...........2.
20001d64:	ccf1bc70 c4b1ccf1 d4f2c4b0 d533ccf1     p.............3.
20001d74:	d574d533 d575cd74 d5f7cd75 d5f7cdb7     3.t.t.u.u.......
20001d84:	d5f6cdb6 c574cdb6 bd34b4f2 b575b534     ......t...4.4.u.
20001d94:	c679b5b6 d6dbc659 0000ffdf 00000000     ..y.Y...........
	...
20001e30:	ffdfffdf 842fb5b6 732c7bae a4b28bef     ....../..{,s....
20001e40:	bd35b4f3 bd35c576 c5b6c5b6 cd75cdb6     ..5.v.5.......u.
20001e50:	cd34d575 c4f2ccf3 ccf2cd33 c4f0d532     u.4.....3...2...
20001e60:	d4f1cd31 ccb0ccb0 ccb1ccf1 d4f1dd32     1...........2...
20001e70:	dd73d532 dd73e5b4 d573dd74 d5b6ddb5     2.s...s.t.s.....
20001e80:	cdb6ddf7 cdb6d5b6 c5b6d5f7 cdb6cdb7     ................
20001e90:	bd35cdb6 c5b6bdb6 be38c5f7 be59be39     ..5.......8.9.Y.
	...
20001f2c:	c6990000 9cf39d13 62ea73ad 9c71732b     .........s.b+sq.
20001f3c:	bd35b534 bd35bd35 c576bd35 c575c575     4.5.5.5.5.v.u.u.
20001f4c:	cd34c534 ccf2ccf3 ccf2c4b2 d532ccf2     4.4...........2.
20001f5c:	ccf1ccf1 d4f1ccf0 d4f1ccb0 dd32d4f1     ..............2.
20001f6c:	dd32d4f1 dd73d531 e5b4dd73 dd73dd73     ..2.1.s.s...s.s.
20001f7c:	ddb5d573 d575d575 d5b6cd75 cdb6cdb6     s...u.u.u.......
20001f8c:	d5f8d5b7 cdb6cdb7 c575c575 bdb7bd75     ........u.u.u...
20001f9c:	b5f7adb6 ffdfce9a 00000000 00000000     ................
	...
2000202c:	94b2ffdf 62ea736d 7b6c6aeb b534acb2     ....ms.b.jl{..4.
2000203c:	bd75bd75 bd35c576 c575c576 c4f3cd75     u.u.v.5.v.u.u...
2000204c:	c4f2c4f3 ccf2ccf3 ccf2d4f2 ccf1ccf2     ................
2000205c:	ccf1cd32 d4f1d532 d4f1dd31 d4f1dd32     2...2...1...2...
2000206c:	dd32dd32 dd73dd73 dd73ddb3 e5b4e5b4     2.2.s.s...s.....
2000207c:	d534e5b4 d574dd75 d575ddb5 cd75d5b5     ..4.u.t...u...u.
2000208c:	d5b6d5b6 d5b6d5b6 c575d5f7 bd75c5b5     ..........u...u.
2000209c:	b5b6bdb6 d6dbc638 0000ffdf 00000000     ....8...........
	...
20002128:	ffdf0000 732ca492 62695228 acb28bae     ......,s(Rib....
20002138:	b535b4f3 c576bd35 c575bd34 c534bd34     ..5.5.v.4.u.4.4.
20002148:	c4f2c4f2 ccf2c4b2 ccf1c4b1 ccf1ccf1     ................
20002158:	d4f2ccb1 d531ccf1 d531d531 dd32d4f1     ......1.1.1...2.
20002168:	d4f1d4f1 dd32d4f1 dd72d531 ddb3dd72     ......2.1.r.r...
20002178:	ddb4dd73 d533dd73 dd74dd33 ddb5dd74     s...s.3.3.t.t...
20002188:	cd74cd34 ddb6d575 d5b6cd75 d5b6d5b6     4.t.u...u.......
20002198:	cd75cd75 c5b6c574 bdf8bdb6 ffdfce9a     u.u.t...........
	...
20002224:	ffdf0000 7beeceb9 51e76aea 93ef6aa9     .......{.j.Q.j..
20002234:	b4b2b4b2 bd34bcf4 c534c575 c534c575     ......4.u.4.u.4.
20002244:	bcf2c534 c4f2c4f2 c4b1c4f1 ccf0ccf1     4...............
20002254:	ccf1d4f1 d4f1d4f1 d532dd32 d531d532     ........2.2.2.1.
20002264:	dd31dd32 dd31dd32 dd31dd32 dd72dd72     2.1.2.1.2.1.r.r.
20002274:	dd73ddb3 d572dd73 e573dd73 dd74edb4     ..s.s.r.s.s...t.
20002284:	dd74e5b4 d573dd74 d574ddb5 d5b5d575     ..t.t.s...t.u...
20002294:	d5b6ddf6 cdb5d5b6 c575cdb5 bdb6c5b6     ..........u.....
200022a4:	d69ac5f8 0000ffdf 00000000 00000000     ................
	...
20002324:	d6fbffdf 41e76bad 626841a5 acb293ee     .....k.A.Ahb....
20002334:	bcf4ac72 c534bcf4 c534c4f4 c4f2c4f3     r.....4...4.....
20002344:	c4f1bcb1 ccf2bcb1 ccf1c4b0 ccf0c4f0     ................
20002354:	d4f1ccb0 d531d4f1 d532d4f1 dd31d4f1     ......1...2...1.
20002364:	dd31d4f1 e572dd31 dd72dd31 dd72d531     ..1.1.r.1.r.1.r.
20002374:	ddb3dd72 dd73d532 edb4dd73 e5b4e5b4     r...2.s.s.......
20002384:	dd74dd73 ddb4d573 d574d573 ddb5d574     s.t.s...s.t.t...
20002394:	ddb6d576 d5f6d5b6 cd75cd75 c575c534     v.......u.u.4.u.
200023a4:	ad74b534 e75dbe18 00000000 00000000     4.t...].........
	...
20002420:	ffdf0000 8c70d6fb 31645269 93ee6268     ......p.iRd1hb..
20002430:	ac71acb1 b4b3b4f3 bcb2bcf3 c4f2c4f3     ..q.............
20002440:	bcb1c4f2 c4b1c4b1 c4f1c4f1 c4f0c4f1     ................
20002450:	c4f0cd31 d4f1ccf0 d4f1d531 d4f1dd32     1.......1...2...
20002460:	dd31dd32 dd31dd31 dd31dd72 dd72e572     2.1.1.1.r.1.r.r.
20002470:	dd72dd72 dd72e5b3 e5f4e5b4 edb4edf5     r.r...r.........
20002480:	e5b4edf4 dd73e5b4 dd73ddb4 d573dd74     ......s...s.t.s.
20002490:	d574d574 dd75ddb6 d5b6ddf7 d575d5b6     t.t...u.......u.
200024a0:	c534cd75 a4f3cdb5 ceb99cf3 0000ffdf     u.4.............
	...
20002520:	e73cad56 4a279471 522739a5 acb1836d     V.<.q.'J.9'Rm...
20002530:	ac71a430 b4b2ac71 b4b1ac71 bcb1bcb1     0.q.q...q.......
20002540:	bcb1bcb1 c4b1bcb1 c4b0c4af ccf1c4b0     ................
20002550:	ccf1c4b0 d4f1ccf0 d4f1ccf0 dd31d531     ............1.1.
20002560:	dd31d531 dd32d531 dd32d531 dd72dd31     1.1.1.2.1.2.1.r.
20002570:	e573dd32 e5b4dd73 edf5e5b4 edf5e5f5     2.s.s...........
20002580:	e5b5e5b4 ddb4ddb4 dd74d573 dd74d573     ........s.t.s.t.
20002590:	d574d574 ddb5d574 d5b6d575 d5b6d5b5     t.t.t...u.......
200025a0:	cd75cd75 c5b5cd74 9cb29cb2 e75dbe38     u.u.t.......8.].
	...
2000261c:	ffdf0000 9cf3d6ba 396462eb 72ea49e5     .........bd9.I.r
2000262c:	9c2fa470 ac71a430 b4b2b4b2 bcb1bcb2     p./.0.q.........
2000263c:	bcb1bcf2 bcb1c4b1 c4b1c4f1 c4b0ccb0     ................
2000264c:	ccf1ccf1 ccf1ccf1 d4f0d531 d4f0d531     ........1...1...
2000265c:	d531dd31 d531dd32 dd31dd32 dd32dd72     1.1.2.1.2.1.r.2.
2000266c:	dd72e572 dd72e573 e5b4e573 edf5edf5     r.r.s.r.s.......
2000267c:	edf5f636 e5b5edf6 e5b4edf5 ddb4e5b4     6...............
2000268c:	dd74ddb4 dd73e5b4 dd74ddb4 d575ddb4     ..t...s...t...u.
2000269c:	d5b5ddb6 cd74d5b5 cdb6cdb5 83efc5b5     ......t.........
200026ac:	c6788c70 0000ffdf 00000000 00000000     p.x.............
	...
2000271c:	e73dffdf 5aab94b2 41a53164 8bad62a9     ..=....Zd1.A.b..
2000272c:	a4709c30 ac71a430 b4b2ac71 bcb2b4b2     0.p.0.q.q.......
2000273c:	bcb1bcb1 c4b1bcb1 c4f1bcb1 ccb1c4b0     ................
2000274c:	ccb1c4b0 ccf1ccb0 d531ccf0 d531d4f1     ..........1...1.
2000275c:	dd31d531 dd72d531 dd72d531 e572dd72     1.1.1.r.1.r.r.r.
2000276c:	e572dd72 e573dd73 e5b4dd73 ee36edf5     r.r.s.s.s.....6.
2000277c:	edf6edf5 e5f5edf5 e5f5e5b4 e5b4ddb4     ................
2000278c:	e5b4e5b4 dd73dd73 dd73d532 d575d533     ....s.s.2.s.3.u.
2000279c:	d575d574 d5b5d574 cd75cd74 bd34d5b6     t.u.t...t.u...4.
200027ac:	9cf3736d cf1ce75d 00000000 00000000     ms..]...........
	...
20002818:	ffdf0000 8c71d6fb 31655269 52273965     ......q.iRe1e9'R
20002828:	8bad836d a4709c2f ac71ac71 b4b2b4b2     m.../.p.q.q.....
20002838:	bcb1bcf2 bcf2c4f2 bcb1c4f1 c4b1c4f1     ................
20002848:	c4b1ccf1 ccb0c4b0 d4f1d4f1 d531dd31     ............1.1.
20002858:	d4f1dd31 dd32dd31 dd72e572 dd72dd72     1...1.2.r.r.r.r.
20002868:	dd72e5b3 e5b3e5b3 e573e5b3 e5b4e5b4     ..r.......s.....
20002878:	ee36edf5 ee36f637 edf6f637 e5f6edf6     ..6.7.6.7.......
20002888:	e5b5edf6 e5b4e5f5 dd73e5b4 dd73ddb4     ..........s...s.
20002898:	dd75ddb4 d574dd75 ddb5ddb5 cd74ddb5     ..u.u.t.......t.
200028a8:	d5f6d5b5 73adacf2 ffdfb5f6 0000a617     .......s........
	...
20002918:	df3ddf1c 42278471 31642923 6aa941a6     ..=.q.'B#)d1.A.j
20002928:	93ee836c a4709c30 ac719c2f b4b2ac71     l...0.p./.q.q...
20002938:	bcb2b4b2 c4f2bcb1 c4f2bcb1 c4f1c4f1     ................
20002948:	ccf2c4b1 d531c4f1 d4f1ccf0 dd31d4f1     ......1.......1.
20002958:	dd31d4f1 dd72d531 dd72dd32 dd73dd72     ..1.1.r.2.r.r.s.
20002968:	ddb3dd72 e5b3dd72 e5b4dd73 e5b4ddb3     r...r...s.......
20002978:	ee36e5f5 f677ee36 f637ee37 ee37ee37     ..6.6.w.7.7.7.7.
20002988:	e5f6e5b5 e5f5e5f4 e5f5e5b4 e5f5ddb4     ................
20002998:	ddb5dd74 ddb5dd74 ddb5d574 d574d574     t...t...t...t.t.
200029a8:	d5b5cd74 9430cdb6 c6787bee 0000ef9d     t.....0..{x.....
	...
20002a18:	94f3e77d 29644aab 41a63164 6aaa5a68     }....Jd)d1.AhZ.j
20002a28:	a4308b6d 9c2facb1 ac71a430 b4b2b4b2     m.0.../.0.q.....
20002a38:	bcb2bcf2 bcb2bcf2 c4f1c4f2 c4f2cd32     ............2...
20002a48:	c532c533 cd31cd32 ccf0d531 dd31dd31     3.2.2.1.1...1.1.
20002a58:	dd31dd72 e572dd72 dd72e572 dd72ddb3     r.1.r.r.r.r...r.
20002a68:	ddb3e5b3 e5b3e5b3 e5b3e5b4 e5f4e5f4     ................
20002a78:	e5f5edf5 f678ee77 f678f6b9 ee37f678     ....w.x...x.x.7.
20002a88:	e5f6e5f6 e5f6ee37 e5f6e636 e5f6ee36     ....7...6...6...
20002a98:	ddb5e5f6 ddb5e5f5 d5b4ddb5 cdb4d5b4     ................
20002aa8:	cdb4d5f5 cdb5d5f6 7bae7bad f7dfce79     .........{.{y...
	...
20002b18:	6baec659 292429a6 5a6839a5 72ea62a9     Y..k.)$).9hZ.b.r
20002b28:	ac718b6d a430ac71 ac71a430 b4b2ac71     m.q.q.0.0.q.q...
20002b38:	c4f2bcb2 bcb1bcb1 c4f2bcb1 cd32c4f2     ..............2.
20002b48:	cd73c533 d572cd32 cd31cd31 d531ccf0     3.s.2.r.1.1...1.
20002b58:	dd72dd32 e573dd32 e5b3dd72 ddb3dd72     2.r.2.s.r...r...
20002b68:	e5b3dd72 e5b3ddb3 e5b4e5b3 edf5e5b4     r...............
20002b78:	e5f5e5f5 f677e5f5 f678f678 ee37ee37     ......w.x.x.7.7.
20002b88:	ee37e5f6 e637e636 e637e636 e637ddf6     ..7.6.7.6.7...7.
20002b98:	e5f6e5f6 ddb5ddb5 d5b4d5b4 d5b5cd74     ............t...
20002ba8:	d5b5cdb4 d5f6cd74 732cacb2 ef5e9cf3     ....t.....,s..^.
	...
20002c14:	df1b0000 2965636c 31642923 52684a27     ....lce)#)d1'JhR
20002c24:	72ea62a9 a47093ef a430a470 b471ac71     .b.r..p.p.0.q.q.
20002c34:	b472b471 bcf2c4f2 c4f2c4f2 c4f2c4f2     q.r.............
20002c44:	cd32cd33 cd33cd73 d573d573 cd72ddb4     3.2.s.3.s.s...r.
20002c54:	d531d572 dd72dd72 dd72dd72 dd73e5b3     r.1.r.r.r.r...s.
20002c64:	e5b3e5b3 e5b3e5b3 e5b3e5b3 edf5edf5     ................
20002c74:	e5b4edf5 e5f5edf5 ee36ee36 ee37f677     ........6.6.w.7.
20002c84:	ee37f678 e5f7e637 ee37ee37 e637ee78     x.7.7...7.7.x.7.
20002c94:	e5f6e5f6 e5f6ee37 ddb5e5f6 d574ddb5     ....7.........t.
20002ca4:	d5b5ddb5 d574d5b5 cdb5d5b5 83aed5f6     ......t.........
20002cb4:	ce79736e 0000ffff 00000000 00000000     nsy.............
	...
20002d14:	8cb1ffdf 18e329a5 39a52923 5a6841e6     .....)..#).9.AhZ
20002d24:	7b2b62a9 9c2f93ef a42f9bee ac30a3ef     .b+{../.../...0.
20002d34:	bcb2ac30 bcb1bcb2 cd33bcf2 cd33c4f2     0.........3...3.
20002d44:	cd73cd33 cd73c532 ddb4d573 d5b3d5b3     3.s.2.s.s.......
20002d54:	dd72d572 dd72d572 e5b3dd72 dd72dd72     r.r.r.r.r...r.r.
20002d64:	dd73dd72 e5b3dd72 e5b3dd72 edf5e5b4     r.s.r...r.......
20002d74:	edf5e5b4 edf5e5f5 f677e5f5 ee37ee36     ..........w.6.7.
20002d84:	f678ee37 ee38e637 ee78ee37 ee37e637     7.x.7.8.7.x.7.7.
20002d94:	ee37ee37 e5f6e636 ddb5ddb5 ddb5ddb5     7.7.6...........
20002da4:	d575d574 d5b5d5b5 d5b5cd74 acb2d5f6     t.u.....t.......
20002db4:	a4f462eb 0000ffdf 00000000 00000000     .b..............
	...
20002e14:	4268b5f7 18e21923 39a53165 5a695227     ..hB#...e1.9'RiZ
20002e24:	7b2c6aaa 9c2f9c2f 9beea42f a3efa42f     .j,{/././.../...
20002e34:	b470ac30 bcb1c4b2 c532c533 cd33cd33     0.p.....3.2.3.3.
20002e44:	c532cd73 cd73cd33 d573d5b3 ddb4ddf4     s.2.3.s...s.....
20002e54:	dd72e5f4 dd72ddb3 dd72ddb3 d532e572     ..r...r...r.r.2.
20002e64:	e5b3dd72 e5b3e5b3 e5b3e5b3 e5b4e5b4     r...............
20002e74:	edf5edf5 ee36ee36 f637f677 f678feb8     ....6.6.w.7...x.
20002e84:	f678f678 ee37ee78 f678f678 ee37f678     x.x.x.7.x.x.x.7.
20002e94:	ee37ee78 e5f6ee37 ddb5e5f6 ddb5ddb5     x.7.7...........
20002ea4:	d5b5ddb5 d5b4d5b5 d5b4d5b5 c5b6d5f6     ................
20002eb4:	6b6d7b6d ffdfdefb 00000000 00000000     m{mk............
	...
20002f10:	ffdf0000 29a57c30 212310a2 39653124     ....0|.)..#!$1e9
20002f20:	6aaa49e6 7b2c6aa9 9c2f93ae a3ee93ad     .I.j.j,{../.....
20002f30:	a3eea3ee ac2f9bae bcf2bc70 cd33c4f2     ....../.p.....3.
20002f40:	cd74c533 c532c532 cd73cd32 d5b3cd73     3.t.2.2.2.s.s...
20002f50:	e5f4ddb4 ddb3ddb3 dd72d572 dd72d531     ........r.r.1.r.
20002f60:	dd72dd72 e5b3dd72 e5b3e5b3 e5b3dd73     r.r.r.......s...
20002f70:	edf5e5b3 e5f4e5b4 ee36edf5 ee36ee35     ..........6.5.6.
20002f80:	f678f678 ee77ee37 e637ddf6 ee37e5f6     x.x.7.w...7...7.
20002f90:	e637e637 e5f6ddf6 e5f6ddf6 ddb5d5b5     7.7.............
20002fa0:	ddb5ddb5 ddb5d574 ddb4d5b5 d5b4d574     ....t.......t...
20002fb0:	d5f7cdb5 6b2b9c71 ffdfb5b6 00000000     ....q.+k........
	...
20003010:	8c71ffff 10e239e7 292318e3 39653965     ..q..9....#)e9e9
20003020:	6aaa5227 7b2b72eb 9bee9bef 9bed9bee     'R.j.r+{........
20003030:	a3eda3ee a3ada3ad b470b470 cd33c532     ........p.p.2.3.
20003040:	cd33cd74 cd33d574 cd73d573 d573d5b3     t.3.t.3.s.s...s.
20003050:	ddb3ddb4 dd72d5b3 d531dd72 dd72dd73     ......r.r.1.s.r.
20003060:	dd72dd72 dd72dd72 dd73e5b3 dd72dd73     r.r.r.r...s.s.r.
20003070:	e5b5e5b4 ddb4edf5 edf5edf5 e5f5ee36     ............6...
20003080:	ee36ee37 e5f6e636 ee38ee78 e637ee78     7.6.6...x.8.x.7.
20003090:	ee37ee78 e637ee77 e5f6e5f6 ddb5e5f6     x.7.w.7.........
200030a0:	ddb5e5f6 d5b5ddb5 d5b4ddb5 d574ddb4     ..............t.
200030b0:	d5f6d5b5 736cc5b5 ef5e83ef 00000000     ......ls..^.....
	...
20003110:	52ebe71d 10a218e3 292318a2 41a63124     ...R......#)$1.A
20003120:	626951e7 836c6aa9 9bae93ae a3ed9bad     .Qib.jl.........
20003130:	a3ed9bac a3ad9bac b470a3ed cd33bcb1     ..........p...3.
20003140:	cd73cd33 d574cd33 d573cd33 cd32d573     3.s.3.t.3.s.s.2.
20003150:	cd72cd32 d572cd31 dd72d572 dd72d572     2.r.1.r.r.r.r.r.
20003160:	dd72dd72 dd72d531 dd72d531 e5b3dd72     r.r.1.r.1.r.r...
20003170:	e5b4dd73 e5f5e5b4 e5f5e5f4 f637e5f5     s.............7.
20003180:	f678ee36 ee37ee37 ee37e637 ee78e637     6.x.7.7.7.7.7.x.
20003190:	ee37ee37 ee78e5f6 e5f6e5f6 e5f6ddf6     7.7...x.........
200031a0:	ddb5ddb5 ddb5d5b5 ddb4d574 d5b4ddb4     ........t.......
200031b0:	d5f6cd74 942fcdf6 c63862eb 0000ffdf     t...../..b8.....
	...
20003210:	4228ce79 10a118e3 20e320e3 41a63124     y.(B..... . $1.A
20003220:	52275228 832b6aa9 9bad93ad 9bac9bed     (R'R.j+.........
20003230:	9bac9bad a3aca3ed ac2eabee c4b1b470     ............p...
20003240:	cd73cd33 d573cd73 cd72d5b4 d573d5b3     3.s.s.s...r...s.
20003250:	cd72d5b3 d531d572 d572d531 d531dd72     ..r.r.1.1.r.r.1.
20003260:	d531dd32 dd72dd72 dd72dd73 e5b3e5b3     2.1.r.r.s.r.....
20003270:	e5b4e5b4 edf5edf5 edf5ee36 ee36ee36     ........6...6.6.
20003280:	ee37ee37 ee37f678 e636ee37 ee37ee37     7.7.x.7.7.6.7.7.
20003290:	e5f6ee37 e5f6e5f6 ddf5ee36 ddf5e5f6     7.......6.......
200032a0:	ddb5e5f6 ddb5ddb5 d573ddb5 d5b4ddb4     ..........s.....
200032b0:	cdb5d5b5 b533de36 94b16b2b 0000ffff     ....6.3.+k......
	...
2000330c:	ffdf0000 29648c71 10a20860 20e318e3     ....q.d)`...... 
2000331c:	39a52924 5a6849e6 7b2b5a67 9bed93ac     $).9.IhZgZ+{....
2000332c:	9bed9bad a3ed9bad a3ac9b6c abeeabed     ........l.......
2000333c:	bcafb42e cd72c4f0 cd72c531 d573d572     ......r.1.r.r.s.
2000334c:	ddb3d572 d572d572 d531d531 d572d531     r...r.r.1.1.1.r.
2000335c:	cd31d531 dd72cd31 dd72d531 dd72dd72     1.1.1.r.1.r.r.r.
2000336c:	e5b3dd72 edf4e5b3 e5b4e5b4 edf5e5b4     r...............
2000337c:	ee37e5f5 ee77e636 ee37ee37 ee37e636     ..7.6.w.7.7.6.7.
2000338c:	e5f5e5b5 edf6e5f5 e5b4e5b5 e5f6ddb5     ................
2000339c:	ddb5ddb5 ddb4ddb4 ddb4d574 d574d5b4     ........t.....t.
200033ac:	d5b4cd73 d5b5d574 cdb5d5b5 6b2b7b6c     s...t.......l{+k
200033bc:	0000ffdf 00000000 00000000 00000000     ................
	...
2000340c:	f7dfdf5d 10a2632c 10a210a1 292420e3     ]...,c....... $)
2000341c:	31642924 5a684a27 832b6aa9 9bed93ad     $)d1'JhZ.j+.....
2000342c:	9beda3ee a3eda3ed 9baca3ed abeeabed     ................
2000343c:	b46fb42e c4f1c4f0 cd31cd31 d573d573     ..o.....1.1.s.s.
2000344c:	d572ddb3 ddb3ddb3 d531dd72 d572dd72     ..r.....r.1.r.r.
2000345c:	dd72d572 dd72dd72 dd72e5b3 dd72dd73     r.r.r.r...r.s.r.
2000346c:	dd72e5b3 e5b4e5f4 e5b4edf4 edf5edf5     ..r.............
2000347c:	ee37ee36 ee37ee77 ee36ee77 e5f6ee37     6.7.w.7.w.6.7...
2000348c:	e5f5edf5 e5f5ee36 e5b5edf5 ddb5e5f5     ....6...........
2000349c:	ddb5e5f5 ddb4ddb5 ddb4ddb5 ddb4ddb5     ................
200034ac:	d5b4ddb5 d5b4d5b5 cdb5d5b5 52689c70     ............p.hR
200034bc:	0000ffdf 00000000 00000000 00000000     ................
	...
2000350c:	c679ffdf 08614228 18a20861 28e420e3     ..y.(Ba.a.... .(
2000351c:	39652924 5a2749e6 836b6aa9 93ac8b6b     $)e9.I'Z.jk.k...
2000352c:	a3ee9bad a3ee9bad a3eda3ed abeea3ed     ................
2000353c:	b46fabee c4f0b46f cd32cd31 d572c4f1     ..o.o...1.2...r.
2000354c:	d572cd32 d572cd31 dd72d572 dd72d531     2.r.1.r.r.r.1.r.
2000355c:	dd72d572 dd72d572 dd72dd72 dd73dd72     r.r.r.r.r.r.r.s.
2000356c:	e5b3dd72 e5f4e5b3 edf5e5f4 f636edf5     r.............6.
2000357c:	f678edf6 f678ee77 ee36ee36 ee36e5f6     ..x.w.x.6.6...6.
2000358c:	ee36f636 edf5e5f5 e5f5e5b5 e5f5ddb5     6.6.............
2000359c:	e5f5ddb5 ddb5ddb4 ddb5ddb5 ddb5d574     ............t...
200035ac:	d5b5d5b4 d5b4cd74 de36cdb4 5aaaa4b1     ....t.....6....Z
200035bc:	ffdfad55 00000000 00000000 00000000     U...............
	...
2000360c:	c679ffdf 08604269 10a210a2 20a320e3     ..y.iB`...... . 
2000361c:	39a52924 52275227 832b72e9 93ac93ac     $).9'R'R.r+.....
2000362c:	9bed9bed a3eda3ed a3edac2e ac2eac2e     ................
2000363c:	ac2eac2e bc6fb46f d572cd31 cd32d573     ....o.o.1.r.s.2.
2000364c:	d572d572 cd31d571 ddb3ddb3 d572e5b3     r.r.q.1.......r.
2000365c:	dd72ddb3 dd72ddb3 dd72e573 dd72e5b3     ..r...r.s.r...r.
2000366c:	e5b3e5b3 e5f5edf5 edf5ee35 e5b4edf5     ........5.......
2000367c:	f677f637 ee36f637 e5f5f637 e5f5e5f5     7.w.7.6.7.......
2000368c:	edf5ee36 e5f5edf6 e5b5edf6 ddb5e5f5     6...............
2000369c:	ddb5e5f6 ddb5ddb5 ddb4ddb5 ddb5ddb5     ................
200036ac:	d5b4ddf5 d5b4d5b5 d5f6d5f5 62eabd74     ............t..b
200036bc:	ffdf8c70 00000000 00000000 00000000     p...............
	...
2000370c:	b5f8ffdf 086139e7 10a20861 20e318a2     .....9a.a...... 
2000371c:	39a62924 522749e6 836b6aa9 93ac8b6b     $).9.I'R.jk.k...
2000372c:	93ac936c a3ed9bac a3ed9bac b46fa3ed     l.............o.
2000373c:	ac2eac2e bc6fac2e d532c4b0 d532d532     ......o...2.2.2.
2000374c:	d532cd32 dd72cd31 dd72dd72 dd72d572     2.2.1.r.r.r.r.r.
2000375c:	ddb3dd72 ddb3dd72 e5b3dd72 e5b3dd72     r...r...r...r...
2000376c:	e5b3dd72 ee35e5f4 e5f5e5f4 e5b4e5f4     r.....5.........
2000377c:	e5f5edf5 e5f5ddb4 e5f5e5b4 edf5e5f5     ................
2000378c:	e5f5e5f5 edf5e5f5 edf5e5f5 e5f6e5f5     ................
2000379c:	ddb5ddb5 ddb5ddb5 ddb5d574 ddb5ddb5     ........t.......
200037ac:	d5b4d5b4 d5b5d5b4 d5f6cdb4 6b2bc574     ............t.+k
200037bc:	f7df6b2c 00000000 00000000 00000000     ,k..............
	...
2000380c:	7c31ffdf 10612965 10a210a2 18a220e3     ..1|e)a...... ..
2000381c:	39652924 51e649e6 7b2a6aa9 93ac8b6c     $)e9.I.Q.j*{l...
2000382c:	936c9bad a3ad9bac a3eda3ed ac2eac2e     ..l.............
2000383c:	b46fb46f b46eb46e ccf1c4b0 d532d532     o.o.n.n.....2.2.
2000384c:	d531d532 d572d532 d531d572 dd72ddb3     2.1.2.r.r.1...r.
2000385c:	ddb3e5b3 dd72e5b3 dd72e5b3 e5b3e5b3     ......r...r.....
2000386c:	e5b3e5b4 ee35edf5 e5b4ee35 ee36ee35     ......5.5...5.6.
2000387c:	e5f5f637 edf5edf5 e5f5edf5 edf5ee36     7...........6...
2000388c:	edf6edf6 ee36f636 edf6ee36 e5f6ee36     ....6.6.6...6...
2000389c:	e5f6e5f6 ddb5e5f6 ddb5ddb5 d5b4ddf5     ................
200038ac:	d5b5ddb5 d5b5ddf5 d5b5d5b5 732ccdf6     ..............,s
200038bc:	e75d6b2c 0000df9f 00000000 00000000     ,k].............
	...
2000390c:	8471ffdf 10612124 10a21061 18a318a2     ..q.$!a.a.......
2000391c:	316520e3 49a539a5 72e95a27 8b6c7b2a     . e1.9.I'Z.r*{l.
2000392c:	93ac936c 9bac936b abee9bac abeda3ed     l...k...........
2000393c:	b46fac2e b42eac2e ccf1bc6f cd31ccf1     ..o.....o.....1.
2000394c:	d531ccf0 d531cd31 dd72d531 dd72d572     ..1.1.1.1.r.r.r.
2000395c:	ddb3d531 dd72dd72 e5b3dd72 e5b3e5b3     1...r.r.r.......
2000396c:	e5b3ddb3 edf5e5b3 ee35e5f5 e636ddf5     ..........5...6.
2000397c:	ee76e636 ee36e635 ee36ee36 ee36edf5     6.v.5.6.6.6...6.
2000398c:	f6b8e637 f678ee77 ee37f678 ee37ee37     7...w.x.x.7.7.7.
2000399c:	ee37e5f6 e5f6e5f6 ddf5ddb5 ddb5d574     ..7.........t...
200039ac:	ddf5d5b5 ddb5ddb5 d5f6cdb5 7badcdf6     ...............{
200039bc:	bdf74a68 0000ffdf 00000000 00000000     hJ..............
	...
20003a0c:	8431ffdf 08612965 10a218a2 20e320e3     ..1.e)a...... . 
20003a1c:	312420e3 396541a5 62685227 832b72ea     . $1.Ae9'Rhb.r+.
20003a2c:	936c8b6c 93ac9bad 9bad9bad a3eda3ed     l.l.............
20003a3c:	bc6fb42e b42eb46f ccf1bcb0 c4f0ccf0     ..o.o...........
20003a4c:	d531cd31 d531dd72 d572ddb3 d572dd72     1.1.r.1...r.r.r.
20003a5c:	ddb3dd73 ddb3e5b3 e5b3e5b3 e5b3e5b3     s...............
20003a6c:	ddb3e5b3 edf4edf4 ee35ee35 e676ee76     ........5.5.v.v.
20003a7c:	ee77eeb7 ee77ee77 ee77f6f8 ee37ee36     ..w.w.w...w.6.7.
20003a8c:	f6b9f6b9 ee78f6b9 ee38f6b9 e5f6ee37     ......x...8.7...
20003a9c:	e5f6ee37 e5f6e5f6 ddb5e5f7 ddb5ddb5     7...............
20003aac:	ddb5ddb5 ddb5ddf6 cdf6d5f6 8c2ed637     ............7...
20003abc:	94b14227 0000ffdf 00000000 00000000     'B..............
	...
20003b0c:	8c71ffdf 10a22965 18a210a2 20e318a2     ..q.e)......... 
20003b1c:	292320e3 39a53164 5a6749a5 7aea6aa9     . #)d1.9.IgZ.j.z
20003b2c:	936c832b 9bac936c 936b936b a3ac9bac     +.l.l...k.k.....
20003b3c:	b42ea3ac b46fb42e c4f0b42e ccf0c4b0     ......o.........
20003b4c:	d572ccf0 dd72d572 d571d532 dd72d572     ..r.r.r.2.q.r.r.
20003b5c:	e5b3d572 ddb3dd73 ddb3dd72 e5b3dd72     r...s...r...r...
20003b6c:	dd72dd72 edf4e5b3 e5f4e5b3 ee36e5f5     r.r...........6.
20003b7c:	f6b8e636 ee78ee37 f6b8ee78 ee37f677     6...7.x.x...w.7.
20003b8c:	ee78ee77 f678ee37 f678ee38 ee37edf7     w.x.7.x.8.x...7.
20003b9c:	e5f6e5f6 edf7e5f6 ddf6e5b6 ddf5ddb5     ................
20003bac:	ddb5d5b5 ddb5ddb5 cdf6cdb5 a4b1d5f6     ................
20003bbc:	84704a68 0000ffdf 00000000 00000000     hJp.............
	...
20003c0c:	73aeffdf 10a12965 18a210a2 20e320e3     ...se)....... . 
20003c1c:	29232924 39643964 5a2749e6 6aa86aa8     $)#)d9d9.I'Z.j.j
20003c2c:	8b6c832b 93ac9bad 936b93ac a3ac9bac     +.l.......k.....
20003c3c:	abeda3ac b42eb42e bcafbc6f ccf1cd31     ........o...1...
20003c4c:	cd31ccf1 d572dd72 d572ddb3 dd72ddb3     ..1.r.r...r...r.
20003c5c:	d531dd72 d532dd72 dd72dd72 dd72dd72     r.1.r.2.r.r.r.r.
20003c6c:	d531dd72 dd72dd72 dd72e573 e5f4e5b4     r.1.r.r.s.r.....
20003c7c:	f678ee36 ee78f6b8 ee78f6b8 f678feb9     6.x...x...x...x.
20003c8c:	ee37f677 ee37ee37 e5f6ee37 e5f6ee37     w.7.7.7.7...7...
20003c9c:	ddb5e5f6 e5f6e5f6 ddb5e5f6 ddb5e5f6     ................
20003cac:	ddb5ddf5 ddb5ddb5 cdf6d5f6 b532d636     ............6.2.
20003cbc:	7bee62ea 0000ffff 00000000 00000000     .b.{............
	...
20003d0c:	5aebffdf 10a210a2 18a210a2 20e318a2     ...Z........... 
20003d1c:	29232924 41a53123 5a2749e6 6a685a27     $)#)#1.A.I'Z'Zhj
20003d2c:	8b6b7ae9 93ac936c 9bac936b a3ad9bac     .zk.l...k.......
20003d3c:	abeda3ac b42eabed c4b0bc6f cd31c4b0     ........o.....1.
20003d4c:	cd31ccf1 dd73cd31 e5f4ddb3 d572dd72     ..1.1.s.....r.r.
20003d5c:	d531d531 d531ccf0 dd32d531 d531d531     1.1...1.1.2.1.1.
20003d6c:	d531d4f1 d4f0d4f0 dd31d4f1 dd73d531     ..1.......1.1.s.
20003d7c:	ee36e5b4 ee77ee37 ee37ee77 e5f5e5f5     ..6.7.w.w.7.....
20003d8c:	edf6e5b5 e5f5ddb4 e5b5ddb4 ddb5ddb4     ................
20003d9c:	ddb5ddb4 ddb5d574 e5f6ddb5 ddb5ddb5     ....t...........
20003dac:	ddb5d5b5 ddb5d5b5 d5f6d5b5 bd73d5f6     ..............s.
20003dbc:	6b6d5aa9 0000ffdf 00000000 00000000     .Zmk............
	...
20003e0c:	6baeffdf 10a12124 18a218e2 20e318e3     ...k$!......... 
20003e1c:	29232924 396439a5 51e649e6 6a685a67     $)#).9d9.I.QgZhj
20003e2c:	832a7ae9 936c936c 9bac9bac 9baca3ad     .z*.l.l.........
20003e3c:	a3eda3ed abedabed c4b0bcb0 ccf1ccf1     ................
20003e4c:	d532d532 d573d532 ddb2ddb3 d572ddb2     2.2.2.s.......r.
20003e5c:	d572dd72 ccf0dd72 d4f0dd31 d4f1d531     r.r.r...1...1...
20003e6c:	d531dd31 ccafd4f0 ccb0d4f0 d4f0d4f0     1.1.............
20003e7c:	e5b4dd32 ddb4e5b5 e5f5ee36 d573ddb4     2.......6.....s.
20003e8c:	dd73dd73 cd32dd73 ddb4dd73 ddb4ddb4     s.s.s.2.s.......
20003e9c:	d574e5f5 ddb5ddb5 ddb5ddb5 d5b5ddb5     ..t.............
20003eac:	d5b5ddb5 ddb5ddb5 d5b6ddf6 c574d5f6     ..............t.
20003ebc:	62eb6b2b 0000ffdf 00000000 00000000     +k.b............
	...
20003f0c:	6baeffdf 10a218e3 18a210a2 292418a2     ...k..........$)
20003f1c:	316420e3 396439a4 51e641a5 6a685226     . d1.9d9.A.Q&Rhj
20003f2c:	832b72a8 9bac8b6b 9b6c936b a3ac936b     .r+.k...k.l.k...
20003f3c:	abeda3ac ac2eabed b46fa3ed ccf1c4b0     ..........o.....
20003f4c:	d532cd32 dd73cd32 d572d572 d572d572     2.2.2.s.r.r.r.r.
20003f5c:	dd72d532 dd31d532 d531d4f0 d531ccf0     2.r.2.1...1...1.
20003f6c:	d4f0d4f1 d4afccaf d4afccaf d4b0d4b0     ................
20003f7c:	dcf2cc6f d532dd32 edf5dd73 d532dd72     o...2.2.s...r.2.
20003f8c:	d4f2ccb1 dd73d532 ddb4d573 e5f5ddb4     ....2.s.s.......
20003f9c:	ddb4d574 ddb4ddb4 d574cd32 d574cd74     t.......2.t.t.t.
20003fac:	d5b5d574 ddb5d574 d5f6d5b5 cdb5d5b6     t...t...........
20003fbc:	632b732b 0000e75d 00000000 00000000     +s+c]...........
	...
2000400c:	632cffff 10a218e3 18a218a2 20e320e3     ..,c......... . 
2000401c:	31643164 41a53964 49a549a5 6a686267     d1d1d9.A.I.Igbhj
2000402c:	7aea7ae9 9bac936c 93ab9bac a3ac9bac     .z.zl...........
2000403c:	abedabed b42eb42e b46fabee cd32ccf2     ..........o...2.
2000404c:	d532d532 d573dd73 d573e5b4 d572ddb3     2.2.s.s...s...r.
2000405c:	ccf0d532 d532d4f1 d531d572 d531d531     2.....2.r.1.1.1.
2000406c:	ccf0d531 ccb0d4f0 ccafccf0 ccb0d4b0     1...............
2000407c:	cc6fccaf dd32d4f0 dd73e5b4 ccf1d532     ..o...2...s.2...
2000408c:	d533d532 ddb4dd74 ddb4ddb4 ddb4ddf4     2.3.t...........
2000409c:	ddb5e5f5 ccf2d573 bc70c4f1 bcb1c4f2     ....s.....p.....
200040ac:	cd73bcf2 d5b4d5b4 cdb5d5f6 cdb5d5f6     ..s.............
200040bc:	7b6d83ae 0000efbe 00000000 00000000     ..m{............
	...
2000410c:	6baeffdf 10a210a2 20e218a2 292318e2     ...k....... ..#)
2000411c:	31642923 41a53123 49a53964 6aa95a67     #)d1#1.Ad9.IgZ.j
2000412c:	832b7ae9 93ac8b6b 9bac93ab 9bac936b     .z+.k.......k...
2000413c:	abeda3ac ac2eabed c4b0b42e cd32c4f1     ..............2.
2000414c:	d533cd32 ddb3d572 c532d573 bcb0bcb0     2.3.r...s.2.....
2000415c:	c4afc4af c4b0c46e cd31c4f0 d531ccf0     ....n.....1...1.
2000416c:	ccf0ccf0 ccf0ccf0 c46fc4af c46fc46f     ..........o.o.o.
2000417c:	ccafc46f dd31ccaf d4f2dd31 ccf1ccf1     o.....1.1.......
2000418c:	d532c4b0 d533d533 ddb3d532 d573d572     ..2.3.3.2...r.s.
2000419c:	c4f1cd32 b46eb46f abedabed 9bac9b6b     2...o.n.....k...
200041ac:	b46f9bed d5f5c572 d5f5d5b4 cdf5cdf5     ..o.r...........
200041bc:	6b2c8bae 0000c659 00000000 00000000     ..,kY...........
	...
2000420c:	632cffdf 18a22123 20e220e3 292320e2     ..,c#!... . . #)
2000421c:	31233164 41a53964 49a541a5 6a686268     d1#1d9.A.A.Ihbhj
2000422c:	8b2b7aea 93ac93ac 9bac9bac 9b6b9bac     .z+...........k.
2000423c:	a3edabed ac2eabed bcb0bc6f c4f1c4f1     ........o.......
2000424c:	cd32cd32 c4f0d573 9babac2d 9b6a9bab     2.2.s...-.....j.
2000425c:	a3ababec abeba3ab abecabec b42db42d     ............-.-.
2000426c:	bc6ebc6e c4aeccaf c46eccae c42dc46e     n.n.......n.n.-.
2000427c:	cc6ecc6e ccafd4af d4f1d4f1 c4b0ccf1     n.n.............
2000428c:	c4afc4af c4b0d4f1 bc6ec4af b46ebcaf     ..........n...n.
2000429c:	abecb46e 936aa3ab 9baba3ab 82e89329     n.....j.....)...
200042ac:	8b2a936a d574a42e cdb5ddf5 cdf5cdf6     j.*...t.........
200042bc:	62eb8bae 0000ceba 00000000 00000000     ...b............
	...
2000430c:	52ebffdf 20e22123 20e318a2 292320e2     ...R#!. ... . #)
2000431c:	29233123 41a63164 5a2741a5 62685a27     #1#)d1.A.A'Z'Zhb
2000432c:	8b6b72a9 9bac93ac 9bac93ac a3ac936b     .rk.........k...
2000433c:	a3eda3ac ac2ea3ed bcb0abed c4f1bcb0     ................
2000434c:	cd31cd31 8b29a3ed 832882e8 8b297ae7     1.1...)...(..z).
2000435c:	8b288b28 82e782a7 9b6a82e7 93299329     (.(.......j.).).
2000436c:	9b2a9329 b3eca3ab bc2cb3ec bc2cbbec     ).*.......,...,.
2000437c:	c42dbbec ccafc46e d532ccf0 bc6eccf1     ..-.n.....2...n.
2000438c:	bc6db42c abedbc2e 82a78ae8 82e88ae8     ,.m.............
2000439c:	8ae882a7 82a782a7 932982a7 8b299329     ..........).).).
200043ac:	7ae982e8 ac2f7ae9 cdb5d5b5 d636c5b4     ...z.z/.......6.
200043bc:	6aeb836d 0000e75d 00000000 00000000     m..j]...........
	...
2000440c:	6baeffdf 18a22965 20e220e3 31232923     ...ke)... . #)#1
2000441c:	28e23164 39643964 522649e6 62675a26     d1.(d9d9.I&R&Zgb
2000442c:	93ac7aea 93ac9bed 93ab9bac 9bac9bac     .z..............
2000443c:	a3eda3ed ac2eac2e bcb0b46e c4f0c4f1     ........n.......
2000444c:	ac2dbcb0 7aa79b6b 72a67aa7 7aa77ae7     ..-.k..z.z.r.z.z
2000445c:	72657266 6a257266 72677266 69e57a67     frerfr%jfrgrgz.i
2000446c:	722569e5 82667225 9b299329 abaaabaa     .i%r%rf.).).....
2000447c:	b3ebb3aa ccafcc6e dd32dd31 b42dccf1     ....n...1.2...-.
2000448c:	ababb3eb 8ae9a3ab 61a47226 596261e4     ........&r.a.abY
2000449c:	61e461a3 72667266 7ae77aa7 7aa78b28     .a.afrfr.z.z(..z
200044ac:	832a7267 7aa882e9 bd32ac2f d636cdf5     gr*....z/.2...6.
200044bc:	62aa93ee 0000d6fc 00000000 00000000     ...b............
	...
2000450c:	7c30ffdf 20e32924 28e320e3 396428e2     ..0|$). . .(.(d9
2000451c:	31643124 31233164 5a2741a5 626851e6     $1d1d1#1.A'Z.Qhb
2000452c:	8b6b72a9 9bed93ac 9bec9bac 9bac93ab     .rk.............
2000453c:	a3ed9bac ac2ea3ed c4f1b4af b46fbcb0     ..............o.
2000454c:	8ae9936a 7a667aa7 62246a24 59a361e3     j....zfz$j$b.a.Y
2000455c:	61e45162 496359a3 51634962 40e140e2     bQ.a.YcIbIcQ.@.@
2000456c:	492238a0 596248e1 7a6661a4 932882a6     .8"I.HbY.afz..(.
2000457c:	b3aa9b28 ccafbc2c dd72d4f0 b42dccf1     (...,.....r...-.
2000458c:	93299b69 7a6782a8 596461a5 49224922     i.)...gz.adY"I"I
2000459c:	51634922 59e551a3 622559e5 59e451a4     "IcQ.Q.Y.Y%b.Q.Y
200045ac:	622651a4 6a266a67 93ad72a8 cdf6a4b0     .Q&bgj&j.r......
200045bc:	5a699c30 0000be18 00000000 00000000     0.iZ............
	...
2000460c:	73efffff 20e32924 29232924 31233964     ...s$). $)#)d9#1
2000461c:	39a53964 31243964 522649e6 6aa96268     d9.9d9$1.I&Rhb.j
2000462c:	8b6b832a 93ac9bed 9beca3ed 9bac9bec     *.k.............
2000463c:	a42ea3ed a42dac2e b46fb4b0 82e9a3ed     ......-...o.....
2000464c:	72667aa7 59a36a25 61e461e4 492261e4     .zfr%j.Y.a.a.a"I
2000465c:	51a34962 38e24963 30a138e2 30a030a1     bI.QcI.8.8.0.0.0
2000466c:	38a138e1 492248e2 61a35963 7a667225     .8.8.H"IcY.a%rfz
2000467c:	abaa9328 ccafbc2c e5b3e572 b46edd73     (...,...r...s.n.
2000468c:	9329a3ab 61e582a8 516359a5 38a14923     ..)....a.YcQ#I.8
2000469c:	286030a1 30e230e1 30e138e2 49a44163     .0`(.0.0.8.0cA.I
200046ac:	41224963 59e559e5 836b72a9 b4f2942e     cI"A.Y.Y.rk.....
200046bc:	736da4b1 0000be38 00000000 00000000     ..ms8...........
	...
2000470c:	8c71ffdf 20e22965 312420e2 39643964     ..q.e). . $1d9d9
2000471c:	39a53964 41a52923 51e641a5 72ea5a27     d9.9#).A.A.Q'Z.r
2000472c:	8b6b7aea 9bed936c a3ed9bac 9bed9bad     .zk.l...........
2000473c:	a42e9bed a42ea3ed 8b2a93ac 7aa782e8     ..........*....z
2000474c:	61e46225 51a359a4 49234922 39224122     %b.a.Y.Q"I#I"A"9
2000475c:	30a130a1 30a23061 30a12061 40e338a1     .0.0a0.0a .0.8.@
2000476c:	492340e3 512248e1 512248e1 71e45963     .@#I.H"Q.H"QcY.q
2000477c:	a3a97a25 ccefbc6d ee35e5b3 c531ddf4     %z..m.....5...1.
2000478c:	936ba42d 59a46a66 30a24122 20602020     -.k.fj.Y"A.0  ` 
2000479c:	20611820 18611861 28a12061 312328e2      .a a.a.a .(.(#1
200047ac:	51a43923 726861e6 836b7aa9 a46f83ab     #9.Q.ahr.zk...o.
200047bc:	8c2facb1 000094d2 00000000 00000000     ../.............
	...
2000480c:	94b3ffff 20e239e6 31232923 396541a5     .....9. #)#1.Ae9
2000481c:	316449a6 41a53164 51e649e6 72ea6268     .Id1d1.A.I.Qhb.r
2000482c:	8b2b832a a3ee9bed a3edac2e a3edac2e     *.+.............
2000483c:	a3eda3ee 9bada3ed 72a88b6b 72667267     ........k..rgrfr
2000484c:	51a36a25 49635163 40e24963 30e23923     %j.QcQcIcI.@#9.0
2000485c:	28a128e2 30e230e2 30a130e2 38a238a2     .(.(.0.0.0.0.8.8
2000486c:	40e34923 48e24923 48e24922 69a35963     #I.@#I.H"I.HcY.i
2000487c:	abeb8225 dd71d530 f676edf4 ddf5ee77     %...0.q...v.w...
2000488c:	9baccd73 412261e5 18202861 20612061     s....a"Aa( .a a 
2000489c:	186120a2 18611862 18601861 30e228e2     . a.b.a.a.`..(.0
200048ac:	49644164 82ea6a27 93ac936c 9c2e8bac     dAdI'j..l.......
200048bc:	9cb1c574 00007c70 00000000 00000000     t...p|..........
	...
2000490c:	9cf3ffdf 28e339e6 292328e3 41653124     .....9.(.(#)$1eA
2000491c:	396441a5 39652923 522649e6 72a95a26     .Ad9#)e9.I&R&Z.r
2000492c:	8b6c7ae9 a42e9bed ac2ea42e a3eda3ed     .zl.............
2000493c:	a3ed9bed 936b9bed 7aa87aa8 72257266     ......k..z.zfr%r
2000494c:	61e569e4 59a559a4 39234964 28e230e2     .i.a.Y.YdI#9.0.(
2000495c:	28a220a1 392228a2 38e238e2 306038a1     . .(.("9.8.8.8`0
2000496c:	40e33060 40e340e3 492340e3 69e45122     `0.@.@.@.@#I"Q.i
2000497c:	c4ae92e8 dd72d530 feb8edf5 e5f6ee37     ....0.r.....7...
2000498c:	a3eeddb5 38605163 28612020 28a12861     ....cQ`8  a(a(.(
2000499c:	10611861 08200821 18a10020 28a218a1     a.a.!. . ......(
200049ac:	59e649a5 82a959a4 9bee9b6d b4f293ee     .I.Y.Y..m.......
200049bc:	ad33cdb6 00008c92 00000000 00000000     ..3.............
	...
20004a0c:	9cf3ffdf 28e24a27 31643123 39653965     ....'J.(#1d1e9e9
20004a1c:	396449e6 41a53164 5a2749e6 6a686268     .Id9d1.A.I'Zhbhj
20004a2c:	93ad832b a3eea3ee ac2eac6f a3edac2e     +.......o.......
20004a3c:	9baca3ed 8b2a9bac 726782e9 69e47226     ......*...gr&r.i
20004a4c:	61e569e5 512461e5 28e24124 186128a2     .i.a.a$Q$A.(.(a.
20004a5c:	186118a1 392220a2 30a13922 61a659a5     ..a.. "9"9.0.Y.a
20004a6c:	38a14923 40e440e3 49234924 72245163     #I.8.@.@$I#IcQ$r
20004a7c:	ccefabeb dd72dd31 ee37ee35 e636ee77     ....1.r.5.7.w.6.
20004a8c:	abeee5f6 38605963 48e348e2 28a130a1     ....cY`8.H.H.0.(
20004a9c:	08201861 18e30021 106131a6 392449e7     a. .!....1a..I$9
20004aac:	622730e2 69e66a27 9bef932c b4f2acb1     .0'b'j.i,.......
20004abc:	b575d5f7 0000b5b6 00000000 00000000     ..u.............
	...
20004b0c:	b5f7ffdf 29234a68 41a53123 41a541a5     ....hJ#)#1.A.A.A
20004b1c:	41a541a5 41a53164 62a841a5 6a685a67     .A.Ad1.A.A.bgZhj
20004b2c:	9bad82ea ac2ea3ee b42fac2e a3edac2e     ........../.....
20004b3c:	936b9bab 82e882e9 72677aa8 69e569e5     ..k......zgr.i.i
20004b4c:	59a461e4 38e24122 20a128a2 106118a1     .a.Y"A.8.(. ..a.
20004b5c:	18a20820 31231861 62276268 71e640e1      ...a.#1hb'b.@.q
20004b6c:	71e68ae9 40e340a2 492340e2 7a664922     ...q.@.@.@#I"Ifz
20004b7c:	ccefabeb e5b3dd71 ee36e5b4 e5f6e5f6     ....q.....6.....
20004b8c:	b42fddb5 7a677a67 48e37a27 49644923     ../.gzgz'z.H#IdI
20004b9c:	10611860 18e30820 08612965 83ae62ea     `.a. ...e)a..b..
20004bac:	38e24124 69e559a4 a3ef82aa b4f2a470     $A.8.Y.i....p...
20004bbc:	c5b6c575 0000be17 00000000 00000000     u...............
	...
20004c0c:	c679ffdf 28e35aea 41a639a5 396549e6     ..y..Z.(.9.A.Ie9
20004c1c:	41e641a6 39643964 62685227 72a962a8     .A.Ad9d9'Rhb.b.r
20004c2c:	93ad832b a3eeac2f b46fac6f a3edbc70     +.../...o.o.p...
20004c3c:	8b299bab 7a678ae9 72267267 69e57226     ..)...gzgr&r&r.i
20004c4c:	412161e4 30a238e2 106120a2 08612123     .a!A.8.0. a.#!a.
20004c5c:	20e30860 10612965 c5749c70 50e17aa8     `.. e)a.p.t..z.P
20004c6c:	abab8225 40e282a8 48e240e1 8aa759a4     %......@.@.H.Y..
20004c7c:	c4aeabab e5b3e571 e5f4e5f4 e5f5ee36     ....q.......6...
20004c8c:	c4afddb4 c46ebc2d 59227a26 62268aea     ....-.n.&z"Y..&b
20004c9c:	186130e1 00201061 10610020 94706b2c     .0a.a. . .a.,kp.
20004cac:	38e27b2b 69a461a5 a42f82a9 bcf2acb0     +{.8.a.i../.....
20004cbc:	c5b6cdb5 ffdfc638 00000000 00000000     ....8...........
	...
20004d0c:	e73cffdf 29235aea 49e739a5 41a541a5     ..<..Z#).9.I.A.A
20004d1c:	41a541a5 41a53964 5a2749e6 72e95a67     .A.Ad9.A.I'ZgZ.r
20004d2c:	9bad832a ac2ea3ee bc70ac2e abedb42e     *.........p.....
20004d3c:	8ae9936a 7a677aa7 72267226 69e569e5     j....zgz&r&r.i.i
20004d4c:	38a04922 206128a1 292330e3 08611061     "I.8.(a .0#)a.a.
20004d5c:	08610020 106118a2 d5f67bae 7a26b46f      .a...a..{..o.&z
20004d6c:	82244860 82a8b3ec 596348e1 9b298267     `H$......HcYg.).
20004d7c:	bc6dab6a e5b2ccef e5f4ddb2 e5f5ddf4     j.m.............
20004d8c:	c4f0d573 ccf0c4af 8a679ae9 7ae89329     s.........g.)..z
20004d9c:	20604122 08200820 29640020 b5339471     "A`  . . .d)q.3.
20004dac:	726893ad 8aa87226 ac2f8aea bd32acb0     ..hr&r..../...2.
20004dbc:	cdf6c573 d7dfc617 00000000 00000000     s...............
	...
20004e0c:	ffdf0000 31236b2b 49e549e5 416441a5     ....+k#1.I.I.AdA
20004e1c:	416449e6 49a649a5 5a2751e7 72a96268     .IdA.I.I.Q'Zhb.r
20004e2c:	9bed8b6b ac2eac2e b46ebc6f abedac2e     k.......o.n.....
20004e3c:	9329a3ac 7a668ae8 72267226 61a47a26     ..)...fz&r&r&z.a
20004e4c:	40a148e2 496440e2 416572a9 10a118a1     .H.@.@dI.reA....
20004e5c:	086110a2 29241061 ddf5a4b1 a36bcd72     ..a.a.$)....r.k.
20004e6c:	58e16964 bbeca328 7a668266 ab69abab     di.X(...f.fz..i.
20004e7c:	b3ecb3aa e5b2d530 dd72e5b2 e5b3e572     ....0.....r.r...
20004e8c:	c531ddb4 ccf1c531 bc2dc4b0 a36ba36a     ..1.1.....-.j.k.
20004e9c:	51a5932a 39234163 832b3923 b4b1bcf2     *..QcA#9#9+.....
20004eac:	9b6ca3ee a36c9b2b b42fabee c533c4f2     ..l.+.l.../...3.
20004ebc:	cdf5cdb4 ce9bd637 f7dfffdf ef5defbe     ....7.........].
20004ecc:	0000efdf 00000000 00000000 00000000     ................
	...
20004f0c:	ffdf0000 39a56b6c 49e539a4 41a549a5     ....lk.9.9.I.I.A
20004f1c:	416441a5 51e741a5 5a2749e6 72e96268     .AdA.A.Q.I'Zhb.r
20004f2c:	a3ee832a b42fa3ee b46fb42e b42eac2e     *...../...o.....
20004f3c:	9b6aa3ac 82a78ae8 7a677226 71e57a26     ..j.....&rgz&z.q
20004f4c:	61a46163 9bac7a68 7aaa936b 18604123     ca.ahz..k..z#A`.
20004f5c:	18601060 832c2061 bcf1c533 a3abb46e     `.`.a ,.3...n...
20004f6c:	a36a92e9 bc2cab6a ababa36a b3aab3ec     ..j.j.,.j.......
20004f7c:	bc2db3aa e5b2ccef d4f0dd31 e572dd31     ..-.....1...1.r.
20004f8c:	cd31d532 cd32c4f1 d532ccf2 b36bb3ed     2.1...2...2...k.
20004f9c:	b42ea36b a3ada3ed a3ad932c 9b6ca42e     k.......,.....l.
20004fac:	abee932b b3efb42f bcb0abee cd74c532     +.../.......2.t.
20004fbc:	cdf5cd74 f73dcdf6 c5f7d65a de39cdf7     t.....=.Z.....9.
20004fcc:	e7dfde9a 00000000 00000000 00000000     ................
	...
2000500c:	ffdf0000 39e77bf0 49e639a6 41a55227     .....{.9.9.I'R.A
2000501c:	41644164 41a551e7 5a6849e7 72e96aa9     dAdA.Q.A.IhZ.j.r
2000502c:	a3ee8b6c b42fac2f b46fb46f b42eb46f     l..././.o.o.o...
2000503c:	abecb42d 9329a3ab 8aa88ae9 7a268aa7     -.....).......&z
2000504c:	8aa87a26 a3ac9b6b a36ca36b 72689bac     &z..k...k.l...hr
2000505c:	59e66226 bc708b2b b42ebcb0 bc6eb42d     &b.Y+.p.....-.n.
2000506c:	ccefd4f0 ccaed4ef bc2dc46e bbebbc2d     ........n.-.-...
2000507c:	bc2dbc2c e572ccf0 dd31e572 dd32e5b3     ,.-...r.r.1...2.
2000508c:	ccf1dd32 cd32cd32 bcb1c4f2 ab6bbc2f     2...2.2...../.k.
2000509c:	abacab6b ab6cb3ad 92eb9aeb 9bad9bad     k.....l.........
200050ac:	bcb1ac2f c4f2cd33 c4f1bcb1 d5b4d5b4     /...3...........
200050bc:	d5f5d5f5 cd75d5f6 c533bcf2 d534dd75     ......u...3.u.4.
200050cc:	ef1cddf7 00000000 00000000 00000000     ................
	...
2000510c:	ffdf0000 39e78431 49e63164 49a549a5     ....1..9d1.I.I.I
2000511c:	41644164 41a541a5 5a2741a5 7aea6aa8     dAdA.A.A.A'Z.j.z
2000512c:	ac2e936c ac2ea3ee bcb0b42e bc6fbcaf     l.............o.
2000513c:	bc6ebc6e ac2cac2c 9b6aa3ab 8aa78aa7     n.n.,.,...j.....
2000514c:	b3eca36a 9b2a9329 9ae992a8 abacabac     j...).*.........
2000515c:	9b2b92ea a36cabac d4f1b3ed c46eccb0     ..+...l.......n.
2000516c:	c4aeccaf ccefbc6d c46ec4ae bc2dbbec     ....m.....n...-.
2000517c:	bc2ebc2d dd32c4af e5b3dd31 e572e572     -.....2.1...r.r.
2000518c:	d4f1d4f1 cd33ccf1 c4f3cd33 bc6fbcb1     ......3.3.....o.
2000519c:	abadb3ed b3eeabad bc2fb3ed bc71b42f     .........././.q.
200051ac:	cd33c4b1 d5b5d574 d573cd73 ddf5d5b4     ..3.t...s.s.....
200051bc:	de36d5b5 bc70d5f5 dd33c4b1 9269ab2b     ..6...p...3.+.i.
200051cc:	eeb9b3ef 00000000 00000000 00000000     ................
	...
20005208:	ffdf0000 ffdfd7df 41a69cb2 49a43123     ...........A#1.I
20005218:	416449a5 49a551e6 49e649a5 49e649a6     .IdA.Q.I.I.I.I.I
20005228:	832a72ea a42e9bed abeeabee bcb0b46f     .r*.........o...
20005238:	c4b0cd31 c4afc4ef c4aec4ef abecbc6e     1...........n...
20005248:	bc6eabec c4afccf0 abecbc6f a32aabab     ..n.....o.....*.
20005258:	8a679ae9 a32a92e9 bc2eab6c d4f1ccf1     ..g...*.l.......
20005268:	bc6fccf1 bc6ec4af ccf0c4af c46dd4f0     ..o...n.......m.
20005278:	bc2dbc2d bc2ebc2e dd32ccb0 dd31e572     -.-.......2.r.1.
20005288:	e572dd72 ccb1e533 cd32cd32 d575d574     r.r.3...2.2.t.u.
20005298:	cd72d5b4 bcb1c532 c4f1bcb0 ccf2cd32     ..r.2.......2...
200052a8:	ccf3cd33 d574d574 d5b5d5b5 d5b4ddf4     3...t.t.........
200052b8:	ddf5ddf5 d5f5ddf5 ccf2d5f5 bbeeedb5     ................
200052c8:	68a270e2 cd138a27 00000000 00000000     .p.h'...........
	...
20005304:	f7df7e9c d679d6db e678d5f7 6aa9b4f2     .~....y...x....j
20005314:	49643923 49a44163 522651e6 41a54165     #9dIcA.I.Q&ReA.A
20005324:	49e641a5 8bac6aa9 a3ee93ac b42fa3ee     .A.I.j......../.
20005334:	bcb0b46f cd31c4f1 c4efc4ef cd30ccef     o.....1.......0.
20005344:	c4afbc6e ccf0c4f0 d531ccf0 ccf1ccf1     n.........1.....
20005354:	bc2dc46f b3edabac d4b0c46f d4f1ccb0     o.-.....o.......
20005364:	c4b1ccf1 ccf2c4b1 ccf0c4b0 d531ccf1     ..............1.
20005374:	cc6eccaf bc2ebc2c bc2eb42d dd31c46f     ..n.,...-...o.1.
20005384:	dd31d4f1 e573dd32 ccf1dd32 cd72c4f1     ..1.2.s.2.....r.
20005394:	ddb3cd32 d5b5d5b4 d574d574 d574d533     2.......t.t.3.t.
200053a4:	d5b4cd73 d574d574 d5b4cd33 d5b5d574     s...t.t.3...t...
200053b4:	d5b4d5b3 ddf5d5f4 d5f5d5b4 d574cdb4     ..............t.
200053c4:	a32bd533 78a278e3 bc2e7963 0000ffdf     3.+..x.xcy......
	...
20005404:	de39ef7e bcb1cd34 bbeec470 c4f1c470     ~.9.4...p...p...
20005414:	8ae9bc6f 51a559a4 59e66268 396449a5     o....Y.Qhb.Y.Id9
20005424:	41a44165 8b6c6268 a3ed9bed b42eac2e     eA.Ahbl.........
20005434:	c4b0bc6f cd31cd32 ccefd531 d530d571     o...2.1.1...q.0.
20005444:	cd31cd30 cd31d572 cd31d531 d532d532     0.1.r.1.1.1.2.2.
20005454:	d530d532 d531dd32 d532dd32 d532dd73     2.0.2.1.2.2.s.2.
20005464:	ccf3d573 d533d533 d532d532 d531d572     s...3.3.2.2.r.1.
20005474:	cc6ed4f0 b42dc46e bc6ebc6e ccb0ccaf     ..n.n.-.n.n.....
20005484:	d4f1ccb0 e5b4edb3 dd73e5b4 cd32cd32     ..........s.2.2.
20005494:	d572d573 ddb5ddb4 dd75e5f6 ddb5dd75     s.r.......u.u...
200054a4:	d5b4ddf6 d574d574 d574ddb5 ddb4ddb5     ....t.t...t.....
200054b4:	d5b4ddb4 d5b4ddf5 d5f5ddf5 cd34ddf5     ..............4.
200054c4:	b36dbc71 80e1a227 bbed8963 ffdfef7d     q.m.'...c...}...
	...
20005504:	b471de9a 9267a32b 71237163 8a677123     ..q.+.g.cq#q#qg.
20005514:	d4afbbec 61a48aa8 69e669a5 39234964     .......a.i.idI#9
20005524:	39643123 8b6c5a67 a3eda3ed abeda3ad     #1d9gZl.........
20005534:	bcafabed d531ccf0 d531ccf0 dd72d531     ......1...1.1.r.
20005544:	d531d531 d571cd31 ddb2d531 d572d531     1.1.1.q.1...1.r.
20005554:	dd72d531 d572d531 d573d531 d573d573     1.r.1.r.1.s.s.s.
20005564:	ddb5dd74 dd33d533 dd72d531 d531ccf1     t...3.3.1.r...1.
20005574:	ccb0ccb0 bc2ec46f bc6eb42d c46ebc2d     ....o...-.n.-.n.
20005584:	d531c46f edf4e573 ddb3e5b3 cd33c4f1     o.1.s.........3.
20005594:	d573d573 dd73cd32 e5f6ddb4 d5b5d574     s.s.2.s.....t...
200055a4:	ddb4d574 ddb4d573 ddb4d574 ddb5dd74     t...s...t...t...
200055b4:	ddf4ddb4 d5b4ddb4 ddf5d5b4 d575d5b5     ..............u.
200055c4:	bbefbc72 a1a3aaa9 c3ac9122 ffdfe6db     r.......".......
	...
20005600:	ffdf0000 8a69b4b2 58606923 506158a1     ......i.#i`X.XaP
20005610:	48605061 92a850a1 6964b3ac 72266964     aP`H.P....didi&r
20005620:	49a57268 41644164 8b6c6aa9 a3eda3ee     hr.IdAdA.jl.....
20005630:	a3acabed b42eabed cd31cd31 d571d531     ........1.1.1.q.
20005640:	d571d531 d572dd72 d572d5b2 ddb3ddb2     1.q.r.r...r.....
20005650:	dd72dd72 dd72e5b3 d572dd72 d572dd73     r.r...r.r.r.s.r.
20005660:	d533d572 ddb4dd74 dd32e5b4 d531dd72     r.3.t.....2.r.1.
20005670:	ccf0d531 d4b0d4f1 abeccc6f b42db3ec     1.......o.....-.
20005680:	bc6ebc2e d531c4af e573e573 dd73e5b3     ..n...1.s.s...s.
20005690:	cd32d573 d573cd73 dd73dd73 ddb5ddb4     s.2.s.s.s.s.....
200056a0:	ddb5e5b6 ddb4ddb5 dd74ddb4 dd74e5b5     ..........t...t.
200056b0:	ddb4ddb4 ddf4ddf4 d574ddb4 ddb5ddb5     ..........t.....
200056c0:	cd74d5f5 c430c4f4 b225bb2a bbac99a3     ..t...0.*.%.....
200056d0:	ffdfe6fb 00000000 00000000 00000000     ................
	...
20005700:	cd75ffdf 712392e9 50a15860 48a148a0     ..u...#q`X.P.H.H
20005710:	58e34861 612350a2 79e68227 7a276963     aH.X.P#a'..yci'z
20005720:	72a98b2a 41a53964 8b6c6268 a3ec93ac     *..rd9.Ahbl.....
20005730:	abeda3ac ac2da3ac cd31bcaf d572cd31     ......-...1.1.r.
20005740:	d572cd31 ddb3d572 ddb3ddb2 dd72dd72     1.r.r.......r.r.
20005750:	e573dd72 e572dd72 dd73dd72 dd73d532     r.s.r.r.r.s.2.s.
20005760:	dd73dd72 dd73dd72 dd31dd31 dd30dd30     r.s.r.s.1.1.0.0.
20005770:	dd31d531 d4f0d4f0 a36abbed abeca36a     1.1.......j.j...
20005780:	c46eb42d ccf0bc2e e573dd72 e5b4dd72     -.n.....r.s.r...
20005790:	cd33d573 d573c4f1 dd72dd73 dd74d532     s.3...s.s.r.2.t.
200057a0:	e5b5dd74 e5f5e5b5 edf5e5b5 ddb4ddb4     t...............
200057b0:	ddb4ddb4 ddf4ddb4 ddb4ddb4 d5f5d5b4     ................
200057c0:	cd74cdb4 cc71b471 ba67c32b c3eea1a4     ..t.q.q.+.g.....
200057d0:	ffdfde9a 00000000 00000000 00000000     ................
	...
200057fc:	43030000 b470ef7e 68a19267 50a160a1     ...C~.p.g..h.`.P
2000580c:	48a148a1 71a66164 58e371a6 71a560e2     .H.Hda.q.q.X.`.q
2000581c:	79e579a5 832a8b2a 396451a5 836b6a68     .y.y*.*..Qd9hjk.
2000582c:	9bac93ac a3aca3ed ac2da3ac c4f0bcaf     ..........-.....
2000583c:	cd31d572 d5b3d572 ddb3ddb3 ddb3e5b3     r.1.r...........
2000584c:	dd73e5b3 dd72e573 dd31e572 e572e5b3     ..s.s.r.r.1...r.
2000585c:	e573e573 e573e5b4 dd71dd72 dd30e571     s.s...s.r.q.q.0.
2000586c:	dd30dd30 dd30dd31 bbedd4f0 a32ab3ab     0.0.1.0.......*.
2000587c:	abecabab bc2ebc2e ccafbc2e e5b3e5b3     ................
2000588c:	e5f6e5b5 cd33e5f6 ccf2ccf2 e572e573     ......3.....s.r.
2000589c:	dd73dd73 dd74e5b5 ddb4ddb4 e5f5edf5     s.s...t.........
200058ac:	ddb4edf5 e5f5e5b5 ddb4e5f5 ddb5e5f5     ................
200058bc:	d5b5ddb5 c533d5f6 cc71ac30 ba26cb6c     ......3.0.q.l.&.
200058cc:	d42fb226 ffdfdebb 00000000 00000000     &./.............
	...
200058fc:	ffdf0000 abedbd98 7922a266 50a26061     ........f."ya`.P
2000590c:	696348a0 82278227 612371a6 61234860     .Hci'.'..q#a`H#a
2000591c:	7a2579e5 8b2b8267 39236227 832b59e7     .y%zg.+.'b#9.Y+.
2000592c:	9bac8b6b a36b9b6b abed9b6b bcafac2d     k...k.k.k...-...
2000593c:	cd31c4f0 d572cd31 ddb3d532 ddb3dd72     ..1.1.r.2...r...
2000594c:	dd72dd72 dd72d531 e572dd31 e572dd31     r.r.1.r.1.r.1.r.
2000595c:	edb3e572 dd72e573 e571dd31 e531dd31     r...s.r.1.q.1.1.
2000596c:	e531dcf0 d4efd4ef ab6ac42d ab6ba32a     ..1.....-.j.*.k.
2000597c:	b42dabab b42db42d c46fb3ed e5b3dd72     ..-.-.-...o.r...
2000598c:	feb9edf6 e5f6f6b9 c4b1c4f1 e573d4f1     ..............s.
2000599c:	e574dd73 e5b4e574 dd73d533 e5b4dd73     s.t.t...3.s.s...
200059ac:	e5b4e5b4 e5b4dd73 e5f4e5b4 ddb4dd73     ....s.......s...
200059bc:	d5f5d5b4 bd32cdf4 dcb2ac2f b226cb2b     ......2./...+.&.
200059cc:	dcb1aa26 0000e75d 00000000 00000000     &...]...........
	...
200059fc:	ffdf0000 abadc5b8 8964b2e8 50a260e2     ..........d..`.P
20005a0c:	89e55922 8a66a2e8 58e379a5 48a050a1     "Y....f..y.X.P.H
20005a1c:	826671e5 8b2a7a26 39237aea 6a6851a6     .qf.&z*..z#9.Qhj
20005a2c:	9bac93ac 9b6ba3ac a3aca36b b42eb42d     ......k.k...-...
20005a3c:	ccf0c4b0 ccf1d532 dd72d532 dd72e5b3     ....2...2.r...r.
20005a4c:	e572e5b3 e573e572 e531e572 e572e571     ..r.r.s.r.1.q.r.
20005a5c:	e572edb3 dd31e573 e571e572 dd31e531     ..r.s.1.r.q.1.1.
20005a6c:	e531e531 cc6ddd30 a2e8bbab b3acab2a     1.1.0.m.....*...
20005a7c:	b42dbbed b42dbc6e c46fbc2e dd32dd72     ..-.n.-...o.r.2.
20005a8c:	febaf678 e5f6f678 ccf1dd74 dd32c4af     x...x...t.....2.
20005a9c:	ed74f5f5 e573edb5 e5b4e5b4 e5b3e5b4     ..t...s.........
20005aac:	e5b4e5b4 e5b4e5b4 ddb4e5b4 d573e5b4     ..............s.
20005abc:	d5f5ddf5 bd32cdf5 dcb2bcb1 b1e6db6d     ......2.....m...
20005acc:	e492baa8 00000000 00000000 00000000     ................
	...
20005afc:	ffdf0000 b3edbd55 89a4aaa7 58a160a1     ....U........`.X
20005b0c:	a2677163 8a669a66 612371a4 50e150a1     cqg.f.f..q#a.P.P
20005b1c:	8a6771e5 8ae971e4 496482e9 6a6851a5     .qg..q....dI.Qhj
20005b2c:	936b82e9 9b6b9b6b 9bab932a b42ea3ac     ..k.k.k.*.......
20005b3c:	c46fb42e ccf1c4b0 d531ccb0 dd72d532     ..o.......1.2.r.
20005b4c:	e572dd31 e532dcf1 e530dcf0 ed72e571     1.r...2...0.q.r.
20005b5c:	e531dd31 e572e532 e572e531 dd31dd31     1.1.2.r.1.r.1.1.
20005b6c:	dcf1dcf0 cc6de530 a329a329 c3eeab6b     ....0.m.).).k...
20005b7c:	c46fbbee b42ebc2e ccb0b42d d4f1d4f0     ..o.....-.......
20005b8c:	e5b4dd74 cd32d4f2 d533cd32 cc6fc46f     t.....2.2.3.o.o.
20005b9c:	edb4dd32 edf5edf5 e5f5ddb4 e5b4e5b4     2...............
20005bac:	e573e573 e5b4dd73 ddb4ddb4 ddb4ddb4     s.s.s...........
20005bbc:	d5f5d5b4 c573cdb4 e533ccf2 c2a8dbee     ......s...3.....
20005bcc:	e595baea 00000000 00000000 00000000     ................
	...
20005bfc:	ffdf0000 b3edbd74 9a26bb6a 68607922     ....t...j.&."y`h
20005c0c:	a2a889a5 8a67a2e9 696379e5 61636963     ......g..ycicica
20005c1c:	92a792e9 822679e4 59a58b2a 626751e5     .....y&.*..Y.Qgb
20005c2c:	8b6a7ae9 932a9bac 9b6aa36b abeda3ab     .zj...*.k.j.....
20005c3c:	b42eb42e c46fc46f ccafccaf d531d531     ....o.o.....1.1.
20005c4c:	d4f0dd31 dcb0dcf1 e531e531 e531ed71     1.......1.1.q.1.
20005c5c:	ed71e571 ed32ed72 e531ed72 dd31e572     q.q.r.2.r.1.r.1.
20005c6c:	e531ed72 bbebe531 a36b92e8 c3eebc2e     r.1.1.....k.....
20005c7c:	c4afcc6f bc6fc4b0 bc2dbc2e cc6ecc2d     o.....o...-.-.n.
20005c8c:	d46fd4f0 bc2ecc2e cd33bcb1 bc2ed4f3     ..o.......3.....
20005c9c:	e572ccb0 edf5ee34 ddb4e5f6 edb4edf5     ..r.4...........
20005cac:	dd73edb4 e5b4dd73 ddb4e5b5 ddb5ddb5     ..s.s...........
20005cbc:	cdb4ddb5 cd73d5b5 e534dd34 cb2bdcb0     ......s.4.4...+.
20005ccc:	df5cdc2f 00000000 00000000 00000000     /.\.............
	...
20005cfc:	ffdf0000 bc2eb514 c2e9cbab 70a09163     ............c..p
20005d0c:	a2a889a4 92a8a2e9 79e579e5 822779e5     .........y.y.y'.
20005d1c:	9aa89aea 71e571a4 72688ae9 49a551a5     .....q.q..hr.Q.I
20005d2c:	8b6a6a67 9b6b936a 9b6b9b6b abed9b6b     gjj.j.k.k.k.k...
20005d3c:	b42eabed c46fb42e ccafc4af ccefc4ae     ......o.........
20005d4c:	d4afccaf dcafd4af e530dcf0 dd30dcf0     ..........0...0.
20005d5c:	ed72dd30 ed72e531 edb3ed72 e572e572     0.r.1.r.r...r.r.
20005d6c:	ed31e531 ab29d46e bbed8a66 cc70c42e     1.1.n.).f.....p.
20005d7c:	d4afd470 b42dc46e 9b2aa36b ab6a9ae9     p...n.-.k.*...j.
20005d8c:	c3eebbed abedab6c c4f2a3ee ccb0d4f2     ....l...........
20005d9c:	dcf0c42e edf5dd72 e5f5e5f6 edf5e5b4     ....r...........
20005dac:	e574e574 dd73dd73 ddb4dd73 ddb4ddb4     t.t.s.s.s.......
20005dbc:	d5b5d5b4 c532cdb4 e574d4f2 d3acd46f     ......2...t.o...
20005dcc:	efdedc70 00000000 00000000 00000000     p...............
	...
20005dfc:	ffdf0000 b3eec5f7 cb6bcbab 78e0b266     ..........k.f..x
20005e0c:	a2e891e5 9267a2e9 81e68226 8a689268     ......g.&...h.h.
20005e1c:	82268a68 71e68226 7268932b 49a551a5     h.&.&..q+.hr.Q.I
20005e2c:	832a72a8 932a936b 9b6b9b6b 9bac9bac     .r*.k.*.k.k.....
20005e3c:	b42eabed bc6ebc6e c4afccb0 c46ec4ae     ....n.n.......n.
20005e4c:	c46dccae d4aed4ae dcf0dcf0 dcf0dcf0     ..m.............
20005e5c:	e531e531 e531e572 ed72ed72 ed72ed72     1.1.r.1.r.r.r.r.
20005e6c:	e4f0ed72 9aa7d46e c3ee9a67 cc2fcc6f     r...n...g...o./.
20005e7c:	b3abc42e 92e9a36a 7a278268 82277a26     ....j...h.'z&z'.
20005e8c:	9aa992e9 9bad9b2b a3ee9bed d4f1ccb1     ....+...........
20005e9c:	c46ec42e e5b3e531 edf6edf5 e573ee35     ..n.1.......5.s.
20005eac:	e5b4edb4 dd73e573 ddb4e5b4 d5b4ddb4     ....s.s.........
20005ebc:	cdb4d5b5 bcb0cdb4 e574dcf2 d3edd4b0     ..........t.....
20005ecc:	df9ee4f3 00000000 00000000 00000000     ................
	...
20005efc:	d71a0000 b42fdedb d3acb32a 8921baa7     ....../.*.....!.
20005f0c:	aae989a3 9aa8ab2a 79a579a4 822781e6     ....*....y.y..'.
20005f1c:	58e26923 8aa97a26 7aa99b6c 6a6851a5     #i.X&z..l..z.Qhj
20005f2c:	832a72a8 8b2a82ea 9b6b932a a3ac9b6b     .r*...*.*.k.k...
20005f3c:	abeda3ac bc2eabed bc2db42d c46ebc2d     ........-.-.-.n.
20005f4c:	c46dbc2d d4afcc6e dcf0d4af e531dcf1     -.m.n.........1.
20005f5c:	ed72e531 e531e532 ed72e531 e531dd31     1.r.2.1.1.r.1.1.
20005f6c:	dcb0e4f1 79a3bb6b c3ad9a68 ab2cbbad     ....k..yh.....,.
20005f7c:	826692a9 59a469a4 61a55964 61645964     ..f..i.YdY.adYda
20005f8c:	69a55963 832b82aa 72676227 ccb09b6c     cY.i..+.'bgrl...
20005f9c:	bbabbbed e532d4af e5f5dd73 e5b4e5b4     ......2.s.......
20005fac:	e573dd33 dd73d532 d5b4d573 d5b5d5b4     3.s.2.s.s.......
20005fbc:	d5f5cdb4 b42dc573 edb4d470 dc70ccaf     ....s.-.p.....p.
20005fcc:	dfdfe534 00000000 00000000 00000000     4...............
	...
20006000:	bcf3ffff c3acab6b 8921cb2a aaea8963     ....k...*.!.c...
20006010:	9267b36b 692379a4 61236964 486058e1     k.g..y#idi#a.X`H
20006020:	9b2b69a5 8b2bb42f 7ae9832b 7b2a6aa8     .i+./.+.+..z.j*{
20006030:	8aea8b2a 936b9b6b 9bac9bac a3aca3ac     *...k.k.........
20006040:	b3edabed b42db42d c46ec46d c46eccae     ....-.-.m.n...n.
20006050:	d4efccaf dcf1dd31 e531e531 e532e532     ....1...1.1.2.2.
20006060:	dd31ed72 ed72e532 e531edb3 d42ee4b0     r.1.2.r...1.....
20006070:	60e19a67 ab2aaaea 7a279aea 38a161a4     g..`..*...'z.a.8
20006080:	20602861 30a128a1 51644924 59655163     a(` .(.0$IdQcQeY
20006090:	286259a6 40602020 a36c79e6 bb6abbac     .Yb(  `@.yl...j.
200060a0:	dcf0d46e e5b4e573 e5b4e5f5 dd33e574     n...s.......t.3.
200060b0:	d573dd73 d5b4d573 d5b5ddf5 cdf5d5b5     s.s.s...........
200060c0:	b3acc532 e573dc70 d4b0d531 dfdfedb6     2...p.s.1.......
	...
20006100:	e679df9f b32b9b6c 80e1c32a b2ea80e2     ..y.l.+.*.......
20006110:	81e5aaea 69226922 58e258a1 48a158a1     ...."i"i.X.X.X.H
20006120:	9b6c50a2 9badb42f 72a9832b 7ae96aa9     .Pl./...+..r.j.z
20006130:	8b2b7ae9 936b8b2a 9b6b932a a3ac9b6b     .z+.*.k.*.k.k...
20006140:	abacabac b3edabab cc6ebbec c46ec46e     ..........n.n.n.
20006150:	ccafc46e e531d4f0 dd31dcf1 dcf0d4b0     n.....1...1.....
20006160:	dd31dcf1 e572dcf0 e531e572 cbedd46f     ..1...r.r.1.o...
20006170:	60a17162 92689aa9 50e26964 10202820     bq.`..h.di.P ( .
20006180:	18610820 20611821 496330a2 51644964      .a.!.a .0cIdIdQ
20006190:	206130a2 40602020 826858e2 bb2aab2a     .0a   `@.Xh.*.*.
200061a0:	d42ec36b dd73d4f0 dd73d573 e573dd33     k.....s.s.s.3.s.
200061b0:	ddb4dd33 ddb4d573 d5b4d5b4 cdf5cdb4     3...s...........
200061c0:	b3abb4f1 ed73dc2f d4f1ccf0 0000edd7     ..../.s.........
	...
20006200:	ffdf010a 9b6bb533 8922cbac a2a878e2     ....3.k..."..x..
20006210:	79a4ab2a 58e16922 58e260e2 486160e2     *..y"i.X.`.X.`aH
20006220:	932b48a2 a3edb46f 72a9832a 72a872e9     .H+.o...*..r.r.r
20006230:	82ea7ae9 8b2a8b2b 9b6b9b6c 9b6ba3ac     .z..+.*.l.k...k.
20006240:	a3acabac abecabec c42ebc2d c46fc46e     ........-...n.o.
20006250:	bc2dccaf cc6ebc2d d4afdcf0 d4afdcf0     ..-.-.n.........
20006260:	e4f0e4f0 dd30e531 d4afdd31 b3abd4af     ....1.0.1.......
20006270:	50606922 79e681e6 382058e3 18202820     "i`P...y.X 8 ( .
20006280:	20612061 20202061 30a12861 62274964     a a a   a(.0dI'b
20006290:	7aaa936d 486048e3 b3ed6964 b36ad4b0     m..z.H`Hdi....j.
200062a0:	c3ecbb6a dd31dcaf dd33dd72 e574e574     j.....1.r.3.t.t.
200062b0:	dd73dd73 ddb4ddb4 cdb4d5b4 d5f5d5f5     s.s.............
200062c0:	b32ab4b0 e573d46f d4f3d4f2 0000f73c     ..*.o.s.....<...
	...
20006300:	d7df0000 a42fd6fb aa67bb6c 9a676860     ....../.l.g.`hg.
20006310:	79e5a2ea 58e158e1 58e258a1 486150a1     ...y.X.X.X.X.PaH
20006320:	9b6b50e2 a3edb42e 7aea832a 6a686aa9     .Pk.....*..z.jhj
20006330:	82ea6a68 8b2a8aea 9b6c932b 9b6b932b     hj....*.+.l.+.k.
20006340:	abeda3ac abecabec bc2eb3ed c46ebc2d     ............-.n.
20006350:	c42ec46e b3abab6a dcafcc6e dcafd4af     n...j...n.......
20006360:	e4f0d46e e530dcef dcf0dcf0 ababccaf     n.....0.........
20006370:	58e16122 69646964 382148a2 28a12820     "a.Xdidi.H!8 (.(
20006380:	59e54964 38a14923 51a52860 bcb1832b     dI.Y#I.8`(.Q+...
20006390:	b42fbcb1 592471e7 e5b4a36b c46fdd32     ../..q$Yk...2.o.
200063a0:	c3ecb3ab d4afcc2c dd33dd31 dd74d532     ....,...1.3.2.t.
200063b0:	dd73dd73 d5b4d533 cd74d574 d5b5cd74     s.s.3...t.t.t...
200063c0:	bb2babee e5b4ccaf dd35dcb2 0000dfdf     ..+.......5.....
	...
20006400:	975e0000 cdb5effe b2e9abad 89e568a1     ..^..........h..
20006410:	79e5ab2a 58a16122 58a158e2 50a158a1     *..y"a.X.X.X.X.P
20006420:	abac8a68 a3edb42e 7aea93ac 6a687aea     h..........z.zhj
20006430:	7aea7aa9 8b2a832a 932b9b6c 9bac9b6c     .z.z*.*.l.+.l...
20006440:	a3aba3ac abecbc2e b3edb3ec c42ebc2d     ............-...
20006450:	c46eccaf bc2cc42d cc6ec42d d4afd4ae     ..n.-.,.-.n.....
20006460:	e4f0e4f0 dcf0dcef d4afe531 c46ed4f0     ........1.....n.
20006470:	79e48a66 71a58a27 40a15923 51a540e2     f..y'..q#Y.@.@.Q
20006480:	8b2a82ea 9b6c8b2a b470a3ed bc70ccf2     ..*.*.l...p...p.
20006490:	b42fbc70 9b6dabee d4f1c4b1 dd32dd73     p./...m.....s.2.
200064a0:	bbecd4af cc6fc42d d4f1dcf1 d533d532     ....-.o.....2.3.
200064b0:	d573ddb4 d574dd74 c533d5b4 cd74d5f5     ..s.t.t...3...t.
200064c0:	cbeeb470 e573d531 dd75e534 0000e7df     p...1.s.4.u.....
	...
20006504:	f77cefdf 9aeab470 81a468e2 8226a2a8     ..|.p....h....&.
20006514:	58e16122 58a258a1 79e650a1 9b2aa32a     "a.X.X.X.P.y*.*.
20006524:	a3ad9b2a 7aea936c 7aea6aa9 7aa972a8     *...l..z.j.z.r.z
20006534:	8b2a7aea 82ea832a 9bac8b2a a3ac9b6b     .z*.*...*...k...
20006544:	b42dbc2d abecabac c46fb3ed cc6fc46f     -.-.......o.o.o.
20006554:	ccaecc6e cc6dc42d d4afcc2d dcefdcaf     n...-.m.-.......
20006564:	d4aed4ae d4f0d4ae e572dcf0 b3abc42d     ..........r.-...
20006574:	ababb3ac 932a932a 936b82e9 9b6a9bab     ....*.*...k...j.
20006584:	dd32a3ab d532d532 b42ebc70 abeeb46f     ..2.2.2.p...o...
20006594:	ac70ac2f ccb1bc70 dd32ccb0 d4f1dd32     /.p.p.....2.2...
200065a4:	c46fc46f d4f1c46f dd73d4f1 d573cd32     o.o.o.....s.2.s.
200065b4:	d5b4d574 cdb4cd73 c533d5b5 dcf2bc71     t...s.....3.q...
200065c4:	dd73dd73 e5f7d4f2 0000d7df 00000000     s.s.............
	...
20006604:	ffdf0000 8b2cde78 796379e6 92a89aa8     ....x.,..ycy....
20006614:	58a171a4 58a158e2 ab6b6923 8226ab6b     .q.X.X.X#ik.k.&.
20006624:	a36b8a67 82eba3ee 7aea7aea 72a87aea     g.k......z.z.z.r
20006634:	7ae97b2a 7ae9832a 936b8b6b 9b6b9bac     *{.z*..zk.k...k.
20006644:	b42db3ec b42db42d bc2ebc6e c46ec46f     ..-.-.-.n...o.n.
20006654:	ccaeccaf ccaed4af cc6ed4ae cc6dd4af     ..........n...m.
20006664:	cc6dd46e ccaecc6e dcf0e531 c46ed4b0     n.m.n...1.....n.
20006674:	b42dc46e b42eb42e 9b6babed a36ab42d     n.-.......k.-.j.
20006684:	c42eb3ec bc2eccb0 abedabed a3eeb46f     ............o...
20006694:	9bada3ee b42fac2f bc70bc6f d4f2d4f2     ...././.o.p.....
200066a4:	ccf1e574 cc6fccb0 d4f1d4b0 cd73dd73     t.....o.....s.s.
200066b4:	d573d574 d5b4d5b4 bd32ddf6 e574c4f2     t.s.......2...t.
200066c4:	ccb1ddb5 de38d533 0000d7df 00000000     ....3.8.........
	...
20006704:	ffdf0000 b534f7df 79a482a9 a32a81e5     ......4....y..*.
20006714:	60e28a27 58a15060 b3ac6964 79e4a329     '..``P.Xdi..)..y
20006724:	92e97163 8b2ca3ad 7b2a72a9 72e972e9     cq....,..r*{.r.r
20006734:	72e96aa8 832a7ae9 936b832a 932a936b     .j.r.z*.*.k.k.*.
20006744:	b3ec9329 b42dabec bc6eb42d c46fbc2e     ).....-.-.n...o.
20006754:	ccaec46e ccaec46d ccaecc6d cc6dcc6d     n...m...m...m.m.
20006764:	cc6ec42d d4afccae c42ec46e c46fc42e     -.n.....n.....o.
20006774:	a3acb42d abed9bab 932a9b6b abab9b6b     -.......k.*.k...
20006784:	b3ecabab 9b2ba36b 9bac8b29 ac2ea3ed     ....k.+.).......
20006794:	9beea3ee abee9bad b42fa3ee b470bc70     ........../.p.p.
200067a4:	dd73c4b1 ccb0ccf1 ccb0c46e d533d4f2     ..s.....n.....3.
200067b4:	d5b4cd33 d5b5d5b4 bcf2cdb5 f637cd74     3...........t.7.
200067c4:	d4f2d574 de78dd34 0000cfdf 00000000     t...4.x.........
	...
20006808:	debaffff 79e5a3ee 926871a4 71a4a32a     .......y.qh.*..q
20006818:	506058a1 822660e2 81e592a7 79e67163     .X`P.`&.....cq.y
20006828:	8b6ca3ad 72a97aea 72a97aea 72a872e9     ..l..z.r.z.r.r.r
20006838:	832a7b2a 8b2a8b6b 932a936a a36b9b6a     *{*.k.*.j.*.j.k.
20006848:	b42dac2c bc2db42d bc2ec4af c46dc46e     ,.-.-.-.....n.m.
20006858:	bc2cc46d c46dc46d cc2dcc6e cc6ecc6e     m.,.m.m.n.-.n.n.
20006868:	d4afdcef bbedcc6e bc2ec42e 9b6babed     ....n.........k.
20006878:	9b6b9b6b 936ba3ac 92e98ae9 b3edab6b     k.k...k.....k...
20006888:	8aeaa36c 936a82e8 ac2fb46f abefac2f     l.....j.o././...
20006898:	abeeac2f abeeabee a3eeb470 bcb1ac2f     /.......p.../...
200068a8:	ccf0c531 cc6fd4b0 d533d4b1 ddb4ddb5     1.....o...3.....
200068b8:	d5b4ddb5 bcf2d5b5 e5b5d5b5 e575e5b5     ..............u.
200068c8:	d678e5b6 0000dfdf 00000000 00000000     ..x.............
	...
20006908:	f7be0000 8aa9bd33 79a579a5 92a89a68     ....3....y.yh...
20006918:	71e669a5 8a6879e7 81e58266 8aa871a4     .i.q.yh.f....q..
20006928:	936ca3ac 72a97aea 7aea72a9 72e96aa8     ..l..z.r.r.z.j.r
20006938:	7aea72a9 832a7aea 9bac8b2a a3ac9b6b     .r.z.z*.*...k...
20006948:	b42da3ec bc2eb42d bc2db42d c46ebc2d     ..-.-...-.-.-.n.
20006958:	b3ecb3ec c42cb3eb c42dc42c d4afcc6d     ......,.,.-.m...
20006968:	bc2ec46e abedbc2e abeda36c 9baca3ac     n.......l.......
20006978:	9b6b9b6a a3ab9b6b 92e99329 ab6ca32a     j.k.k...)...*.l.
20006988:	a32ba2eb 92e992e9 bc2fb3ee b42fabee     ..+......./.../.
20006998:	b430bc30 abefabef a3ef9bae ac2fabef     0.0.........../.
200069a8:	c4f1ac6f ccb0ccf1 d4f1c4b0 d5b4cd32     o...........2...
200069b8:	c573cd73 bcf2cd74 ddb4cd33 edf6e574     s.s.t...3...t...
200069c8:	d69addb6 0000f7df 00000000 00000000     ................
	...
20006a08:	ef9f0000 9beede79 81a58aa9 926789a5     ....y.........g.
20006a18:	92ea8aa8 ab6cab6d 82669b2a 93298aa7     ....m.l.*.f...).
20006a28:	932aa3ab 7aea8b2b 7aea7aea 7aea7aea     ..*.+..z.z.z.z.z
20006a38:	72e97aea 82ea7aea 936b8b2b abeea3ed     .z.r.z..+.k.....
20006a48:	b42db42e b42dbc2e bc2ebc2e bc2dc46e     ..-...-.....n.-.
20006a58:	b3ecbc2d bbecbbec bbecbbec c46eccae     -.............n.
20006a68:	abedb42d 9bacb42e a3ac9b6b 9b6ba3ac     -.......k.....k.
20006a78:	9b6babed a36aa36b 9ae9a36a c470bbed     ..k.k.j.j.....p.
20006a88:	bc2fb3ee 9b6babed c4b0ccf1 ac2eac2e     ../...k.........
20006a98:	b430bc70 9beeac2f a3eea3ee a3eeb430     p.0./.......0...
20006aa8:	b4b0a42f c4f0cd32 c4afc4f0 cd73ccf2     /...2.........s.
20006ab8:	c532cd73 bcf2cd74 edf4d5b5 dd75edb5     s.2.t.........u.
20006ac8:	efdfde38 00000000 00000000 00000000     8...............
	...
20006b0c:	bd33ffdf 92688aea 79648164 932a8226     ..3...h.d.dy&.*.
20006b1c:	b3ada36c 92a892e9 92e88aa7 9b6b9329     l...........).k.
20006b2c:	7aea82ea 832a7aea 7b2a7aea 7b2a72e9     ...z.z*..z*{.r*{
20006b3c:	832b7aea 936b832a a3ad9b6c ac2da3ec     .z+.*.k.l.....-.
20006b4c:	b42db42d b42db3ed bc2db42d bc2db3ec     -.-...-.-.-...-.
20006b5c:	bbecb3ec b3ecb3ab b3ecb42c a3ababab     ........,.......
20006b6c:	9b6b9b6b 9b6b936b 9b6b9329 9b6aa3ab     k.k.k.k.).k...j.
20006b7c:	a36a9b29 9b6aa36a d5b3bc6e c572c572     ).j.j.j.n...r.r.
20006b8c:	c4f0bcaf d5b3ddb4 ac6fb4b0 b470b470     ..........o.p.p.
20006b9c:	a42e9bee a42fa42f ac70ac6f ac2f9bee     ...././.o.p.../.
20006bac:	c4f1bcb1 bc6fbc6f c4f2c4f1 cd74bcf2     ....o.o.......t.
20006bbc:	b4b1bcf2 f636d5b5 dd75edb5 0000d597     ......6...u.....
	...
20006c0c:	defae7bd 92a9a42f 89e6a2a9 8ae97a26     ..../.......&z..
20006c1c:	ab6bb3ad 79e58a67 8aa78a67 932a8aa7     ..k.g..yg.....*.
20006c2c:	7aa98b6b 832a8b6c 7b2a832b 7b2a7b2a     k..zl.*.+.*{*{*{
20006c3c:	832a832b 8b2a8b2a 936b936b 9bab9bac     +.*.*.*.k.k.....
20006c4c:	abedabed b42db42d bc2db42d b3ecbc2d     ....-.-.-.-.-...
20006c5c:	b3ecb3ec b3ecbc2c a36aabab a3aba3ab     ....,.....j.....
20006c6c:	9bab9bab 932aa3ac 93299329 92e99b29     ......*.).).)...
20006c7c:	a3aba3ab b42cb42c d531ccaf e5b3e5b3     ....,.,...1.....
20006c8c:	edb4e5b4 d532edb5 cd32d533 b42fccf2     ......2.3.2.../.
20006c9c:	a42fa42f 9c2ea42f ac70a46f a42fac30     /././...o.p.0./.
20006cac:	b46fbcb1 c4b1bcb0 bcb0c4f1 bcf2b4b0     ..o.............
20006cbc:	acb1c533 edf5d574 d575edb5 0000d638     3...t.....u.8...
	...
20006d0c:	f7ff6d54 8b6cc5b5 ab2b9aea a36b92e9     Tm....l...+...k.
20006d1c:	ab6cabac 8a268a67 8aa792a7 9b6b8267     ..l.g.&.....g.k.
20006d2c:	7aea832a 832b832a 7b2a7aea 832b832b     *..z*.+..z*{+.+.
20006d3c:	832a832b 8b2a82e9 936b8b2a 9b6b936b     +.*...*.*.k.k.k.
20006d4c:	abeca3ab b42dabec b3ecabec abababab     ......-.........
20006d5c:	b42cb3eb a3ababaa 9b6b9b2a a3ac9b6b     ..,.....*.k.k...
20006d6c:	9baba3ab 8ae9932a 93298ae8 a32a9ae9     ....*.....)...*.
20006d7c:	b42ca36a cc6ec46e a2a8b32a c3acb2e9     j.,.n.n.*.......
20006d8c:	c3eecbee a2eaab2b c42fab2b bc70cc70     ....+...+./.p.p.
20006d9c:	ac2fb470 9bee8b6c a3eea42e b4b0a42f     p./.l......./...
20006dac:	ac6fb470 bcf1b4b0 bcf1bcb0 bcf1b4b0     p.o.............
20006dbc:	b4f1bcf2 ddb5c533 d575d534 0000de59     ....3...4.u.Y...
	...
20006e0c:	e75e0000 b533efbe a32c932c ab6cb3ee     ..^...3.,.,...l.
20006e1c:	a2eaa36b 9aa89aa9 92a7a329 9b6b9ae9     k.......).....k.
20006e2c:	832a936c 832b832b 832b836b 7b2a7b2b     l.*.+.+.k.+.+{*{
20006e3c:	8b6b8b6b 8b2a8b2b 8b2a936b 9bab936b     k.k.+.*.k.*.k...
20006e4c:	a3aca3ec abecabec b3ecb3ec ababb3ec     ................
20006e5c:	a3aaa3aa 93299ba9 9bab9b6b 932a9b6b     ......).k...k.*.
20006e6c:	8ae89b6b 82a882e8 92e88ae8 a329a36a     k...........j.).
20006e7c:	ab6bab6a 9227a32a 78e291a5 812378e2     j.k.*.'....x.x#.
20006e8c:	89a699e7 81658965 89a689a6 a32c9a69     ....e.e.....i.,.
20006e9c:	b42fbc2f 936ca3ad 9baca3ad b46fac2e     /./...l.......o.
20006eac:	ac6fbcb0 bcb0bcb0 bcb0bcb1 b4b1b4b1     ..o.............
20006ebc:	bcf1bd32 cd33c533 d5b6c4f3 0000ffdf     2...3.3.........
	...
20006f10:	ef7de7df 9b2cac51 ab6ca36d 926892a9     ..}.Q.,.m.l...h.
20006f20:	9ae992a8 92a892a7 932a92e9 8b2b8b2b     ..........*.+.+.
20006f30:	832b7b2a 836b7b2a 832b832b 936c7b2a     *{+.*{k.+.+.*{l.
20006f40:	8b2b8b6b 8b2a8b2a 8b2a8b2a a3ec936a     k.+.*.*.*.*.j...
20006f50:	a3ab9baa bbeda3ab b3ecbc2d a3aaa3aa     ........-.......
20006f60:	936a9b69 932a932a a3ab932a 82a8932a     i.j.*.*.*...*...
20006f70:	7aa77266 9b2982a7 9ae8a32a 79648225     fr.z..).*...%.dy
20006f80:	606160a2 68e270a2 68a15860 91e68164     .`a`.p.h`X.hd...
20006f90:	70a27924 68a26062 692460a2 8aa979a6     $y.pb`.h.`$i.y..
20006fa0:	82a98aa9 936b8aea a42d93ab b4afb4af     ......k...-.....
20006fb0:	bcf1b4af b4b0bcb0 b4b0ac6f b4b1b4f1     ........o.......
20006fc0:	b4b1ac70 eefbc534 0000ffdf 00000000     p...4...........
	...
20007010:	ffdf0000 ac92ffdf 9b2a9bad 9a679266     ..........*.f.g.
20007020:	9268a2e9 92a792a8 82a792e8 8b2a8b29     ..h.........).*.
20007030:	836c836c 832b836c 832b8b2b 8b2b8b6c     l.l.l.+.+.+.l.+.
20007040:	8b6b936b 82e98b2b 8b2a8b2a a3ab9b6a     k.k.+...*.*.j...
20007050:	9b69a3ab abaaa3aa b42cbc2d a3aab42c     ..i.....-.,.,...
20007060:	8b299b69 8b298b2a 932a9b6b 7a679329     i.).*.).k.*.).gz
20007070:	596369e5 71a569e5 58a17164 50205861     .icY.i.qdq.XaX P
20007080:	68a260a2 68a268e3 606168a3 812478a2     .`.h.h.h.ha`.x$.
20007090:	99e78965 9a28a228 79659a28 58e260e3     e...(.(.(.ey.`.X
200070a0:	50e35924 6a255964 93ab8328 b46fb4af     $Y.PdY%j(.....o.
200070b0:	c4f2bcf1 ac6ec4b1 b4b1ac70 acb1bcf2     ......n.p.......
200070c0:	b575a4f1 ffdff77d 00000000 00000000     ..u.}...........
	...
20007118:	8b2abe5a 9aa88226 8a279267 8a668226     Z.*.&...g.'.&.f.
20007128:	71e48225 936b71e5 836c836b 8b6c832b     %..q.qk.k.l.+.l.
20007138:	832a832b 936c8b6b 8b2a832a 8b2a832a     +.*.k.l.*.*.*.*.
20007148:	9b6b8b2a 9b6a9b6b a3aa9b6a ababa3aa     *.k.k.j.j.......
20007158:	b42cabec abebabec 8b299baa 82a782a8     ..,.......).....
20007168:	82a77a67 616371e5 40a148e1 48a14060     gz...qca.H.@`@.H
20007178:	60e34861 92287164 bb2ca2aa c36db32c     aH.`dq(...,.,.m.
20007188:	b2ebbb2c c32cbaeb c36dbaeb c36ec3ae     ,.....,...m...n.
20007198:	b36db32d b3aeab6d 932aabed 7a666a26     -.m.m.....*.&jfz
200071a8:	9bec82e8 bcf1ac6e c533c532 ac6fbc70     ....n...2.3.p.o.
200071b8:	bcf2ac70 b4f2b471 ffdfce17 00000000     p...q...........
	...
20007218:	ffdf0000 7a279c2f 71a571a5 79e579e5     ..../.'z.q.q.y.y
20007228:	692279e5 932b69a5 7b2a936c 8b6c7b2b     .y"i.i+.l.*{+{l.
20007238:	7aea8b2b 8b2b832b 82e98b6b 8b2a8b6b     +..z+.+.k...k.*.
20007248:	932a936b 8ae8932a 9baa9329 abababeb     k.*.*...).......
20007258:	b42db42d a3ebbc6e 93699baa 7a2692e9     -.-.n.....i...&z
20007268:	71e57225 592261a3 722761a5 92e982a8     %r.q.a"Y.a'r....
20007278:	b3adab2b cc2ec3ee d470d470 dcb1dcb1     +.......p.p.....
20007288:	d470dcb1 ecf3ecf2 d470e4b2 cc70d4b1     ..p.......p...p.
20007298:	d4b2cc71 dd33dcf3 d572dd73 ac2dccf1     q.....3.s.r...-.
200072a8:	a3ed9bab bcf1b4af bcb1c532 b4b0c4f1     ........2.......
200072b8:	ac70acb0 acb1b471 0000ce78 00000000     ..p.q...x.......
	...
2000731c:	ac70ef9e 51236a26 616450e2 58e26123     ..p.&j#Q.Pda#a.X
2000732c:	82aa5923 832a8b2c 8b6c7aea 832b832b     #Y..,.*..zl.+.+.
2000733c:	8b6b832b 832a832a 8b6b832a 936b8b2a     +.k.*.*.*.k.*.k.
2000734c:	8b29932a a3ab936a ababa3aa b42da3ab     *.).j.........-.
2000735c:	a3ebb42d 9b6a9369 8aa78ae8 8aa78266     -...i.j.....f...
2000736c:	a36b8aa7 c4b0b42d ccb0c46f dcf1d4f1     ..k.-...o.......
2000737c:	dcf1d4b0 dcf1dcf1 d4afd4b0 c42ecc6e     ............n...
2000738c:	c42fb3ac c46fcc70 ccb1c470 d533c4b1     ../.p.o.p.....3.
2000739c:	d533d4f2 cd32cd32 cd31cd32 ac2eac2e     ..3.2.2.2.1.....
200073ac:	b46fa42d bcf1bcf1 b4b1b4b0 ac70a46f     -.o.........o.p.
200073bc:	acb2ac71 0000bdd6 00000000 00000000     q...............
	...
2000741c:	ff9ef7df 832cc574 61e66a28 59a569e7     ....t.,.(j.a.i.Y
2000742c:	7aaa59a6 832b9bad 7aea8b6b 832b832b     .Y.z..+.k..z+.+.
2000743c:	7b2a8b6c 832a8b6b 832a8b6b 8b6b8b2b     l.*{k.*.k.*.+.k.
2000744c:	8b29936b 9b6a936a abeca3eb ac2dabec     k.).j.j.......-.
2000745c:	ac2dac2d ac2cac2d 9329abec 9b2a9329     -.-.-.,...).).*.
2000746c:	bc6eb3ec ccf0ccb0 ccb0ccf0 dcf1dd32     ..n.........2...
2000747c:	d4b0dcf1 bc2eccaf b3ecbc2e a36babec     ..............k.
2000748c:	9b2a9b2a abeda3ac bc2fbc6f bc70bc70     *.*.....o./.p.p.
2000749c:	bcb0c4b1 cd32ccf2 c4f1cd32 bcb0ccf1     ......2.2.......
200074ac:	ac6eb46f c4f1bcf1 b4b0c4f2 ac71a470     o.n.........p.q.
200074bc:	acb2bcf2 0000b5b5 00000000 00000000     ................
	...
2000751c:	be590000 ffdfffdf c5b6de9a 836dcdb6     ..Y...........m.
2000752c:	6aa951e7 8b6b8bad 832b832a 836c7aea     .Q.j..k.*.+..zl.
2000753c:	832b832b 83297aea 82ea832a 8b2a82e9     +.+..z).*.....*.
2000754c:	8b2a8b2a 936a82e8 abec9bab ac2da3ab     *.*...j.......-.
2000755c:	ac2dac2d 8b289bab 9b6a8b28 b42d9b6a     -.-...(.(.j.j.-.
2000756c:	c4afc46e c4b0c4af c4afbc6e c46fc46f     n.......n...o.o.
2000757c:	c46ebc2e b3edbc2d abacb3ed a36b9b6a     ..n.-.......j.k.
2000758c:	9b2a9b2a 9b2b92ea abee9b6c abeeabee     *.*...+.l.......
2000759c:	ac2eabee ccf1b42f c4f1cd31 bcb0bcb0     ..../...1.......
200075ac:	ac6eac6e b4afac6e b4b1bcb1 ac709c2f     n.n.n......./.p.
200075bc:	a471ac71 0000ad14 00000000 00000000     q.q.............
	...
20007624:	ffdf0000 9cf3ffff 5a2862aa 836b836c     .........b(Zl.k.
20007634:	832b7b2a 836b8b6c 836b836b 72e87b2a     *{+.l.k.k.k.*{.r
20007644:	82ea832a 7ae97ae9 832982e9 82e88b29     *....z.z..).)...
20007654:	936a9b6a a3ec9bab a3ebb46e 6a258b29     j.j.....n...).%j
20007664:	93697aa6 c4aeb42d c4aeccef bc6ec4af     .zi.-.........n.
20007674:	abecbc2d 9b6ab3ec ab6ca36b a36bb3ad     -.....j.k.l...k.
20007684:	9b2aa36b 92e99b2a 92a99aea 92a992e9     k.*.*...........
20007694:	a36d9b2b abeeabee abeeabee c4b0bc70     +.m.........p...
200076a4:	c4f1ccf2 bcb0c4f1 ac2eb4b0 ac6eac6e     ............n.n.
200076b4:	ac70bcb1 a470a4b1 a4b1ac71 0000b5b5     ..p...p.q.......
	...
20007728:	bdf6efdf 72a98bad 8bad7aaa 836b7b6b     .......r.z..k{k.
20007738:	7b2a832a 832b7aea 7ae972a9 82ea7ae9     *.*{.z+..r.z.z..
20007748:	82e982ea 82e97aa8 82e982e9 8b298b29     .....z......).).
20007758:	a3ab8b29 a3aba3ab 8ae89329 a3ab82e8     ).......).......
20007768:	bc6db46d c46ebc2d c46ebc6e a36bb3ed     m.m.-.n.n.n...k.
20007778:	9b299b29 9ae992a8 9ae99b2a 8aa88aa8     ).).....*.......
20007788:	8a688267 8aa98a68 8aa98a68 92eb92ea     g.h.h...h.......
20007798:	abee9b2b b42fabed bcb0bcb0 bcb0b46f     +...../.....o...
200077a8:	b470bc6f a42eac2f b46fac2e a46fb46f     o.p./.....o.o.o.
200077b8:	a470a470 a471a470 0000bdd5 00000000     p.p.p.q.........
	...
20007828:	ce79ffff 936ca470 8b6d8b2c 7b6b83ac     ..y.p.l.,.m...k{
20007838:	832b832a 7aea832b 7aea7aea 82ea7b29     *.+.+..z.z.z){..
20007848:	82e9932b 82e982e9 82e882e8 936a936a     +...........j.j.
20007858:	93299b6a 9b699329 8b299b69 a3ec936a     j.).).i.i.).j...
20007868:	abecb46e bc2db42d bc2ebc6e ababbc2e     n...-.-.n.......
20007878:	9ae9a32a 926792e8 822692a8 8a688a67     *.....g...&.g.h.
20007888:	79e68268 8a688a68 8a6892a9 8aa992e9     h..yh.h...h.....
20007898:	a3ac92ea b42fb42e b46fbcb0 ac6ebcb0     ....../...o...n.
200078a8:	b46fb46f 9beeac6f b46eac2e a46fac6f     o.o.o.....n.o.o.
200078b8:	9c2f9c6f 9c70acb1 0000c637 00000000     o./...p.7.......
	...
20007928:	e75c0000 9bee9c70 93ad936d 7b2a7b6b     ..\.p...m...k{*{
20007938:	832b7ae9 832b832b 832a7aea 7ae97ae9     .z+.+.+..z*..z.z
20007948:	7aa97ae9 83297ae9 7aa872a7 8b297ae8     .z.z.z)..r.z.z).
20007958:	93699329 a3aa9329 82e88b28 a3ec936a     ).i.)...(...j...
20007968:	abeca3ab b3eca3ab b42db3ed abacb3ec     ..........-.....
20007978:	9b299b2a 926892a8 79e681e6 822779e6     *.)...h....y.y'.
20007988:	82278227 8a687a26 82688aa8 92e98aa8     '.'.&zh...h.....
20007998:	9b2a8aa8 b42eabac b46fb42e b46fb4af     ..*.......o...o.
200079a8:	a3eea42d ac2f9bee ac2ea3ee a46fac2e     -...../.......o.
200079b8:	9c2f93ed 9c309c2f 0000b595 00000000     .././.0.........
	...
20007a28:	ffdf0000 9beeacf2 93ada3ee 72ea7b2a     ............*{.r
20007a38:	7aea7b2a 836b836b 7ae97b2a 7aa9832a     *{.zk.k.*{.z*..z
20007a48:	7aa97aa9 7aa87ae8 72a782e9 7aa772a7     .z.z.z.z...r.r.z
20007a58:	8b2982e8 8b289baa 82e88ae8 93ab93ab     ..)...(.........
20007a68:	a3ab9bab abecabec b42db42d a36babac     ........-.-...k.
20007a78:	92e8a36a 92689b29 79e58226 7a277a26     j...).h.&..y&z'z
20007a88:	82688a68 82678267 82a892e9 8ae98ae9     h.h.g.g.........
20007a98:	a36b932a abedabac ac2db42e ac2eac2e     *.k.......-.....
20007aa8:	93adac2e 9c2e93ed 9bedac6f 9c2eac2f     ........o.../...
20007ab8:	9beea4b0 942f9bef 0000ad74 00000000     ....../.t.......
	...
20007b28:	ffdf0000 93eebd74 9bad9bad 72e972e9     ....t........r.r
20007b38:	832b832b 836b72e9 832b832b 7ae97ae9     +.+..rk.+.+..z.z
20007b48:	7ae97aa9 7ae86a67 72677aa8 72666a66     .z.zgj.z.zgrfjfr
20007b58:	82e87aa7 82e782e8 82e97aa6 936b8329     .z.......z..).k.
20007b68:	932a8b29 9b6b932a b3edabec 9b6a9b6a     ).*.*.k.....j.j.
20007b78:	9b299b2a 8a678aa8 7a268267 826769a5     *.)...g.g.&z.ig.
20007b88:	82688268 7a677a27 82e97a67 a3ed936b     h.h.'zgzgz..k...
20007b98:	abeda3ed b42eabed ac2eac2d 9bec9bec     ........-.......
20007ba8:	9c2e9bed 9bee9c2e a42ea42f 9beda3ed     ......../.......
20007bb8:	9c2f9c2e 942f9bef 0000ad53 00000000     ../.../.S.......
	...
20007c28:	ffdf0000 9beece37 9beda3ee 72e98bac     ....7..........r
20007c38:	832b832b 7aea832b 832a832b 72e97b2a     +.+.+..z+.*.*{.r
20007c48:	72a87ae9 6a6672a8 6a666a67 6a6672a7     .z.r.rfjgjfj.rfj
20007c58:	7ae87ae7 82e77ae7 7aa88b28 83297ae8     .z.z.z..(..z.z).
20007c68:	8b29936a 9329932a a3ab9bab 9b2aa3ab     j.).*.).......*.
20007c78:	9b2aa36a 92e992e9 9b6ba3ab 932a9b6b     j.*.......k.k.*.
20007c88:	936b9b6b 8b2a8b2b a42e9bad bcf1c4f2     k.k.+.*.........
20007c98:	b46fbcb0 b46fbcb0 a42eb46f 93ac9bed     ..o...o.o.......
20007ca8:	9c2fa42e 942ea470 ac6fa42f 93edac6f     ../.p.../.o.o...
20007cb8:	9bee8bed 93ef9c2f 0000b5b5 00000000     ..../...........
	...
20007d2c:	a470ce18 9bac9bad 7b2b93ac 7b2b72ea     ..p.......+{.r+{
20007d3c:	7b2a7aea 72e97ae9 72a872a9 6a676226     .z*{.z.r.r.r&bgj
20007d4c:	7aa872a7 72677267 72a67266 72a66a66     .r.zgrgrfr.rfj.r
20007d5c:	832872a6 7ae882e7 82e97ae8 8ae97ae8     .r(....z.z...z..
20007d6c:	8ae9932a 93297aa7 a3ac9bab a36ba3ab     *....z).......k.
20007d7c:	b42d9b6a bc6fbc6e bcb0bc6f cd32bc70     j.-.n.o.o...p.2.
20007d8c:	b470ac2f b4b1bcb1 bd32c532 c4b1b4b1     /.p.....2.2.....
20007d9c:	b470bcb0 a42ea42e 9bee93ed 9c2e9bee     ..p.............
20007dac:	9c2f93ee 9c2e9c2e 9c2eac6f 93ee8bac     ../.....o.......
20007dbc:	9c7093ee 0000bdd6 00000000 00000000     ..p.............
	...
20007e2c:	acb2defa 9b6b9bad 836b9bac 72ea7b6b     ......k...k.k{.r
20007e3c:	836b7b2a 72e9836b 72a97aea 6a676a67     *{k.k..r.z.rgjgj
20007e4c:	726772a8 726772a8 7aa77ae8 7aa67aa7     .rgr.rgr.z.z.z.z
20007e5c:	82e87aa7 8b2a8b29 82e8832a 8b298b6a     .z..).*.*...j.).
20007e6c:	83298b6a 936a8b29 a3eca3ec abecabec     j.).).j.........
20007e7c:	ac2dabed b42ebc6e c4b0bc6f bcb1bc70     ..-.n...o...p...
20007e8c:	cd33bcb1 bcf1c532 b4b0bcf1 c4f1cd32     ..3.2.......2...
20007e9c:	bcb0c4f1 9bedb470 a42e9bee 93ada42e     ....p...........
20007eac:	9c2ea42f 93eda46f 93ad9c2f 9c2f93ed     /...o.../...../.
20007ebc:	9cb09c2f 0000ef1b 00000000 00000000     /...............
	...
20007f2c:	b533ffdf 9bac936c 836c936b 7b2a732b     ..3.l...k.l.+s*{
20007f3c:	7b2a72e9 72ea7b2a 72a972a9 62266226     .r*{*{.r.r.r&b&b
20007f4c:	72676226 7aa872a7 72a67266 82e87266     &bgr.r.zfr.rfr..
20007f5c:	7aa77ae7 8b2a82e8 82e97aa8 8b6a936b     .z.z..*..z..k.j.
20007f6c:	936b8b2a 9bab93ab a3ec9bab ac2da3ec     *.k...........-.
20007f7c:	ac2dabec bc6eb42d c4b0b42e bcb1bcb1     ..-.-.n.........
20007f8c:	c4f2c4b1 d573c4f1 bcf1c532 bc6fbcb1     ......s.2.....o.
20007f9c:	b46fa3ed a42fac6f 93ad93ed 9bee9bed     ..o.o./.........
20007fac:	93ee9bee 93ed93ed 836b8bac 93ee8bac     ..........k.....
20007fbc:	a4d18bad 00000000 00000000 00000000     ................
	...
2000802c:	b574ffdf 9bac93ee 8b6b9bac 7aea836b     ..t.......k.k..z
2000803c:	7aea7aea 72e9832b 6aa872e9 62266a68     .z.z+..r.r.jhj&b
2000804c:	6a266226 72677267 72a67aa7 7aa77ae8     &b&jgrgr.z.r.z.z
2000805c:	7aa78328 83297ae8 7aa87ae8 83298b6a     (..z.z)..z.zj.).
2000806c:	82e98329 9bab936a a3ed9bec abedbcaf     )...j...........
2000807c:	ac2dabed b42ebc6e b46fb42e c532cd32     ..-.n.....o.2.2.
2000808c:	ac2fbcb1 c4f2c4f2 c4f1cd33 bcb0bcb0     ../.....3.......
2000809c:	9badac2e ac2fac2f 93ada42f ac70ac70     ..../././...p.p.
200080ac:	93ed93ed 8bad9c2e 8b6c8bac 93ad9c2e     ..........l.....
200080bc:	d6588bae 00000000 00000000 00000000     ..X.............
	...
2000812c:	c5f6ffdf 9bac9bee 936b936b 7b2a7aea     ........k.k..z*{
2000813c:	7b2a7aea 72e972e9 72a96aa8 62676aa8     .z*{.r.r.j.r.jgb
2000814c:	72a76226 72676a66 7ae872a7 82e87aa8     &b.rfjgr.r.z.z..
2000815c:	7ae882e8 83297ae8 832a7ae8 832a8b6a     ...z.z)..z*.j.*.
2000816c:	8b6a832a 8b2a8329 936a8b2a abeda3ed     *.j.).*.*.j.....
2000817c:	bc6fabed b42ebc6f b46fabed cd32bcb0     ..o.o.....o...2.
2000818c:	c4f1c4f2 c4f1bc70 bcb0bcb0 c4b0b42f     ....p......./...
2000819c:	9bacbc70 ac2f9bed 93ada42e b4b1a42f     p...../...../...
200081ac:	93ed93ee 836c8bac 8bac7b6b 93ad93ad     ......l.k{......
200081bc:	ffdf8b8e 00000000 00000000 00000000     ................
	...
2000822c:	d69a0000 93aca470 932b9bac 832b8b2b     ....p.....+.+.+.
2000823c:	72e97b2a 72a97b2a 6aa872a9 62676aa8     *{.r*{.r.r.j.jgb
2000824c:	62266267 6a676a66 72a77aa8 72a77267     gb&bfjgj.z.rgr.r
2000825c:	72a87ae8 7ae97ae8 832a832a 8b6a832a     .z.r.z.z*.*.*.j.
2000826c:	8b6b93ac 7ae9832a 8b2a8329 a3eda3ed     ..k.*..z).*.....
2000827c:	b42eabed bc2ebc6f bc6fbc2e c4f1c4f1     ....o.....o.....
2000828c:	bcb0c4f1 c4f1b46f c4b1d573 bc6fc4b0     ....o...s.....o.
2000829c:	a3eebc6f ac70ac6f 93adac70 9c2e93ad     o...o.p.p.......
200082ac:	93ed9c2e 7b6b83ac 836b8bad 8bad836c     ......k{..k.l...
200082bc:	0000acb1 00000000 00000000 00000000     ................
	...
20008330:	93cca490 932a9b8b 8b6c8aea 72a972ea     ......*...l..r.r
20008340:	72e972a9 72a96a68 6aa86267 5a266267     .r.rhj.rgb.jgb&Z
20008350:	62666225 6a666226 6a666226 7ae86226     %bfb&bfj&bfj&b.z
20008360:	7ae87aa8 832972a7 832a8329 8b6b8329     .z.z.r).).*.).k.
20008370:	8b6a832a a3ed8b6b a3edac2e abed932b     *.j.k.......+...
20008380:	bc2fb3ed bc2ebc2f c4b0b42e bcf0b4af     .././...........
20008390:	c4f1c4f1 c4b0c4f1 b42fbc6f ac2fac2e     ........o./.../.
200083a0:	ac6fa42e 8baca42f 8bac832b 8bad8bac     ..o./...+.......
200083b0:	83ac836c 836b836c 93ee836c 0000ac91     l...l.k.l.......
	...
20008434:	a30a0000 832b936b 6aa9832b 72ea72a9     ....k.+.+..j.r.r
20008444:	6aa972a9 626772e9 5a266a68 62266266     .r.j.rgbhj&Zfb&b
20008454:	62266266 6a676226 72a872a7 6a6772a8     fb&b&bgj.r.r.rgj
20008464:	72a86aa7 7ae97ae9 93ab8bab 8b6b93ac     .j.r.z.z......k.
20008474:	8b2a8b2a a3ed9bac a3aca3ed ab6ca36c     *.*.........l.l.
20008484:	b3edb3ed bc6fbc6f b46fb46f bc6fc4b0     ....o.o.o.o...o.
20008494:	abadbc6f b42fa3ad 9badac2e a42fa42e     o...../......./.
200084a4:	836c9c2f 836c8bac 7b6b8bac 836b8bac     /.l...l...k{..k.
200084b4:	7b6b836c 93ed836c 0000e618 00000000     l.k{l...........
	...
20008538:	8b2b8b4b 7b2a832b 6aa96aa8 6aa962a9     K.+.+.*{.j.j.b.j
20008548:	62676a68 5a265a26 5a265a26 62266226     hjgb&Z&Z&Z&Z&b&b
20008558:	622651a4 62266226 622659e5 72a86266     .Q&b&b&b.Y&bfb.r
20008568:	72a86a67 836b7b29 832a832a 936b82e9     gj.r){k.*.*...k.
20008578:	93ab936b 8b29936a b3ed932a a36bab6b     k...j.).*...k.k.
20008588:	abeda3ac b42eac2e 9b6b932b a36ca3ac     ........+.k...l.
20008598:	9bad9b2b 8b6c8b2b 9c2e93ed 836c8b6c     +...+.l.....l.l.
200085a8:	8bad836c 7b2a836b 7b6a7b2a 7b6c732b     l...k.*{*{j{+sl{
200085b8:	a44f7bac 00000000 00000000 00000000     .{O.............
	...
20008638:	8b0b0000 832b832b 62687aea 62a86aa9     ....+.+..zhb.j.b
20008648:	62686268 62676268 51e56267 62265a26     hbhbhbgbgb.Q&Z&b
20008658:	59e559e6 51a46226 59e559e5 6aa86267     .Y.Y&b.Q.Y.Ygb.j
20008668:	62266a67 72e972a8 83297b29 8329832a     gj&b.r.r){).*.).
20008678:	7ae88329 8b298329 a3ab9bab a36aabab     )..z).).......j.
20008688:	9b6a9b6a a3ac9bac 932a9bac 9b2a9b6b     j.j.......*.k.*.
20008698:	936b932b 93ac8b2b 93edac2f 832b93ac     +.k.+.../.....+.
200086a8:	8bad836c 836b836c 7b2a836b 7b6b7b2b     l...l.k.k.*{+{k{
200086b8:	e69783ed 00000000 00000000 00000000     ................
	...
20008738:	830a0000 8b6b82ca 72e97aea 62686268     ......k..z.rhbhb
20008748:	62676267 62676227 51e55a26 51a54963     gbgb'bgb&Z.QcI.Q
20008758:	59e551e5 51a451a5 59e651e5 5a2651e5     .Q.Y.Q.Q.Q.Y.Q&Z
20008768:	62675a26 6aa86226 7ae972a7 72a772e8     &Zgb&b.j.r.z.r.r
20008778:	8b297ae8 8b297ae8 932982e8 9b6a92e8     .z)..z)...)...j.
20008788:	9b6aa3ab 932a8b2a 936b8b2a 9b6b932b     ..j.*.*.*.k.+.k.
20008798:	9b6b8ae9 9bac936b 9bed9bed 832b836b     ..k.k.......k.+.
200087a8:	836c836c 7b6b7b2a 836b7b2a 7b6c7b2b     l.l.*{k{*{k.+{l{
200087b8:	0000940e 00000000 00000000 00000000     ................
	...
2000883c:	82ea936b 72e9832b 62686aa8 5a266a68     k...+..r.jhbhj&Z
2000884c:	62676227 51e56226 496451a5 49a451a5     'bgb&b.Q.QdI.Q.I
2000885c:	49a451a5 51e651e5 49a551e6 52265a26     .Q.I.Q.Q.Q.I&Z&R
2000886c:	5a265a26 72a76a67 72a772a8 72a672a7     &Z&Zgj.r.r.r.r.r
2000887c:	72a672a7 82e882e8 82a88b29 7aa782e8     .r.r....)......z
2000888c:	7a688ae9 82e982e9 82e982e9 82e982e9     ..hz............
2000889c:	82e98b2a 8b6b8b6b 6aa9832a 72ea732b     *...k.k.*..j+s.r
200088ac:	732a732a 7b6b7b6b 8bac836c 0000bdf4     *s*sk{k{l.......
	...
2000893c:	830a0000 7ae97aea 6aa96aa8 62276a68     .....z.z.j.jhj'b
2000894c:	622659e6 5a265a26 49a551e5 49a449a4     .Y&b&Z&Z.Q.I.I.I
2000895c:	49a549a4 51e54964 49a449a5 49e549a4     .I.IdI.Q.I.I.I.I
2000896c:	51e649e5 626651e5 6aa75a26 59e56225     .I.Q.Qfb&Z.j%b.Y
2000897c:	622659e4 7a676a66 6a267a67 7aa861e5     .Y&bfjgzgz&j.a.z
2000898c:	72267a68 7a676a26 72677267 72676a26     hz&r&jgzgrgr&jgr
2000899c:	7ae97aa8 72e972a8 6aa96aa9 62a962a9     .z.z.r.r.j.j.b.b
200089ac:	732a6aa9 732a732a a40f832b 00000000     .j*s*s*s+.......
	...
20008a40:	72a98b6b 72a972e9 622772a9 5a266227     k..r.r.r.r'b'b&Z
20008a50:	51e55a26 49a559e6 416449a5 41a449a5     &Z.Q.Y.I.IdA.I.A
20008a60:	49a441a4 416449a5 416449a5 49a549e5     .A.I.IdA.IdA.I.I
20008a70:	49a451a5 59e651e5 59e559e5 59e559e5     .Q.I.Q.Y.Y.Y.Y.Y
20008a80:	59a56226 61e561e5 72677267 7a677a68     &b.Y.a.agrgrhzgz
20008a90:	61e56a26 61e56a26 622661e5 62276a68     &j.a&j.a.a&bhj'b
20008aa0:	5a275a27 5a685a67 6aaa62a9 732b732b     'Z'ZgZhZ.b.j+s+s
20008ab0:	732a732a cd138bac 00000000 00000000     *s*s............
	...
20008b40:	7b0a0000 6aa872a8 6aa86aa8 5a265a26     ...{.r.j.j.j&Z&Z
20008b50:	51e551e5 51e649a4 49a549a4 49a54964     .Q.Q.I.Q.I.IdI.I
20008b60:	49a54164 41644164 41644164 49a541a5     dA.IdAdAdAdA.A.I
20008b70:	41644164 49a54164 49a54164 41a44964     dAdAdA.IdA.IdI.A
20008b80:	41644163 51644964 622751a5 61e66226     cAdAdIdQ.Q'b&b.a
20008b90:	51e551a4 51a451a4 51e649a4 49e649a5     .Q.Q.Q.Q.I.Q.I.I
20008ba0:	522749a5 522749e6 72eb62a9 72ea6aea     .I'R.I'R.b.r.j.r
20008bb0:	7b2b6ae9 00009bce 00000000 00000000     .j+{............
	...
20008c44:	6aa8832b 6aa86ae9 5a266267 51e55a26     +..j.j.jgb&Z&Z.Q
20008c54:	59e659e5 51a559e6 51a551a6 496451a5     .Y.Y.Y.Q.Q.Q.QdI
20008c64:	39634164 416541a5 41a549a5 396441a5     dAc9.AeA.I.A.Ad9
20008c74:	39243964 30e33923 29233924 31233123     d9$9#9.0$9#)#1#1
20008c84:	39233964 41654124 416451e6 416441a4     d9#9$AeA.QdA.AdA
20008c94:	41a441a4 396449a5 41a541a5 49e649e6     .A.A.Id9.A.A.I.I
20008ca4:	5a685227 6aaa6aea 6aa96aea 938d7aea     'RhZ.j.j.j.j.z..
20008cb4:	0000fe98 00000000 00000000 00000000     ................
	...
20008d44:	72c97ac9 62476a88 62676247 5a265a06     .z.r.jGbGbgb.Z&Z
20008d54:	5a2651e5 51a551e5 51e651a5 49a549a5     .Q&Z.Q.Q.Q.Q.I.I
20008d64:	41644164 41654164 39643964 39643924     dAdAdAeAd9d9$9d9
20008d74:	39233924 312330e3 28e328e2 292320e2     $9#9.0#1.(.(. #)
20008d84:	30e328e3 392430e3 39643123 39643123     .(.0.0$9#1d9#1d9
20008d94:	39643964 41653123 41a541a5 49e641a5     d9d9#1eA.A.A.A.I
20008da4:	5a695227 62a95a69 72e96aa9 cd948b4b     'RiZiZ.b.j.rK...
	...
20008e50:	6a480000 5a266a67 51e559e6 51e559e6     ..Hjgj&Z.Y.Q.Y.Q
20008e60:	49a551e5 49a551e5 396449a5 31233964     .Q.I.Q.I.Id9d9#1
20008e70:	31233123 31233964 31233123 29243964     #1#1d9#1#1#1d9$)
20008e80:	29242924 29243164 39653165 396541a5     $)$)d1$)e1e9.Ae9
20008e90:	396539a5 39653965 39643965 49e641a5     .9e9e9e9e9d9.A.I
20008ea0:	5a285a68 5aa95a68 62a962aa 8b6b7aea     hZ(ZhZ.Z.b.b.zk.
20008eb0:	0000dd93 00000000 00000000 00000000     ................
	...
20008f54:	72c80000 62266206 51e551a5 51a551a5     ...r.b&b.Q.Q.Q.Q
20008f64:	49a549a5 41a549a5 39643923 31233123     .I.I.I.A#9d9#1#1
20008f74:	312328e3 28e228e2 292428e3 31642923     .(#1.(.(.($)#)d1
20008f84:	31653124 39a53164 39a53165 39653965     $1e1d1.9e1.9e9e9
20008f94:	31643124 41a53964 522749a6 5a685227     $1d1d9.A.I'R'RhZ
20008fa4:	62a95a68 72e962aa edd4830a 00000000     hZ.b.b.r........
	...
20009058:	6a870000 51c55a26 51c651e5 416449a5     ...j&Z.Q.Q.Q.IdA
20009068:	396449a5 39644164 31643964 29233964     .Id9dAd9d9d1d9#)
20009078:	28e22923 29233123 29233124 29233164     #).(#1#)$1#)d1#)
20009088:	31243164 31243124 39643965 396541a5     d1$1$1$1e9d9.Ae9
20009098:	522749e7 52275227 62a95a68 6aaa6aaa     .I'R'R'RhZ.b.j.j
200090a8:	7ae96aa9 0000b46e 00000000 00000000     .j.zn...........
	...
20009164:	5a075a06 41644985 39643964 31233123     .Z.Z.IdAd9d9#1#1
20009174:	31633123 292328e2 312328e2 31233123     #1c1.(#).(#1#1#1
20009184:	31643123 31632923 41653123 49e641a5     #1d1#)c1#1eA.A.I
20009194:	49e649e6 522749e6 5a685227 62a95a68     .I.I.I'R'RhZhZ.b
200091a4:	6aa962a9 a3cd6a67 00000000 00000000     .b.jgj..........
	...
20009268:	5a077b0b 394451c6 31233964 31233964     .{.Z.QD9d9#1d9#1
20009278:	31233964 39243964 31233964 39a439a4     d9#1d9$9d9#1.9.9
20009288:	39a541a5 49e641e6 49e65226 52265227     .A.9.A.I&R.I'R&R
20009298:	5a685a68 626862a9 6aa96aa9 62475a68     hZhZ.bhb.j.jhZGb
200092a8:	ddd4a40d 00000000 00000000 00000000     ................
	...
2000936c:	81c60000 41844985 39033944 41443903     .....I.AD9.9.9DA
2000937c:	39643944 41a53944 49e64144 51e749e6     D9d9D9.ADA.I.I.Q
2000938c:	49e649e6 522749e6 62685226 62a962a8     .I.I.I'R&Rhb.b.b
2000939c:	6aa85a68 59856a48 00003040 00000000     hZ.jHj.Y@0......
	...
20009484:	72890000 52275a68 52265227 5a675a68     ...rhZ'R'R&RhZgZ
20009494:	6aa862a8 62a86aa8 620672a9 00000000     .b.j.j.b.r.b....
	...
200094e8:	803b0044 80390049 8035004b 8033004e     D.;.I.9.K.5.N.3.
200094f8:	80300050 802f0051 802c0053 80290054     P.0.Q./.S.,.T.).
20009508:	80280056 80270059 8025005b 8024005c     V.(.Y.'.[.%.\.$.
20009518:	8023005d 8022005e 8020005f 801f0060     ].#.^."._. .`...
20009528:	801e0061 801d0062 801c0063 801b0064     a...b...c...d...
20009538:	801a0065 80190065 80190066 80190066     e...e...f...f...
20009548:	80180067 80170067 80160068 80160068     g...g...h...h...
20009558:	80150068 80150068 80150068 80140068     h...h...h...h...
20009568:	80140069 8014006a 8014006a 8014006a     i...j...j...j...
20009578:	8014006a 8014006a 8014006a 8014006a     j...j...j...j...
20009588:	8014006a 8014006b 8014006b 8013006b     j...k...k...k...
20009598:	8013006b 8014006b 8014006b 8014006b     k...k...k...k...
200095a8:	8013006b 8013006b 8013006b 8013006b     k...k...k...k...
200095b8:	8013006b 8014006b 8014006b 8014006b     k...k...k...k...
200095c8:	8014006b 8014006c 00140070 80140072     k...l...p...r...
200095d8:	80140072 80140072 80130072 80100073     r...r...r...s...
200095e8:	800f0073 800f0073 800e0073 800d0073     s...s...s...s...
200095f8:	800d0073 800d0072 800d0072 800d0072     s...r...r...r...
20009608:	800d0072 800d0072 800d0072 800d0071     r...r...r...q...
20009618:	800e0071 800e0071 800e0070 800f0070     q...q...p...p...
20009628:	80100070 80100070 80110070 80110070     p...p...p...p...
20009638:	80120070 8013006f 8013006f 8013006f     p...o...o...o...
20009648:	8014006f 8015006f 8017006e 8019006d     o...o...n...m...
20009658:	801a006b 801b006b 801b006b 801c006b     k...k...k...k...
20009668:	8020006b 8021006b 8021006b 8022006b     k. .k.!.k.!.k.".
20009678:	8022006b 8022006b 8023006b 8023006b     k.".k.".k.#.k.#.
20009688:	8023006b 8023006a 8023006a 80240069     k.#.j.#.j.#.i.$.
20009698:	80240069 80250069 80280069 80290068     i.$.i.%.i.(.h.).
200096a8:	802a0068 802a0067 802b0067 802c0066     h.*.g.*.g.+.f.,.
200096b8:	802c0066 802d0065 802e0065 80300064     f.,.e.-.e...d.0.
200096c8:	80350063 80380062 803a0061 803f0061     c.5.b.8.a.:.a.?.
200096d8:	80430060 8045005d 8050005b 8055005a     `.C.].E.[.P.Z.U.

200096e8 <raspberry_128x128>:
	...
2000972c:	00200020 00200020 00200000 00200020      . . . ... . . .
2000973c:	00000020 00000000 00000000 00000000      ...............
	...
20009790:	00200000 00200020 00000020 00200020     .. . . . ... . .
200097a0:	00200020 00000000 00000000 00000000      . .............
	...
20009824:	00200020 00200020 00200020 00200020      . . . . . . . .
20009834:	00200020 00200020 00200020 00200020      . . . . . . . .
20009844:	00200020 00000020 00000020 00000000      . . ... .......
	...
20009884:	00200020 00200020 00200020 00200020      . . . . . . . .
20009894:	00200020 00200020 00200020 00200020      . . . . . . . .
200098a4:	00200020 00200020 00000020 00000000      . . . . .......
	...
20009918:	00200000 00200020 00200020 00200020     .. . . . . . . .
20009928:	00200020 00200020 00200020 00200020      . . . . . . . .
20009938:	00200020 00200020 00200020 00200020      . . . . . . . .
20009948:	00200020 00200020 00000020 00000000      . . . . .......
	...
2000997c:	00200000 00200020 00200020 00200020     .. . . . . . . .
2000998c:	00200020 00200020 00200020 00200020      . . . . . . . .
2000999c:	00200020 00200020 00200020 00200020      . . . . . . . .
200099ac:	00200020 00200020 00000000 00000000      . . . .........
	...
20009a14:	00200000 00200020 00200020 00200020     .. . . . . . . .
20009a24:	00200020 00200020 08a10020 08a12364      . . . . ...d#..
20009a34:	00200020 23e50861 00200861 00600020      . .a..#a. . .`.
20009a44:	00200020 00200020 00200020 00200020      . . . . . . . .
	...
20009a7c:	00200020 00200020 00200020 00200020      . . . . . . . .
20009a8c:	00200861 00200020 08e123a5 00200020     a. . . ..#.. . .
20009a9c:	1aa30861 002011a3 00200020 00200020     a..... . . . . .
20009aac:	00200020 00200020 00200020 00000020      . . . . . . ...
	...
20009b10:	00200000 00200020 00200020 00200020     .. . . . . . . .
20009b20:	00200020 11a20020 09211ae3 00200020      . . .....!. . .
20009b30:	47ea1aa3 1ae43628 11a20020 236447ea     ...G(6.. ....Gd#
20009b40:	00200020 08e12d26 00200020 00200020      . .&-.. . . . .
20009b50:	00200020 00200020 00000020 00000000      . . . . .......
	...
20009b74:	00200000 00200020 00200020 00200020     .. . . . . . . .
20009b84:	00200020 35670020 00200060 476911a2      . . .g5`. ...iG
20009b94:	002023a4 35a711e2 2c663f69 00200020     .# ....5i?f, . .
20009ba4:	1aa308a1 00201263 00200020 00200020     ....c. . . . . .
20009bb4:	00200020 00200020 00200020 00000000      . . . . . .....
	...
20009c0c:	00200020 00200020 00200020 00200020      . . . . . . . .
20009c1c:	09621122 08a10962 00200020 47aa2ca6     ".b.b... . ..,.G
20009c2c:	35274729 366811a2 3f693ee9 23a53ea9     )G'5..h6.>i?.>.#
20009c3c:	3f694729 002035a7 47aa35e8 00201a23     )Gi?.5 ..5.G#. .
20009c4c:	122323e5 00200020 00200020 00200020     .##. . . . . . .
20009c5c:	00000020 00000000 00000000 00000000      ...............
	...
20009c74:	00200020 00200020 00200020 2d2608a1      . . . . . ...&-
20009c84:	08a10020 3f294729 24250020 3ee847aa      ...)G)? .%$.G.>
20009c94:	35672ce7 3ee847aa 11624729 3ea82ce6     .,g5.G.>)Gb..,.>
20009ca4:	362847aa 00200020 092108a1 092111a2     .G(6 . ...!...!.
20009cb4:	002008a1 00200020 00200020 00000020     .. . . . . . ...
	...
20009d0c:	00200020 00200020 00200020 00200020      . . . . . . . .
20009d1c:	47aa35e7 47293f69 2c663668 3f2923a4     .5.Gi?)Gh6f,.#)?
20009d2c:	3ee936a8 3ee93f29 3ea936a8 3f293ea8     .6.>)?.>.6.>.>)?
20009d3c:	3ea936a8 3ee93ee8 3ea83ea8 116247a9     .6.>.>.>.>.>.Gb.
20009d4c:	47aa1b64 002011a2 00200020 00200020     d..G.. . . . . .
20009d5c:	00000020 00000000 00000000 00000000      ...............
20009d6c:	00000000 00200000 00200020 00200020     ...... . . . . .
20009d7c:	08610020 35a73f29 47290020 3ee93ea8      .a.)?.5 .)G.>.>
20009d8c:	3f293ea8 3ea93ea8 3ee93ee8 3ea93ea8     .>)?.>.>.>.>.>.>
20009d9c:	3f6936a8 3ea93ea8 2ce73ea8 3e681b64     .6i?.>.>.>.,d.h>
20009dac:	47693ee8 476a3f69 00200020 00200020     .>iGi?jG . . . .
20009dbc:	00200020 00200020 00000000 00000000      . . . .........
	...
20009e0c:	00200020 11a20020 11e211e3 11e211e3      . . ...........
20009e1c:	3ea811e3 3ea83ee9 3ee93ee9 3ea84729     ...>.>.>.>.>)G.>
20009e2c:	3ea83ee9 3ea83ee9 3ea83ee9 3ea83ee9     .>.>.>.>.>.>.>.>
20009e3c:	3ea83ee9 3ea83ee9 3ea83ee9 3f293ea9     .>.>.>.>.>.>.>)?
20009e4c:	3ea83ee9 092147aa 1ae40020 00200020     .>.>.G!. ... . .
20009e5c:	00200020 00000020 00000000 00000000      . . ...........
20009e6c:	00000000 00200020 00200020 002022e4     .... . . . .." .
20009e7c:	3ee90020 3ee93ee9 3ea84729 3ea83ee9      ..>.>.>)G.>.>.>
20009e8c:	3ea83ee9 3ea83ee9 3ea83ee9 3ea83ee9     .>.>.>.>.>.>.>.>
20009e9c:	3ea83ee9 3ea83ee9 3ee93ee9 3ea84729     .>.>.>.>.>.>)G.>
20009eac:	3ea83ee9 1a634729 11a21223 11e211e3     .>.>)Gc.#.......
20009ebc:	00201a23 00200020 00000000 00000000     #. . . .........
	...
20009f0c:	00200020 11620020 476947ea 3f693f29      . . .b..GiG)?i?
20009f1c:	3ea93f29 3ea936a8 3ea93ea8 3ea936a8     )?.>.6.>.>.>.6.>
20009f2c:	3ea93ea8 3ea936a8 3ea93ea8 3ea936a8     .>.>.6.>.>.>.6.>
20009f3c:	3ea93ea8 3ea936a8 3ea93ea8 3ea936a8     .>.>.6.>.>.>.6.>
20009f4c:	3ea93ea8 476a36a8 47290020 00202425     .>.>.6jG .)G%$ .
20009f5c:	00200020 00000020 00000000 00000000      . . ...........
20009f6c:	00200000 00200020 1aa40020 086047ea     .. . . . ....G`.
20009f7c:	3ee93668 3ea936a8 3ea93ea8 3ea936a8     h6.>.6.>.>.>.6.>
20009f8c:	3ea93ea8 3ea936a8 3ea93ea8 3ea936a8     .>.>.6.>.>.>.6.>
20009f9c:	3ea93ea8 3ea936a8 3ea93ea8 3ea936a8     .>.>.6.>.>.>.6.>
20009fac:	3ea93ea8 3f2936a8 47693f29 47ea3f29     .>.>.6)?)?iG)?.G
20009fbc:	00201b24 00200020 00000000 00000000     $. . . .........
	...
2000a00c:	00200020 00200020 3f292be5 3ea83ea9      . . . ..+)?.>.>
2000a01c:	3ea83ee9 3ea83ee9 3ea83ee9 3ea83ee9     .>.>.>.>.>.>.>.>
2000a02c:	3ea83ee9 3ea83ee9 3ea83ee9 3ea83ee9     .>.>.>.>.>.>.>.>
2000a03c:	3ea83ee9 3ea83ee9 3ea83ee9 3ea83ee9     .>.>.>.>.>.>.>.>
2000a04c:	3ea83ee9 3ea83ee9 3ea84729 1ae4476a     .>.>.>.>)G.>jG..
2000a05c:	00200020 00200020 00000000 00000000      . . . .........
2000a06c:	00200020 00200020 47aa1162 3ee93ea9      . . . .b..G.>.>
2000a07c:	3ea83ee9 3ea83ee9 3ea83ee9 3ea83ee9     .>.>.>.>.>.>.>.>
2000a08c:	3ea83ee9 3ea83ee9 3ea83ee9 3ea83ee9     .>.>.>.>.>.>.>.>
2000a09c:	3ea83ee9 3ea83ee9 3ea83ee9 3ea83ee9     .>.>.>.>.>.>.>.>
2000a0ac:	3ea83ee9 3ea83ee9 3ea83ee9 35a73ee9     .>.>.>.>.>.>.>.5
2000a0bc:	00200020 00200020 00000000 00000000      . . . .........
	...
2000a10c:	00200020 00200020 47290020 3ea93ea8      . . . . .)G.>.>
2000a11c:	3ea936a8 3ea93ea8 3ea936a8 3ea93ea8     .6.>.>.>.6.>.>.>
2000a12c:	3ea936a8 3ea93ea8 3ea936a8 3ea93ea8     .6.>.>.>.6.>.>.>
2000a13c:	3ea936a8 3ea93ea8 3ea936a8 3ea93ea8     .6.>.>.>.6.>.>.>
2000a14c:	3ea936a8 3ea93ea8 3ea936a8 47aa3ea8     .6.>.>.>.6.>.>.G
2000a15c:	002000a1 00200020 00000000 00000000     .. . . .........
2000a16c:	00200020 00200020 3ea93ee8 3ea93ea8      . . . ..>.>.>.>
2000a17c:	3ea936a8 3ea93ea8 3ea936a8 3ea93ea8     .6.>.>.>.6.>.>.>
2000a18c:	3ea936a8 3ea93ea8 3ea936a8 3ea93ea8     .6.>.>.>.6.>.>.>
2000a19c:	3ea936a8 3ea93ea8 3ea936a8 3ea93ea8     .6.>.>.>.6.>.>.>
2000a1ac:	3ea936a8 3ea93ea8 3ea936a8 09223f29     .6.>.>.>.6.>)?".
2000a1bc:	00200020 00200020 00000000 00000000      . . . .........
	...
2000a208:	00200000 00200020 00200060 24250020     .. . . .`. . .%$
2000a218:	3ea83ee9 3ea83ee9 3ea83ee9 3ea83ee9     .>.>.>.>.>.>.>.>
2000a228:	3ee93ee9 3ea83ee9 3ea83ee9 3ea83ee9     .>.>.>.>.>.>.>.>
2000a238:	3ea83ee9 3ea83ee9 3ea83ee9 3ea83ee9     .>.>.>.>.>.>.>.>
2000a248:	3ea83ee9 3ea83ee9 3ea83ee9 3ea83ee9     .>.>.>.>.>.>.>.>
2000a258:	3ea93ee9 00203e28 00200020 00000020     .>.>(> . . . ...
2000a268:	00200000 00200020 2c660020 3ea83f29     .. . . . .f,)?.>
2000a278:	3ea83ee9 3ea83ee9 3ea83ee9 3ea83ee9     .>.>.>.>.>.>.>.>
2000a288:	3ea83ee9 3ea83ee9 3ea83ee9 3ea83ee9     .>.>.>.>.>.>.>.>
2000a298:	3ea83ee9 3ea83ee9 3ea83ee9 3ee93ee9     .>.>.>.>.>.>.>.>
2000a2a8:	3ea83ee9 3ea83ee9 3ea83ee9 3ea83ee9     .>.>.>.>.>.>.>.>
2000a2b8:	00203de8 00200020 00200020 00000020     .= . . . . . ...
	...
2000a308:	00200000 00200020 35270020 35672465     .. . . . .'5e$g5
2000a318:	3ea93ea8 3ea93ea8 3ea936a8 3ee93ea8     .>.>.>.>.6.>.>.>
2000a328:	2ca635a7 47693668 3ea936a8 3ea93ea8     .5.,h6iG.6.>.>.>
2000a338:	3ea936a8 3ea93ea8 3ea936a8 3ea93ea8     .6.>.>.>.6.>.>.>
2000a348:	3ea936a8 3ea93ea8 3ea936a8 3ea93ea8     .6.>.>.>.6.>.>.>
2000a358:	3ea936a8 1ae43f29 00200020 00000020     .6.>)?.. . . ...
2000a368:	00200000 00200020 47aa08e1 3ea93ea8     .. . . ....G.>.>
2000a378:	3ea936a8 3ea93ea8 3ea936a8 3ea93ea8     .6.>.>.>.6.>.>.>
2000a388:	3ea936a8 3ea93ea8 3ea936a8 3ea93ea8     .6.>.>.>.6.>.>.>
2000a398:	3ea936a8 3ea93ea8 3ee93f29 35672ce6     .6.>.>.>)?.>.,g5
2000a3a8:	3ea936a8 3ea93ea8 3ea936a8 3ee93ea8     .6.>.>.>.6.>.>.>
2000a3b8:	2c6635e7 006035a7 00200020 00000000     .5f,.5`. . .....
	...
2000a40c:	00200020 09620020 3ea84fea 3ea83ee9      . . .b..O.>.>.>
2000a41c:	3ea83ee9 3ea83ee9 3ea83ee9 3ea83ee9     .>.>.>.>.>.>.>.>
2000a42c:	11e22be5 47693527 3ea84729 3ea83ee9     .+..'5iG)G.>.>.>
2000a43c:	3ea83ee9 3ea83ee9 3ea83ee9 3ea83ee9     .>.>.>.>.>.>.>.>
2000a44c:	3ea83ee9 3ea83ee9 3ea83ee9 3ea83ee9     .>.>.>.>.>.>.>.>
2000a45c:	3ea93ea9 00200020 00200020 00200020     .>.> . . . . . .
2000a46c:	00200020 3ee835a7 3ea83ee9 3ea83ee9      . ..5.>.>.>.>.>
2000a47c:	3ea83ee9 3ea83ee9 3ea83ee9 3ea83ee9     .>.>.>.>.>.>.>.>
2000a48c:	3ea83ee9 3ea83ee9 3ea83ee9 3ee93ea9     .>.>.>.>.>.>.>.>
2000a49c:	35e847aa 1ae41a63 3ee93e69 3ea83ee9     .G.5c...i>.>.>.>
2000a4ac:	3ea83ee9 3ea83ee9 3ea83ee9 47aa3ee9     .>.>.>.>.>.>.>.G
2000a4bc:	00202365 00200020 00000020 00000000     e# . . . .......
	...
2000a50c:	00200020 00200020 47aa1222 3ea93ea8      . . . ."..G.>.>
2000a51c:	3ea936a8 3ea93ea8 3ea936a8 3ea93ea8     .6.>.>.>.6.>.>.>
2000a52c:	3f293ee9 00201ae3 3ee91b64 3ea93f29     .>)?.. .d..>)?.>
2000a53c:	3ea936a8 3ea93ea8 3ea936a8 3ea93ea8     .6.>.>.>.6.>.>.>
2000a54c:	3ea936a8 3ea93ea8 3ea936a8 3ea93ea8     .6.>.>.>.6.>.>.>
2000a55c:	476936a8 00201263 00200020 00200020     .6iGc. . . . . .
2000a56c:	08e10020 3ea93f69 3ea936a8 3ea93ea8      ...i?.>.6.>.>.>
2000a57c:	3ea936a8 3ea93ea8 3ea936a8 3ea93ea8     .6.>.>.>.6.>.>.>
2000a58c:	3ea936a8 3ea93ea8 3f2936a8 2ca63f29     .6.>.>.>.6)?)?.,
2000a59c:	11a20060 476936a8 3ea936a8 3ea93ea8     `....6iG.6.>.>.>
2000a5ac:	3ea936a8 3ea93ea8 3ea936a8 23e53f29     .6.>.>.>.6.>)?.#
2000a5bc:	00200020 00200020 00000000 00000000      . . . .........
	...
2000a60c:	00200020 00200020 08e10020 3ea83ee9      . . . . ....>.>
2000a61c:	3ea83ee9 3ea83ee9 3ea83ee9 3ea83ee9     .>.>.>.>.>.>.>.>
2000a62c:	3ea83ee9 3ee9476a 00201a63 3e681aa4     .>.>jG.>c. ...h>
2000a63c:	3ea8476a 3ea83ee9 3ea83ee9 3ea83ee9     jG.>.>.>.>.>.>.>
2000a64c:	3ea83ee9 3ea83ee9 3ea83ee9 3ea83ee9     .>.>.>.>.>.>.>.>
2000a65c:	3ea83ee9 002035a8 00200020 00200020     .>.>.5 . . . . .
2000a66c:	23640020 3ea8472a 3ea83ee9 3ea83ee9      .d#*G.>.>.>.>.>
2000a67c:	3ea83ee9 3ea83ee9 3ea83ee9 3ea83ee9     .>.>.>.>.>.>.>.>
2000a68c:	3ea83ee9 3f293ee9 1b644729 09210020     .>.>.>)?)Gd. .!.
2000a69c:	3f693e68 3ea83ee9 3ea83ee9 3ea83ee9     h>i?.>.>.>.>.>.>
2000a6ac:	3ea83ee9 3ea83ee9 3f293ee9 00201a64     .>.>.>.>.>)?d. .
2000a6bc:	00200020 00000020 00000000 00000000      . . ...........
	...
2000a70c:	00200020 00200020 09621b24 3f2923a5      . . . .$.b..#)?
2000a71c:	3ea93ea8 3ea936a8 3ea93ea8 3ea936a8     .>.>.6.>.>.>.6.>
2000a72c:	3ea93ea8 3ea836a8 3e683f29 00200921     .>.>.6.>)?h>!. .
2000a73c:	3e2811e2 3ea93f69 3ea93ea8 3ea936a8     ..(>i?.>.>.>.6.>
2000a74c:	3ea93ea8 3ea936a8 3ea93ea8 3ea936a8     .>.>.6.>.>.>.6.>
2000a75c:	3ea93ea8 00203f29 00200020 00200020     .>.>)? . . . . .
2000a76c:	3e280020 3ea936a8 3ea93ea8 3ea936a8      .(>.6.>.>.>.6.>
2000a77c:	3ea93ea8 3ea936a8 3ea93ea8 3ea936a8     .>.>.6.>.>.>.6.>
2000a78c:	476936a8 1aa43ea8 08610020 47692d26     .6iG.>.. .a.&-iG
2000a79c:	3ea93ea8 3ea936a8 3ea93ea8 3ea936a8     .>.>.6.>.>.>.6.>
2000a7ac:	3ea93ea8 3ea936a8 35673ea8 1ae40921     .>.>.6.>.>g5!...
2000a7bc:	002008e1 00200020 00000000 00000000     .. . . .........
	...
2000a80c:	00200020 00200020 47ea23a5 3ea83f29      . . . ..#.G)?.>
2000a81c:	3ea83ee9 3ea83ee9 3ea83ee9 3ea83ee9     .>.>.>.>.>.>.>.>
2000a82c:	3ea83ee9 3ea83ee9 3ea93ee9 2d2647aa     .>.>.>.>.>.>.G&-
2000a83c:	00200820 36281223 3ea8476a 3ea83ee9      . .#.(6jG.>.>.>
2000a84c:	3ea83ee9 3ea83ee9 3ea83ee9 3ea83ee9     .>.>.>.>.>.>.>.>
2000a85c:	3ea83ee9 0962476a 00200020 00200020     .>.>jGb. . . . .
2000a86c:	3ee90861 3ea83ee9 3ea83ee9 3ea83ee9     a..>.>.>.>.>.>.>
2000a87c:	3ea83ee9 3ea83ee9 3ea83ee9 3f293ea9     .>.>.>.>.>.>.>)?
2000a88c:	1aa346e9 00200020 476923e5 3ea83ee9     .F.. . ..#iG.>.>
2000a89c:	3ea83ee9 3ea83ee9 3ea83ee9 3ea83ee9     .>.>.>.>.>.>.>.>
2000a8ac:	3ea83ee9 3ea83ee9 3ee93ee9 2d6747aa     .>.>.>.>.>.>.Gg-
2000a8bc:	00200020 00000020 00000000 00000000      . . ...........
	...
2000a90c:	00200000 00200020 23e50020 3ea93f69     .. . . . ..#i?.>
2000a91c:	3ea936a8 3ea93ea8 3ea936a8 3ea93ea8     .6.>.>.>.6.>.>.>
2000a92c:	3ea936a8 3ea93ea8 3ea936a8 3ee93ea8     .6.>.>.>.6.>.>.>
2000a93c:	1ae43f29 00200020 3ee91222 3ea93f29     )?.. . ."..>)?.>
2000a94c:	3ea936a8 3ea93ea8 3ea936a8 3ea93ea8     .6.>.>.>.6.>.>.>
2000a95c:	3ea936a8 11e33f29 00200020 00200020     .6.>)?.. . . . .
2000a96c:	3f2900a0 3ea93ea8 3ea936a8 3ea93ea8     ..)?.>.>.6.>.>.>
2000a97c:	3ea936a8 3ea93ea8 3f2936a8 23243f29     .6.>.>.>.6)?)?$#
2000a98c:	00200020 3ee911a2 3ea93ee8 3ea93ea8      . ....>.>.>.>.>
2000a99c:	3ea936a8 3ea93ea8 3ea936a8 3ea93ea8     .6.>.>.>.6.>.>.>
2000a9ac:	3ea936a8 3ea93ea8 3f2936a8 00202d67     .6.>.>.>.6)?g- .
2000a9bc:	00200020 00000020 00000000 00000000      . . ...........
	...
2000aa10:	00200020 00200020 47692365 3ea83ea9      . . . .e#iG.>.>
2000aa20:	3ea83ee9 3ea83ee9 3ea83ee9 3ea83ee9     .>.>.>.>.>.>.>.>
2000aa30:	3ea83ee9 3ea83ee9 3ea83ee9 3f693ea9     .>.>.>.>.>.>.>i?
2000aa40:	08a13e28 00200020 3f692364 3ea83ee9     (>.. . .d#i?.>.>
2000aa50:	3ea83ee9 3ea83ee9 3ea83ee9 3ea83ee9     .>.>.>.>.>.>.>.>
2000aa60:	11e2476a 00200020 00200020 3f2908a1     jG.. . . . ...)?
2000aa70:	3ea83ee9 3ea83ee9 3ea83ee9 3ea83ee9     .>.>.>.>.>.>.>.>
2000aa80:	3ea83ee9 2c66476a 00200020 2d260020     .>.>jGf, . . .&-
2000aa90:	3ea847aa 3ea83ee9 3ea83ee9 3ea83ee9     .G.>.>.>.>.>.>.>
2000aaa0:	3ea83ee9 3ea83ee9 3ea83ee9 3ea83ee9     .>.>.>.>.>.>.>.>
2000aab0:	3ea83ee9 2ce64729 00200020 00200020     .>.>)G., . . . .
	...
2000ab10:	00200020 08610020 1ae40020 3ea93f29      . . .a. ...)?.>
2000ab20:	3ea936a8 3ea93ea8 3ea936a8 3ea93ea8     .6.>.>.>.6.>.>.>
2000ab30:	3ea936a8 3ea93ea8 3ea936a8 3ea93ea8     .6.>.>.>.6.>.>.>
2000ab40:	476a36a8 00201b64 00600020 476a2d26     .6jGd. . .`.&-jG
2000ab50:	3ea936a8 3ea93ea8 3ea936a8 3ea93ea8     .6.>.>.>.6.>.>.>
2000ab60:	08e13f69 00200020 00200020 3ee90020     i?.. . . . . ..>
2000ab70:	3ea936a8 3ea93ea8 3ea936a8 3ea93ea8     .6.>.>.>.6.>.>.>
2000ab80:	3e683f29 002008e1 12230020 3ee93f29     )?h>.. . .#.)?.>
2000ab90:	3ea936a8 3ea93ea8 3ea936a8 3ea93ea8     .6.>.>.>.6.>.>.>
2000aba0:	3ea936a8 3ea93ea8 3ea936a8 3ea93ea8     .6.>.>.>.6.>.>.>
2000abb0:	3ee936a8 00202c66 00200020 00200020     .6.>f, . . . . .
	...
2000ac10:	00200020 08a10020 3ee9476a 3ea83ee9      . . ...jG.>.>.>
2000ac20:	3ea83ee9 3ea83ee9 3ea83ee9 3ea83ee9     .>.>.>.>.>.>.>.>
2000ac30:	3ea83ee9 3ea83ee9 3ea83ee9 3ea83ee9     .>.>.>.>.>.>.>.>
2000ac40:	3ea83ee9 35e8476a 00200861 11e30020     .>.>jG.5a. . ...
2000ac50:	3ee94729 3ea83ee9 3ea83ee9 3ea83ee9     )G.>.>.>.>.>.>.>
2000ac60:	00203e69 00200020 00200020 2ca60020     i> . . . . . ..,
2000ac70:	3ea83f29 3ea83ee9 3ea83ee9 47693ee9     )?.>.>.>.>.>.>iG
2000ac80:	00202324 00200020 3f6934e7 3ea83ea9     $# . . ..4i?.>.>
2000ac90:	3ea83ee9 3ea83ee9 3ea83ee9 3ea83ee9     .>.>.>.>.>.>.>.>
2000aca0:	3ea83ee9 3ea83ee9 3ea83ee9 3ea83ee9     .>.>.>.>.>.>.>.>
2000acb0:	3ea83ee9 47ea3ee9 002011e3 00200020     .>.>.>.G.. . . .
	...
2000ad10:	00200020 00200020 3ea90020 3ea93ee8      . . . . ..>.>.>
2000ad20:	3ea93ea8 3ea936a8 3ea93ea8 3ea936a8     .>.>.6.>.>.>.6.>
2000ad30:	3ea93ea8 3ea936a8 3ea93ea8 3ea936a8     .>.>.6.>.>.>.6.>
2000ad40:	3ea93ea8 3ee936a8 12233f69 00200020     .>.>.6.>i?#. . .
2000ad50:	35270020 3ea83f69 3ea93ea8 47aa36a8      .'5i?.>.>.>.6.G
2000ad60:	002011e2 00200020 00200020 08610020     .. . . . . . .a.
2000ad70:	3ea94769 3ea936a8 3f293ea8 08a13628     iG.>.6.>.>)?(6..
2000ad80:	00200020 3ea908a1 3ea93ee9 3ea936a8      . ....>.>.>.6.>
2000ad90:	3ea93ea8 3ea936a8 3ea93ea8 3ea936a8     .>.>.6.>.>.>.6.>
2000ada0:	3ea93ea8 3ea936a8 3ea93ea8 3ea936a8     .>.>.6.>.>.>.6.>
2000adb0:	3ee93ea8 09223f29 00200020 00200020     .>.>)?". . . . .
	...
2000ae10:	00200000 00200020 00200020 3f692ce7     .. . . . . ..,i?
2000ae20:	3ea83ee9 3ea83ee9 3ea83ee9 3ea83ee9     .>.>.>.>.>.>.>.>
2000ae30:	3ea83ee9 3ea83ee9 3ea83ee9 3ea83ee9     .>.>.>.>.>.>.>.>
2000ae40:	3ea83ee9 3ea83ee9 47693ea9 00202c25     .>.>.>.>.>iG%, .
2000ae50:	00200060 3f691ae4 3ea83ee9 236447aa     `. ...i?.>.>.Gd#
2000ae60:	00200020 00200020 00200020 00200020      . . . . . . . .
2000ae70:	47aa1a23 3ea83ea9 23e547aa 00200020     #..G.>.>.G.# . .
2000ae80:	1a630020 3ea847aa 3ea83ee9 3ea83ee9      .c..G.>.>.>.>.>
2000ae90:	3ea83ee9 3ea83ee9 3ea83ee9 3ea83ee9     .>.>.>.>.>.>.>.>
2000aea0:	3ea83ee9 3ea83ee9 3ea83ee9 3ea83ee9     .>.>.>.>.>.>.>.>
2000aeb0:	3628476a 00200860 00200020 00000020     jG(6`. . . . ...
	...
2000af14:	00200020 00200020 11e30020 3ea93ee8      . . . . ....>.>
2000af24:	3ea93ea8 3ea936a8 3ea93ea8 3ea936a8     .>.>.6.>.>.>.6.>
2000af34:	3ea93ea8 3ea936a8 3ea93ea8 3ea936a8     .>.>.6.>.>.>.6.>
2000af44:	3ea93ea8 3ea936a8 35a73f29 00200020     .>.>.6.>)?.5 . .
2000af54:	08a10020 3f293ea8 00201223 00200020      ....>)?#. . . .
2000af64:	00200020 00200020 00200020 09210020      . . . . . . .!.
2000af74:	476a3668 002011e2 00200020 476923e5     h6jG.. . . ..#iG
2000af84:	3ea93ea8 3ea936a8 3ea93ea8 3ea936a8     .>.>.6.>.>.>.6.>
2000af94:	3ea93ea8 3ea936a8 3ea93ea8 3ea936a8     .>.>.6.>.>.>.6.>
2000afa4:	3ea93ea8 3ea936a8 3f293ea8 00201b64     .>.>.6.>.>)?d. .
2000afb4:	00200020 00200020 00000000 00000000      . . . .........
	...
2000b014:	00200020 00200020 3f293e68 3ea83ea9      . . . .h>)?.>.>
2000b024:	3ea83ee9 3ea83ee9 3ea83ee9 3ea83ee9     .>.>.>.>.>.>.>.>
2000b034:	3ea83ee9 3ea83ee9 3ea83ee9 3ea83ee9     .>.>.>.>.>.>.>.>
2000b044:	3ea83ee9 3ea83ee9 3ee93ee9 00203e68     .>.>.>.>.>.>h> .
2000b054:	00200020 00200060 00200020 00200020      . .`. . . . . .
2000b064:	00200020 00200020 00200020 00200020      . . . . . . . .
2000b074:	08a10020 00200020 2ce60020 3ea84769      ... . . ..,iG.>
2000b084:	3ea83ee9 3ea83ee9 3ea83ee9 3ea83ee9     .>.>.>.>.>.>.>.>
2000b094:	3ea83ee9 3ea83ee9 3ea83ee9 3ea83ee9     .>.>.>.>.>.>.>.>
2000b0a4:	3ea83ee9 3ea83ee9 3ea83ee9 3f293ee9     .>.>.>.>.>.>.>)?
2000b0b4:	00201122 00200020 00000000 00000000     ". . . .........
	...
2000b114:	00200000 00200020 23e50020 3ee93f69     .. . . . ..#i?.>
2000b124:	3ea936a8 3ea93ea8 3ea936a8 3ea93ea8     .6.>.>.>.6.>.>.>
2000b134:	3ea936a8 3ea93ea8 3ea936a8 3ea93ea8     .6.>.>.>.6.>.>.>
2000b144:	3ea936a8 3ea93ea8 3ea936a8 3ee93ee8     .6.>.>.>.6.>.>.>
2000b154:	00200020 00200020 00200020 00200020      . . . . . . . .
2000b164:	00200020 00200020 00200020 00200020      . . . . . . . .
2000b174:	00200020 00200020 3f292d67 3ea93ea8      . . . .g-)?.>.>
2000b184:	3ea936a8 3ea93ea8 3ea936a8 3ea93ea8     .6.>.>.>.6.>.>.>
2000b194:	3ea936a8 3ea93ea8 3ea936a8 3ea93ea8     .6.>.>.>.6.>.>.>
2000b1a4:	3ea936a8 3ea93ea8 476936a8 00202d26     .6.>.>.>.6iG&- .
2000b1b4:	00200020 00200020 00000000 00000000      . . . .........
	...
2000b214:	00200000 00200020 00200020 2d2708e1     .. . . . . ...'-
2000b224:	3ea847aa 3ea83ee9 3ea83ee9 3ea83ee9     .G.>.>.>.>.>.>.>
2000b234:	3ea83ee9 3ea83ee9 3ea83ee9 3ea83ee9     .>.>.>.>.>.>.>.>
2000b244:	3ea83ee9 3ea83ee9 3ea83ee9 3ee93ee9     .>.>.>.>.>.>.>.>
2000b254:	00203e68 00200020 00200020 00200020     h> . . . . . . .
2000b264:	00200020 00200020 00200020 00200020      . . . . . . . .
2000b274:	00200020 2c660020 3ea84729 3ea83ee9      . . .f,)G.>.>.>
2000b284:	3ea83ee9 3ea83ee9 3ea83ee9 3ea83ee9     .>.>.>.>.>.>.>.>
2000b294:	3ea83ee9 3ea83ee9 3ea83ee9 3ea83ee9     .>.>.>.>.>.>.>.>
2000b2a4:	3ea83ee9 47693ee9 11a23e28 00200020     .>.>.>iG(>.. . .
2000b2b4:	00200020 00000020 00000000 00000000      . . ...........
	...
2000b318:	00200020 00200020 00200020 3e280020      . . . . . . .(>
2000b328:	3ea93ea8 3ea93ea8 3ea936a8 3ea93ea8     .>.>.>.>.6.>.>.>
2000b338:	3ea936a8 3ea93ea8 3ea936a8 3ea93ea8     .6.>.>.>.6.>.>.>
2000b348:	3ea936a8 3ea93ea8 3f2936a8 00202425     .6.>.>.>.6)?%$ .
2000b358:	00200020 00200020 00200020 00200020      . . . . . . . .
2000b368:	00200020 00200020 00200020 00200020      . . . . . . . .
2000b378:	1a630020 3ea93f29 3ea936a8 3ea93ea8      .c.)?.>.6.>.>.>
2000b388:	3ea936a8 3ea93ea8 3ea936a8 3ea93ea8     .6.>.>.>.6.>.>.>
2000b398:	3ea936a8 3ea93ea8 3ea936a8 3ea93ea8     .6.>.>.>.6.>.>.>
2000b3a8:	09223ea8 00200020 00200020 00200020     .>". . . . . . .
	...
2000b41c:	00200020 1ae40020 3f294729 3ea83ee9      . . ...)G)?.>.>
2000b42c:	3ea83ee9 3ea83ee9 3ea83ee9 3ea83ee9     .>.>.>.>.>.>.>.>
2000b43c:	3ea83ee9 3ea83ee9 3ea83ee9 3ea83ee9     .>.>.>.>.>.>.>.>
2000b44c:	3ea83ee9 47693ea9 002008a1 00200020     .>.>.>iG.. . . .
2000b45c:	00200020 00200020 00200020 00200020      . . . . . . . .
2000b46c:	00200020 00200020 00200020 00200020      . . . . . . . .
2000b47c:	3ea83ee9 3ea83ee9 3ea83ee9 3ea83ee9     .>.>.>.>.>.>.>.>
2000b48c:	3ea83ee9 3ea83ee9 3ea83ee9 3ea83ee9     .>.>.>.>.>.>.>.>
2000b49c:	3ea83ee9 3ea83ee9 3ea83ee9 3f293f29     .>.>.>.>.>.>)?)?
2000b4ac:	00202c66 00200020 00000020 00000000     f, . . . .......
	...
2000b51c:	00200020 00200020 23e50060 476a3ea8      . . . .`..#.>jG
2000b52c:	3ea93f29 3ea93ea8 3ea936a8 3ea93ea8     )?.>.>.>.6.>.>.>
2000b53c:	3ea936a8 3ea93ea8 3ea936a8 3ea93ea8     .6.>.>.>.6.>.>.>
2000b54c:	3ea936a8 23e53f29 00200020 00200020     .6.>)?.# . . . .
2000b55c:	00200020 00200020 00200020 00200020      . . . . . . . .
2000b56c:	00200020 00200020 00200020 00200020      . . . . . . . .
2000b57c:	47aa11e2 3ea93ea8 3ea936a8 3ea93ea8     ...G.>.>.6.>.>.>
2000b58c:	3ea936a8 3ea93ea8 3ea936a8 3ea93ea8     .6.>.>.>.6.>.>.>
2000b59c:	3ea936a8 3f293ea8 3f293f29 09212ca6     .6.>.>)?)?)?.,!.
2000b5ac:	00200020 00200020 00000000 00000000      . . . .........
	...
2000b61c:	00200020 00200020 00200020 09210020      . . . . . . .!.
2000b62c:	3ee91b24 3ea83ee9 3ea83ee9 3ea83ee9     $..>.>.>.>.>.>.>
2000b63c:	3ea83ee9 3ea83ee9 3ea83ee9 3ea83ee9     .>.>.>.>.>.>.>.>
2000b64c:	3f293ea9 00203567 00200020 00200020     .>)?g5 . . . . .
2000b65c:	00200020 00200020 00200020 00200020      . . . . . . . .
2000b66c:	00200020 00200020 00200020 00200020      . . . . . . . .
2000b67c:	23640020 3ea847aa 3ea83ee9 3ea83ee9      .d#.G.>.>.>.>.>
2000b68c:	3ea83ee9 3ea83ee9 3ea83ee9 3ea83ee9     .>.>.>.>.>.>.>.>
2000b69c:	3ea83ee9 23e54729 002011a2 00200020     .>.>)G.#.. . . .
2000b6ac:	00200020 00000020 00000000 00000000      . . ...........
	...
2000b71c:	00200000 00200020 00200020 08e10020     .. . . . . . ...
2000b72c:	476a2d67 3ee93ee8 3ea93ea8 3ea936a8     g-jG.>.>.>.>.6.>
2000b73c:	3ea93ea8 3ea936a8 3ea93ea8 3ee936a8     .>.>.6.>.>.>.6.>
2000b74c:	2c263fa9 00200020 00200020 00200020     .?&, . . . . . .
2000b75c:	00200020 00200020 00200020 00200020      . . . . . . . .
2000b76c:	00200020 00200020 00200020 00200020      . . . . . . . .
2000b77c:	00200020 476a1aa3 3ea93ee8 3ea936a8      . ...jG.>.>.6.>
2000b78c:	3ea93ea8 3ea936a8 3ea93ea8 3ee936a8     .>.>.6.>.>.>.6.>
2000b79c:	3f293ee8 3e683f29 002011a2 00200020     .>)?)?h>.. . . .
2000b7ac:	00200020 00000000 00000000 00000000      . .............
	...
2000b824:	00200020 00200020 1b2411a2 2d262c66      . . . ...$.f,&-
2000b834:	3ea835e8 3ea83ea9 3ea83ee9 3ea83ee9     .5.>.>.>.>.>.>.>
2000b844:	3ee93ee9 35e7476a 00201162 00200020     .>.>jG.5b. . . .
2000b854:	00200020 00200020 00200020 00200020      . . . . . . . .
2000b864:	00200020 00200020 00200020 00200020      . . . . . . . .
2000b874:	00200020 00200020 00200020 00600020      . . . . . . .`.
2000b884:	3f293567 3ea83f29 3ea83ee9 3ea83ee9     g5)?)?.>.>.>.>.>
2000b894:	3ea83ee9 35e73ea9 2ca63567 11e22365     .>.>.>.5g5.,e#..
2000b8a4:	00200861 00200020 00000000 00000000     a. . . .........
	...
2000b924:	00200020 00200020 00200020 00200020      . . . . . . . .
2000b934:	00600020 3ee93f69 3f293ee8 476a3f29      .`.i?.>.>)?)?jG
2000b944:	2c663628 00200921 00200020 00200020     (6f,!. . . . . .
2000b954:	00200020 00200020 00200020 00200020      . . . . . . . .
2000b964:	00200020 00200020 00200020 00200020      . . . . . . . .
2000b974:	00200020 00200020 00200020 00200020      . . . . . . . .
2000b984:	08a10020 362823a4 47693f29 3f293f29      ....#(6)?iG)?)?
2000b994:	476a3ee8 002011e2 00200020 00200020     .>jG.. . . . . .
2000b9a4:	00200020 00200020 00000000 00000000      . . . .........
	...
2000ba24:	00200000 00200020 00200020 00200020     .. . . . . . . .
2000ba34:	2ce608e1 2c662ca6 1ae323e5 006011e3     ...,.,f,.#....`.
2000ba44:	00200020 00200020 00200020 00200020      . . . . . . . .
2000ba54:	00200020 00200020 00200020 00200020      . . . . . . . .
2000ba64:	00200020 00200821 00200020 00200020      . .!. . . . . .
2000ba74:	00200020 00200020 00200020 00200020      . . . . . . . .
2000ba84:	00200020 00200020 09620861 23a51aa4      . . . .a.b....#
2000ba94:	24652c66 11a23527 00200020 00200020     f,e$'5.. . . . .
2000baa4:	00200020 00000020 00000000 00000000      . . ...........
	...
2000bb28:	00200000 00200020 00200020 00200020     .. . . . . . . .
2000bb38:	00200020 00200020 00200020 00200020      . . . . . . . .
2000bb48:	00200020 00200020 00200020 00200020      . . . . . . . .
2000bb58:	00200020 60241020 d029a827 f02ae829      . . .$`'.).).*.
2000bb68:	e82ae82a b028d029 18216024 00200020     *.*.).(.$`!. . .
2000bb78:	00200020 00200020 00200020 00200020      . . . . . . . .
2000bb88:	00200020 00200020 00200020 00200020      . . . . . . . .
2000bb98:	00200020 00200020 00200020 00000000      . . . . . .....
	...
2000bc28:	00200020 00200020 00200020 00200020      . . . . . . . .
2000bc38:	00200020 00200020 00200020 00200020      . . . . . . . .
2000bc48:	00200020 00200020 00200020 00200020      . . . . . . . .
2000bc58:	a8272022 e029e82a d029d829 d029d829     " '.*.).).).).).
2000bc68:	d029d829 d829d829 e82ae02a 3822c028     ).).).).*.*.(."8
2000bc78:	00200020 00200020 00200020 00200020      . . . . . . . .
2000bc88:	00200020 00200020 00200020 00200020      . . . . . . . .
2000bc98:	00200020 00200020 00200020 00000020      . . . . . . ...
	...
2000bd24:	00200000 00200020 00200020 00200020     .. . . . . . . .
2000bd34:	00200020 40231821 78256024 80268826      . .!.#@$`%x&.&.
2000bd44:	50237024 00202021 00200020 00200020     $p#P!  . . . . .
2000bd54:	a0270020 e029f02a d829d029 d829d029      .'.*.).).).).).
2000bd64:	d829d029 d829d029 d829d029 d829d029     ).).).).).).).).
2000bd74:	f02ad829 2021c828 00200020 00200020     ).*.(.!  . . . .
2000bd84:	00200020 10210020 28221821 18212021      . . .!.!."(! !.
2000bd94:	00200820 00200020 00200020 00200020      . . . . . . . .
2000bda4:	00200020 00000020 00000000 00000000      . . ...........
	...
2000be24:	00200020 00200020 00200020 28220020      . . . . . . ."(
2000be34:	d0299026 e82af02a d829e02a d829e02a     &.).*.*.*.).*.).
2000be44:	e029e02a 0020f82b 00200020 20220020     *.).+. . . . ." 
2000be54:	d829e82a d829d829 d029d829 d829d829     *.).).).).).).).
2000be64:	d029d829 d829d829 d029d829 d829d829     ).).).).).).).).
2000be74:	d029d829 f02ad829 00207025 00200020     ).).).*.%p . . .
2000be84:	58240020 e029e82a e82af02a e82af02a      .$X*.).*.*.*.*.
2000be94:	c828e02a 5023a027 00200020 00200020     *.(.'.#P . . . .
2000bea4:	00200020 00200020 00000000 00000000      . . . .........
	...
2000bf20:	00200000 00200020 00200020 28220020     .. . . . . . ."(
2000bf30:	e82ab828 d029d829 d829d028 d829d029     (.*.).).(.).).).
2000bf40:	d829d028 e02ad029 00206824 00200020     (.).).*.$h . . .
2000bf50:	f02a4022 d829d029 d829d029 d829d029     "@*.).).).).).).
2000bf60:	d829d029 d829d029 d829d029 d829d029     ).).).).).).).).
2000bf70:	d829d029 d829d029 d029d029 9026e82a     ).).).).).).*.&.
2000bf80:	00200020 30220020 d029e82a d829d029      . . ."0*.).).).
2000bf90:	d029d028 d029d029 e82ad029 9827e029     (.).).).).*.).'.
2000bfa0:	00201020 00200020 00200020 00000020      . . . . . . ...
	...
2000c020:	00200020 00200020 00200020 f02a9827      . . . . . .'.*.
2000c030:	d029d829 d029d829 d029d829 d029d829     ).).).).).).).).
2000c040:	d029d829 c028d829 00200020 20210020     ).).).(. . . .! 
2000c050:	d029f02b d829d829 d029d829 d829d829     +.).).).).).).).
2000c060:	d029d829 d829d829 d029d829 d829d829     ).).).).).).).).
2000c070:	d029d829 d829d829 d029d829 e82ad829     ).).).).).).).*.
2000c080:	00207025 00200020 e0299827 d029d829     %p . . .'.).).).
2000c090:	d029d829 d029d829 d029d829 d829d829     ).).).).).).).).
2000c0a0:	8025f02a 00200020 00200020 00200020     *.%. . . . . . .
	...
2000c11c:	00200000 00200020 00200020 d0290020     .. . . . . . .).
2000c12c:	d029d829 d829d029 d829d028 d829d029     ).).).).(.).).).
2000c13c:	d829d028 d829d029 0020d829 00200020     (.).).).). . . .
2000c14c:	c8290020 d829d029 d829d029 d829d029      .).).).).).).).
2000c15c:	d829d029 d829d029 d829d029 d829d029     ).).).).).).).).
2000c16c:	d829d029 d829d029 d829d029 d829d029     ).).).).).).).).
2000c17c:	d029d029 1821f02a 00200020 c8290020     ).).*.!. . . .).
2000c18c:	d829d029 d829d029 d829d028 d829d029     ).).).).(.).).).
2000c19c:	d829d028 e02ad029 0820c828 00200020     (.).).*.(. . . .
2000c1ac:	00200020 00000020 00000000 00000000      . . ...........
	...
2000c21c:	00200020 00200020 00200020 d829e02a      . . . . . .*.).
2000c22c:	d029d829 d029d829 d029d829 d029d829     ).).).).).).).).
2000c23c:	d029d829 e82ad829 00201021 00200020     ).).).*.!. . . .
2000c24c:	e82a2822 d829d829 d029d829 d829d829     "(*.).).).).).).
2000c25c:	d029d829 d829d829 d029d829 d829d829     ).).).).).).).).
2000c26c:	d029d829 d829d829 d029d829 d829d829     ).).).).).).).).
2000c27c:	d029d829 8826e02a 00200020 00200020     ).).*.&. . . . .
2000c28c:	d829d829 d029d829 d029d829 d029d829     ).).).).).).).).
2000c29c:	d029d829 d029d829 e029d829 00201021     ).).).).).).!. .
2000c2ac:	00200020 00200020 00000000 00000000      . . . .........
	...
2000c318:	00200000 00200020 00200020 c0280020     .. . . . . . .(.
2000c328:	d829d829 d829d029 d829d028 d829d029     ).).).).(.).).).
2000c338:	d829d028 d829d029 1821e829 00200020     (.).).).).!. . .
2000c348:	00200020 e82a2021 d829d029 d829d029      . .! *.).).).).
2000c358:	d829d029 d829d029 d829d029 d829d029     ).).).).).).).).
2000c368:	d829d029 d829d029 d829d029 d829d029     ).).).).).).).).
2000c378:	d829d029 d829d029 a827d829 00200020     ).).).).).'. . .
2000c388:	00200020 e82a0020 d829d029 d829d029      . . .*.).).).).
2000c398:	d829d028 d829d029 d829d028 d829d029     (.).).).(.).).).
2000c3a8:	0020d829 00200020 00200020 00000000     ). . . . . .....
	...
2000c418:	00200000 00200020 00200020 e0297825     .. . . . . .%x).
2000c428:	d029d829 d029d829 d029d829 d029d829     ).).).).).).).).
2000c438:	d029d829 e82ad829 00201021 00200020     ).).).*.!. . . .
2000c448:	00200020 d0290020 d029d829 d829d829      . . .).).).).).
2000c458:	d029d829 d829d829 d029d829 d829d829     ).).).).).).).).
2000c468:	d029d829 d829d829 d029d829 d829d829     ).).).).).).).).
2000c478:	d029d829 d829d829 9026e02a 00200020     ).).).).*.&. . .
2000c488:	00200020 00200020 d829e02a d029d829      . . . .*.).).).
2000c498:	d029d829 d029d829 d029d829 d029d829     ).).).).).).).).
2000c4a8:	b027e029 00200020 00200020 00000020     ).'. . . . . ...
	...
2000c518:	00200020 00200020 08210020 d029e82a      . . . . .!.*.).
2000c528:	d829d029 d829d028 d829d029 d829d028     ).).(.).).).(.).
2000c538:	d829d029 0821d829 00200020 00200020     ).).).!. . . . .
2000c548:	00200020 38230020 d829f02a d829d029      . . .#8*.).).).
2000c558:	d829d029 d829d029 d829d029 d829d029     ).).).).).).).).
2000c568:	d829d029 d829d029 d829d029 d829d029     ).).).).).).).).
2000c578:	d829d029 d029d029 2822f02a 00200020     ).).).).*."( . .
2000c588:	00200020 00200020 e0290020 d829d829      . . . . .).).).
2000c598:	d829d029 d829d028 d829d029 d829d028     ).).(.).).).(.).
2000c5a8:	e82ad029 00204023 00200020 00200020     ).*.#@ . . . . .
	...
2000c618:	00200020 00200020 88260020 d029e02a      . . . . .&.*.).
2000c628:	d029d829 d029d829 d029d829 d029d829     ).).).).).).).).
2000c638:	d029e02a 00200020 00200020 00200020     *.). . . . . . .
2000c648:	00200020 00200020 f02a6025 d029d829      . . . .%`*.).).
2000c658:	d829d829 d029d829 d829d829 d029d829     ).).).).).).).).
2000c668:	d829d829 d029d829 d829d829 d029d829     ).).).).).).).).
2000c678:	d829d829 e82ad829 00207866 00200020     ).).).*.fx . . .
2000c688:	00200020 00200020 00200020 d829c829      . . . . . .).).
2000c698:	d029d829 d029d829 d029d829 d029d829     ).).).).).).).).
2000c6a8:	d029d829 0020d829 00200020 00200020     ).).). . . . . .
	...
2000c714:	00200000 00200020 00200020 e0290020     .. . . . . . .).
2000c724:	d829d029 d829d028 d829d029 d829d028     ).).(.).).).(.).
2000c734:	e02ad029 0020b027 00200020 00200020     ).*.'. . . . . .
2000c744:	00200020 00200020 00200020 38220020      . . . . . . ."8
2000c754:	e82ae029 d829d029 d829d029 d829d029     ).*.).).).).).).
2000c764:	d829d029 d829d029 d829d029 d829d029     ).).).).).).).).
2000c774:	d829d029 d829d029 6825f02a 00200020     ).).).).*.%h . .
2000c784:	00200020 00200020 00200020 00200020      . . . . . . . .
2000c794:	b0280020 d029e029 d829d029 d829d028      .(.).).).).(.).
2000c7a4:	d829d029 d029d028 4023e829 00200020     ).).(.).).#@ . .
2000c7b4:	00200020 00000000 00000000 00000000      . .............
	...
2000c814:	00200000 00200020 00200020 e8294823     .. . . . . .#H).
2000c824:	d029d829 d029d829 d029d829 d029d829     ).).).).).).).).
2000c834:	9026f02a 00200020 00200020 00200020     *.&. . . . . . .
2000c844:	00200020 00200020 00200020 00200020      . . . . . . . .
2000c854:	68250020 e82ae02a d829e02a d029d829      .%h*.*.*.).).).
2000c864:	d829d829 d029d829 d829d829 d029d829     ).).).).).).).).
2000c874:	e82ae02a a027f02a 00201821 00200020     *.*.*.'.!. . . .
2000c884:	00200020 00200020 00200020 00200020      . . . . . . . .
2000c894:	00200020 e82a9026 d029d829 d029d829      . .&.*.).).).).
2000c8a4:	d029d829 d029d829 a027e02a 00200020     ).).).).*.'. . .
2000c8b4:	00200020 00000020 00000000 00000000      . . ...........
	...
2000c914:	00200000 00200020 00200020 d8299826     .. . . . . .&.).
2000c924:	d829d028 d829d029 d829d028 f02ad029     (.).).).(.).).*.
2000c934:	00205824 00200020 00200020 00200020     $X . . . . . . .
2000c944:	00200020 00200020 00200020 00200020      . . . . . . . .
2000c954:	00200020 38230020 c8298025 f02ad829      . . .#8%.).).*.
2000c964:	e82ae829 e82ae029 f02ae829 d029e029     ).*.).*.).*.).).
2000c974:	5024a027 00200820 00200020 00200020     '.$P . . . . . .
2000c984:	00200020 00200020 00200020 00200020      . . . . . . . .
2000c994:	00200020 58240020 d029e82a d829d029      . . .$X*.).).).
2000c9a4:	d829d028 d829d029 e029d028 00200020     (.).).).(.). . .
2000c9b4:	00200020 00000020 00000000 00000000      . . ...........
	...
2000ca14:	00200000 00200020 00200020 d029c829     .. . . . . .).).
2000ca24:	d029d829 d029d829 d829d829 2822e82a     ).).).).).).*."(
2000ca34:	00200020 00200020 00200020 00200020      . . . . . . . .
2000ca44:	00200020 00200020 00200020 00200020      . . . . . . . .
2000ca54:	00200020 00200020 00200020 18210821      . . . . . .!.!.
2000ca64:	38223022 38234823 20213022 00201021     "0"8#H#8"0! !. .
2000ca74:	00200020 00200020 00200020 18210020      . . . . . . .!.
2000ca84:	28223022 00201821 00200020 00200020     "0"(!. . . . . .
2000ca94:	00200020 00200820 e0292822 d029e02a      . . . ."().*.).
2000caa4:	d029d829 d029d829 e82ad829 00202822     ).).).).).*."( .
2000cab4:	00200020 00000020 00000000 00000000      . . ...........
	...
2000cb14:	00200000 00200020 00200020 d829d829     .. . . . . .).).
2000cb24:	d829d029 d029d028 b028e029 00200020     ).).(.).).(. . .
2000cb34:	00200020 00200020 00200020 00200020      . . . . . . . .
2000cb44:	48231821 70256824 48236824 00201021     !.#H$h%p$h#H!. .
2000cb54:	00200020 00200020 00200020 00200020      . . . . . . . .
2000cb64:	00200020 00200020 00200020 00200020      . . . . . . . .
2000cb74:	00200020 00200020 b0285023 e82ae029      . . . .#P(.).*.
2000cb84:	e82ae829 e82ae029 6825b828 00201020     ).*.).*.(.%h . .
2000cb94:	00200020 00200020 00200020 e02ab828      . . . . . .(.*.
2000cba4:	d829d029 d829d028 e82ad029 00204823     ).).(.).).*.#H .
2000cbb4:	00200020 00000020 00000000 00000000      . . ...........
	...
2000cc14:	00200020 00200020 08200020 d029e82a      . . . . . .*.).
2000cc24:	d029d829 e82ad829 00206825 00200020     ).).).*.%h . . .
2000cc34:	00200020 00200020 18210020 d0299026      . . . . .!.&.).
2000cc44:	e029f02a e029e02a e029e02a d029f02a     *.).*.).*.).*.).
2000cc54:	00206825 00200020 00200020 00200020     %h . . . . . . .
2000cc64:	00200020 00200020 00200020 00200020      . . . . . . . .
2000cc74:	00200820 e0294823 d829e82a d029d829      . .#H).*.).).).
2000cc84:	d029d829 d029d829 e029d829 9826f02a     ).).).).).).*.&.
2000cc94:	00201021 00200020 00200020 70250020     !. . . . . . .%p
2000cca4:	d829f02a d029d829 e029d829 00206825     *.).).).).).%h .
2000ccb4:	00200020 00000020 00000000 00000000      . . ...........
	...
2000cd14:	00200000 00200020 08210020 d829e82a     .. . . . .!.*.).
2000cd24:	e82ad028 1821b828 00200020 00200020     (.*.(.!. . . . .
2000cd34:	00200020 10210020 e82aa827 d029d829      . . .!.'.*.).).
2000cd44:	d829d028 d829d029 d829d028 d029d029     (.).).).(.).).).
2000cd54:	e02ae029 00203022 00200020 00200020     ).*."0 . . . . .
2000cd64:	00200020 00200020 00200020 00200020      . . . . . . . .
2000cd74:	98270020 d029e829 d829d028 d829d029      .'.).).(.).).).
2000cd84:	d829d028 d829d029 d829d028 d829d028     (.).).).(.).(.).
2000cd94:	7025e829 00200020 00200020 00200020     ).%p . . . . . .
2000cda4:	d0291821 d029e029 e029d028 00208025     !.).).).(.).%. .
2000cdb4:	00200020 00000020 00000000 00000000      . . ...........
	...
2000ce14:	00200020 00200020 08200020 e82af82b      . . . . . .+.*.
2000ce24:	4823d029 00200020 00200020 00200020     ).#H . . . . . .
2000ce34:	00200020 e82a6024 d029e029 d029d829      . .$`*.).).).).
2000ce44:	d029d829 d029d829 d029d829 d029d829     ).).).).).).).).
2000ce54:	d029d829 7025f02a 00200020 00200020     ).).*.%p . . . .
2000ce64:	00200020 00200020 00200020 00200820      . . . . . . . .
2000ce74:	e029a828 d029d829 d029d829 d029d829     (.).).).).).).).
2000ce84:	d029d829 d029d829 d029d829 d029d829     ).).).).).).).).
2000ce94:	e029d829 0020b828 00200020 00200020     ).).(. . . . . .
2000cea4:	00200020 e82a6825 e029e02a 00208826      . .%h*.*.).&. .
2000ceb4:	00200020 00000020 00000000 00000000      . . ...........
	...
2000cf14:	00200000 00200020 00200020 30225023     .. . . . . .#P"0
2000cf24:	00200020 00200020 00200020 00200020      . . . . . . . .
2000cf34:	90260020 d029e829 d829d029 d829d028      .&.).).).).(.).
2000cf44:	d829d029 d829d028 d829d029 d829d028     ).).(.).).).(.).
2000cf54:	d829d029 e82ad028 00206024 00200020     ).).(.*.$` . . .
2000cf64:	00200020 00200020 00200020 70250020      . . . . . . .%p
2000cf74:	d829e029 d829d028 d829d029 d829d028     ).).(.).).).(.).
2000cf84:	d829d029 d829d028 d829d029 d829d028     ).).(.).).).(.).
2000cf94:	d829d029 d029d829 00200020 00200020     ).).).). . . . .
2000cfa4:	00200020 00200020 c0286824 00204823      . . . .$h(.#H .
2000cfb4:	00200020 00000020 00000000 00000000      . . ...........
	...
2000d014:	00200020 00200020 00200020 00200020      . . . . . . . .
2000d024:	00200020 00200020 00200020 00200020      . . . . . . . .
2000d034:	e029b068 d029d829 d029d829 d029d829     h.).).).).).).).
2000d044:	d029d829 d029d829 d029d829 d029d829     ).).).).).).).).
2000d054:	d029d829 d029d829 2022f82a 00200020     ).).).).*."  . .
2000d064:	00200020 00200020 00200020 f02a2022      . . . . . ." *.
2000d074:	d029d829 d029d829 d029d829 d029d829     ).).).).).).).).
2000d084:	d029d829 d029d829 d029d829 d029d829     ).).).).).).).).
2000d094:	d029d829 d829d829 0020d029 00200020     ).).).).). . . .
2000d0a4:	00200020 00200020 00200020 00200020      . . . . . . . .
2000d0b4:	00200020 00200020 00000000 00000000      . . . .........
	...
2000d110:	00200000 00200020 00200020 00200020     .. . . . . . . .
2000d120:	00200020 00200020 00200020 00200020      . . . . . . . .
2000d130:	90260020 d029e029 d829d029 d829d028      .&.).).).).(.).
2000d140:	d829d029 d829d028 d829d029 d829d028     ).).(.).).).(.).
2000d150:	d829d029 d829d028 d829d029 c829d028     ).).(.).).).(.).
2000d160:	00200020 00200020 00200020 00200020      . . . . . . . .
2000d170:	d829a827 d829d028 d829d029 d829d028     '.).(.).).).(.).
2000d180:	d829d029 d829d028 d829d029 d829d028     ).).(.).).).(.).
2000d190:	d829d029 d829d028 d829d029 a027d829     ).).(.).).).).'.
2000d1a0:	00200020 00200020 00200020 00200020      . . . . . . . .
2000d1b0:	00200020 00200020 00200020 00000020      . . . . . . ...
	...
2000d210:	00200020 00200020 00200020 00200020      . . . . . . . .
2000d220:	00200020 00200020 00200020 00200020      . . . . . . . .
2000d230:	e82a5024 d029d829 d029d829 d029d829     $P*.).).).).).).
2000d240:	d029d829 d029d829 d029d829 d029d829     ).).).).).).).).
2000d250:	d029d829 d029d829 d029d829 e82ad829     ).).).).).).).*.
2000d260:	00204023 00200020 00200020 10210020     #@ . . . . . .!.
2000d270:	d029f02a d029d829 d029d829 d029d829     *.).).).).).).).
2000d280:	d029d829 d029d829 d029d829 d029d829     ).).).).).).).).
2000d290:	d029d829 d029d829 d029d829 e82ad829     ).).).).).).).*.
2000d2a0:	00205024 00200020 00200020 00200020     $P . . . . . . .
2000d2b0:	00200020 00200020 00200020 00200020      . . . . . . . .
2000d2c0:	00000020 00000000 00000000 00000000      ...............
	...
2000d30c:	00200000 00200020 00200020 08200020     .. . . . . . . .
2000d31c:	00202822 00200020 00200020 00200020     "( . . . . . . .
2000d32c:	08210020 d029e029 d829d029 d829d028      .!.).).).).(.).
2000d33c:	d829d029 d829d028 d829d029 d829d028     ).).(.).).).(.).
2000d34c:	d829d029 d829d028 d829d029 d829d028     ).).(.).).).(.).
2000d35c:	d829d029 0020a827 00200020 00200020     ).).'. . . . . .
2000d36c:	58240020 d829e029 d829d029 d829d028      .$X).).).).(.).
2000d37c:	d829d029 d829d028 d829d029 d829d028     ).).(.).).).(.).
2000d38c:	d829d029 d829d028 d829d029 d829d028     ).).(.).).).(.).
2000d39c:	d829d029 0020e029 00200020 00200020     ).).). . . . . .
2000d3ac:	00200020 90261821 00204823 00200020      . .!.&.#H . . .
2000d3bc:	00200020 00000020 00000000 00000000      . . ...........
	...
2000d40c:	00200020 00200020 00200820 e82a5824      . . . . . .$X*.
2000d41c:	a027f02a 00200020 00200020 00200020     *.'. . . . . . .
2000d42c:	a0270020 d029d829 d029d829 d029d829      .'.).).).).).).
2000d43c:	d029d829 d029d829 d029d829 d029d829     ).).).).).).).).
2000d44c:	d029d829 d029d829 d029d829 d029d829     ).).).).).).).).
2000d45c:	d029d829 0020e82a 00200020 00200020     ).).*. . . . . .
2000d46c:	a0270020 d029e029 d029d829 d029d829      .'.).).).).).).
2000d47c:	d029d829 d029d829 d029d829 d029d829     ).).).).).).).).
2000d48c:	d029d829 d029d829 d029d829 d029d829     ).).).).).).).).
2000d49c:	d029d829 7025e02a 00200020 00200020     ).).*.%p . . . .
2000d4ac:	08200020 d829f02a b027f02a 00200020      . .*.).*.'. . .
2000d4bc:	00200020 00200020 00000000 00000000      . . . .........
	...
2000d508:	00200000 00200020 00200020 a8270020     .. . . . . . .'.
2000d518:	d829e829 f02ad028 00203022 00200020     ).).(.*."0 . . .
2000d528:	00200020 f02a1821 d829d029 d829d028      . .!.*.).).(.).
2000d538:	d829d029 d829d028 d829d029 d829d028     ).).(.).).).(.).
2000d548:	d829d029 d829d028 d829d029 d829d028     ).).(.).).).(.).
2000d558:	d829d029 d029d028 2822e829 00200020     ).).(.).)."( . .
2000d568:	00200020 c8280020 d829d029 d829d028      . . .(.).).(.).
2000d578:	d829d029 d829d028 d829d029 d829d028     ).).(.).).).(.).
2000d588:	d829d029 d829d028 d829d029 d829d028     ).).(.).).).(.).
2000d598:	d829d029 d829d028 e02ad029 00200020     ).).(.).).*. . .
2000d5a8:	00200020 78250020 d829e029 e029d028      . . .%x).).(.).
2000d5b8:	1821d829 00200020 00200020 00000020     ).!. . . . . ...
	...
2000d608:	00200020 00200020 00200020 d829c829      . . . . . .).).
2000d618:	d029d829 d829d829 00209827 00200020     ).).).).'. . . .
2000d628:	00200020 e0298826 d029d829 d029d829      . .&.).).).).).
2000d638:	d029d829 d029d829 d029d829 d029d829     ).).).).).).).).
2000d648:	d029d829 d029d829 d029d829 d029d829     ).).).).).).).).
2000d658:	d029d829 d029d829 4823e82a 00200020     ).).).).*.#H . .
2000d668:	00200020 d0280020 d029d829 d029d829      . . .(.).).).).
2000d678:	d029d829 d029d829 d029d829 d029d829     ).).).).).).).).
2000d688:	d029d829 d029d829 d029d829 d029d829     ).).).).).).).).
2000d698:	d029d829 d029d829 e82ad829 00204823     ).).).).).*.#H .
2000d6a8:	00200020 b8280020 d029d829 d029d829      . . .(.).).).).
2000d6b8:	e82ad829 00201021 00200020 00200020     ).*.!. . . . . .
	...
2000d704:	00200000 00200020 00200020 b8280020     .. . . . . . .(.
2000d714:	d829d829 d829d028 d829d029 0020c028     ).).(.).).).(. .
2000d724:	00200020 00200020 d829d829 d829d028      . . . .).).(.).
2000d734:	d829d029 d829d028 d829d029 d829d028     ).).(.).).).(.).
2000d744:	d829d029 d829d028 d829d029 d829d028     ).).(.).).).(.).
2000d754:	d829d029 d829d028 d829d029 5023e029     ).).(.).).).).#P
2000d764:	00200020 00200020 d0290020 d829d028      . . . . .).(.).
2000d774:	d829d029 d829d028 d829d029 d829d028     ).).(.).).).(.).
2000d784:	d829d029 d829d028 d829d029 d829d028     ).).(.).).).(.).
2000d794:	d829d029 d829d028 d829d029 d829d028     ).).(.).).).(.).
2000d7a4:	00209826 00200020 e02a0020 d829d028     &. . . . .*.(.).
2000d7b4:	d829d029 d829d028 0020e029 00200020     ).).(.).). . . .
2000d7c4:	00200020 00000000 00000000 00000000      . .............
	...
2000d804:	00200000 00200020 00200020 e0298026     .. . . . . .&.).
2000d814:	d029d829 d029d829 d029d829 0020d829     ).).).).).).). .
2000d824:	00200020 28220020 d029f02a d029d829      . . ."(*.).).).
2000d834:	d029d829 d029d829 d029d829 d029d829     ).).).).).).).).
2000d844:	d029d829 d029d829 d029d829 d029d829     ).).).).).).).).
2000d854:	d029d829 d029d829 d029d829 5023e82a     ).).).).).).*.#P
2000d864:	00200020 00200020 c8290020 d029d829      . . . . .).).).
2000d874:	d029d829 d029d829 d029d829 d029d829     ).).).).).).).).
2000d884:	d029d829 d029d829 d029d829 d029d829     ).).).).).).).).
2000d894:	d029d829 d029d829 d029d829 d029d829     ).).).).).).).).
2000d8a4:	0020d829 00200020 e0291021 d029d829     ). . . .!.).).).
2000d8b4:	d029d829 d029d829 a827e029 00200020     ).).).).).'. . .
2000d8c4:	00200020 00000020 00000000 00000000      . . ...........
	...
2000d904:	00200000 00200020 18210020 d829f02a     .. . . . .!.*.).
2000d914:	d829d028 d829d029 d029d028 0821e029     (.).).).(.).).!.
2000d924:	00200020 60240020 d829e029 d829d029      . . .$`).).).).
2000d934:	d829d028 d829d029 d829d028 d829d029     (.).).).(.).).).
2000d944:	d829d028 d829d029 d829d028 d829d029     (.).).).(.).).).
2000d954:	d829d028 d829d029 d829d028 4823e829     (.).).).(.).).#H
2000d964:	00200020 00200020 b8280020 d829d029      . . . . .(.).).
2000d974:	d829d028 d829d029 d829d028 d829d029     (.).).).(.).).).
2000d984:	d829d028 d829d029 d829d028 d829d029     (.).).).(.).).).
2000d994:	d829d028 d829d029 d829d028 d829d029     (.).).).(.).).).
2000d9a4:	0821e029 00200020 e02a1020 d829d029     ).!. . . .*.).).
2000d9b4:	d829d028 d829d029 e82ad028 00203822     (.).).).(.*."8 .
2000d9c4:	00200020 00000020 00000000 00000000      . . ...........
	...
2000da04:	00200020 00200020 b0270020 d029d829      . . . . .'.).).
2000da14:	d029d829 d029d829 d029d829 0820e82a     ).).).).).).*. .
2000da24:	00200020 90260020 d029d829 d029d829      . . .&.).).).).
2000da34:	d029d829 d029d829 d029d829 d029d829     ).).).).).).).).
2000da44:	d029d829 d029d829 d029d829 d029d829     ).).).).).).).).
2000da54:	d029d829 d029d829 d029d829 2822e82a     ).).).).).).*."(
2000da64:	00200020 00200020 80250020 d029e02a      . . . . .%.*.).
2000da74:	d029d829 d029d829 d029d829 d029d829     ).).).).).).).).
2000da84:	d029d829 d029d829 d029d829 d029d829     ).).).).).).).).
2000da94:	d029d829 d029d829 d029d829 d029d829     ).).).).).).).).
2000daa4:	2021e82a 00200020 e0292022 d029d829     *.!  . ." ).).).
2000dab4:	d029d829 d029d829 d029d829 0020c829     ).).).).).).). .
2000dac4:	00200020 00200020 00000000 00000000      . . . .........
	...
2000db04:	00200020 00200020 e82a1821 d829d028      . . . .!.*.(.).
2000db14:	d829d029 d829d028 d829d029 0821e029     ).).(.).).).).!.
2000db24:	00200020 b0270020 d829d029 d829d028      . . .'.).).(.).
2000db34:	d829d029 d829d028 d829d029 d829d028     ).).(.).).).(.).
2000db44:	d829d029 d829d028 d829d029 d829d028     ).).(.).).).(.).
2000db54:	d829d029 d829d028 d829d029 0020e829     ).).(.).).).). .
2000db64:	00200020 00200020 40230020 d829e829      . . . . .#@).).
2000db74:	d829d029 d829d028 d829d029 d829d028     ).).(.).).).(.).
2000db84:	d829d029 d829d028 d829d029 d829d028     ).).(.).).).(.).
2000db94:	d829d029 d829d028 d829d029 d829d028     ).).(.).).).(.).
2000dba4:	3022e029 00200020 e82a1021 d829d028     )."0 . .!.*.(.).
2000dbb4:	d829d029 d829d028 d829d029 2022e829     ).).(.).).).)." 
2000dbc4:	00200020 00200020 00000000 00000000      . . . .........
	...
2000dc04:	00200020 00200020 e0297825 d029d829      . . . .%x).).).
2000dc14:	d029d829 d029d829 d029d829 0820e02a     ).).).).).).*. .
2000dc24:	00200020 b0270020 d029d829 d029d829      . . .'.).).).).
2000dc34:	d029d829 d029d829 d029d829 d029d829     ).).).).).).).).
2000dc44:	d029d829 d029d829 d029d829 d029d829     ).).).).).).).).
2000dc54:	d029d829 d029d829 d829d829 0020b828     ).).).).).).(. .
2000dc64:	00200020 00200020 00200020 d029e82a      . . . . . .*.).
2000dc74:	d029d829 d029d829 d029d829 d029d829     ).).).).).).).).
2000dc84:	d029d829 d029d829 d029d829 d029d829     ).).).).).).).).
2000dc94:	d029d829 d029d829 d029d829 d029d829     ).).).).).).).).
2000dca4:	2822e82a 00200020 e0291821 d029d829     *."( . .!.).).).
2000dcb4:	d029d829 d029d829 d029d829 7025e82a     ).).).).).).*.%p
2000dcc4:	00200020 00200020 00000020 00000000      . . . . .......
	...
2000dd00:	00200000 00200020 00200020 d829b827     .. . . . . .'.).
2000dd10:	d829d029 d829d028 d829d029 d829d028     ).).(.).).).(.).
2000dd20:	0020d829 00200020 b0270020 d829d028     ). . . . .'.(.).
2000dd30:	d829d029 d829d028 d829d029 d829d028     ).).(.).).).(.).
2000dd40:	d829d029 d829d028 d829d029 d829d028     ).).(.).).).(.).
2000dd50:	d829d029 d829d028 d829d029 e02ad028     ).).(.).).).(.*.
2000dd60:	00205824 00200020 00200020 00200020     $X . . . . . . .
2000dd70:	d829a027 d829d028 d829d029 d829d028     '.).(.).).).(.).
2000dd80:	d829d029 d829d028 d829d029 d829d028     ).).(.).).).(.).
2000dd90:	d829d029 d829d028 d829d029 d829d028     ).).(.).).).(.).
2000dda0:	d829d029 1821e029 00200020 e0290020     ).).).!. . . .).
2000ddb0:	d829d029 d829d028 d829d029 d829d028     ).).(.).).).(.).
2000ddc0:	c028d029 00200020 00200020 00000000     ).(. . . . .....
	...
2000de00:	00200000 00200020 00200020 d029e82a     .. . . . . .*.).
2000de10:	d029d829 d029d829 d029d829 d029d829     ).).).).).).).).
2000de20:	0020d029 00200020 88260020 d029e029     ). . . . .&.).).
2000de30:	d029d829 d029d829 d029d829 d029d829     ).).).).).).).).
2000de40:	d029d829 d029d829 d029d829 d029d829     ).).).).).).).).
2000de50:	d029d829 d029d829 d029d829 e029d829     ).).).).).).).).
2000de60:	00200821 00200020 00200020 00200020     !. . . . . . . .
2000de70:	e82a2022 d029d829 d029d829 d029d829     " *.).).).).).).
2000de80:	d029d829 d029d829 d029d829 d029d829     ).).).).).).).).
2000de90:	d029d829 d029d829 d029d829 d029d829     ).).).).).).).).
2000dea0:	d029d829 0020e02a 00200020 d8290020     ).).*. . . . .).
2000deb0:	d029d829 d029d829 d029d829 d029d829     ).).).).).).).).
2000dec0:	d829d829 00200020 00200020 00000020     ).). . . . . ...
	...
2000df00:	00200000 00200020 10210020 d829e829     .. . . . .!.).).
2000df10:	d829d028 d829d029 d829d028 d829d029     (.).).).(.).).).
2000df20:	0020b827 00200020 50240020 d829e029     '. . . . .$P).).
2000df30:	d829d028 d829d029 d829d028 d829d029     (.).).).(.).).).
2000df40:	d829d028 d829d029 d829d028 d829d029     (.).).).(.).).).
2000df50:	d829d028 d829d029 d829d028 8026d829     (.).).).(.).).&.
2000df60:	00200020 00200020 00200020 00200020      . . . . . . . .
2000df70:	a8270020 d829d829 d829d028 d829d029      .'.).).(.).).).
2000df80:	d829d028 d829d029 d829d028 d829d029     (.).).).(.).).).
2000df90:	d829d028 d829d029 d829d028 d829d029     (.).).).(.).).).
2000dfa0:	d829d028 0020a827 00200020 c8280020     (.).'. . . . .(.
2000dfb0:	d829d029 d829d029 d829d028 d829d029     ).).).).(.).).).
2000dfc0:	e029d028 00201021 00200020 00000020     (.).!. . . . ...
	...
2000e000:	00200000 00200020 20210020 d029e82a     .. . . . .! *.).
2000e010:	d029d829 d029d829 d029d829 d829d829     ).).).).).).).).
2000e020:	0020a027 00200020 18210020 d029e82a     '. . . . .!.*.).
2000e030:	d029d829 d029d829 d029d829 d029d829     ).).).).).).).).
2000e040:	d029d829 d029d829 d029d829 d029d829     ).).).).).).).).
2000e050:	d029d829 d029d829 d029d829 0020e82a     ).).).).).).*. .
2000e060:	00200020 00200020 00200020 00200020      . . . . . . . .
2000e070:	00200020 d029f02a d029d829 d029d829      . .*.).).).).).
2000e080:	d029d829 d029d829 d029d829 d029d829     ).).).).).).).).
2000e090:	d029d829 d029d829 d029d829 d029d829     ).).).).).).).).
2000e0a0:	e029d829 00205824 00200020 98260020     ).).$X . . . .&.
2000e0b0:	d029e029 d029d829 d029d829 d029d829     ).).).).).).).).
2000e0c0:	e029d829 00201822 00200020 00000020     ).).". . . . ...
	...
2000e100:	00200000 00200020 28220020 d829e829     .. . . . ."().).
2000e110:	d829d029 d829d028 d829d029 e029d028     ).).(.).).).(.).
2000e120:	00206824 00200020 00200020 d829c028     $h . . . . .(.).
2000e130:	d829d029 d829d028 d829d029 d829d028     ).).(.).).).(.).
2000e140:	d829d029 d829d028 d829d029 d829d028     ).).(.).).).(.).
2000e150:	d829d029 d829d028 f02ad029 00204823     ).).(.).).*.#H .
2000e160:	00200020 00200020 00200020 00200020      . . . . . . . .
2000e170:	00200020 f02a4823 d829d029 d829d028      . .#H*.).).(.).
2000e180:	d829d029 d829d028 d829d029 d829d028     ).).(.).).).(.).
2000e190:	d829d029 d829d028 d829d029 d829d028     ).).(.).).).(.).
2000e1a0:	e82ad028 00200020 00200020 70250020     (.*. . . . . .%p
2000e1b0:	d829e029 d829d028 d829d029 d829d028     ).).(.).).).(.).
2000e1c0:	e02ad029 00201821 00200020 00000020     ).*.!. . . . ...
	...
2000e200:	00200000 00200020 18210020 d029e82a     .. . . . .!.*.).
2000e210:	d029d829 d029d829 d029d829 e82ad829     ).).).).).).).*.
2000e220:	00204023 00200020 00200020 e82a4823     #@ . . . . .#H*.
2000e230:	d029d829 d029d829 d029d829 d029d829     ).).).).).).).).
2000e240:	d029d829 d029d829 d029d829 d029d829     ).).).).).).).).
2000e250:	d029d829 d029d829 9826e02a 00200020     ).).).).*.&. . .
2000e260:	00200020 00200020 00200020 00200020      . . . . . . . .
2000e270:	00200020 80250020 d029e82a d029d829      . . .%.*.).).).
2000e280:	d029d829 d029d829 d029d829 d029d829     ).).).).).).).).
2000e290:	d029d829 d029d829 d029d829 d029d829     ).).).).).).).).
2000e2a0:	6824e82a 00200020 00200020 40230020     *.$h . . . . .#@
2000e2b0:	d029e82a d029d829 d029d829 d029d829     *.).).).).).).).
2000e2c0:	e029d829 00201021 00200020 00000020     ).).!. . . . ...
	...
2000e300:	00200000 00200020 00200020 d829e82a     .. . . . . .*.).
2000e310:	d829d028 d829d029 d829d028 e02ad029     (.).).).(.).).*.
2000e320:	00201020 00200020 00200020 c0280020      . . . . . . .(.
2000e330:	d829d028 d829d029 d829d028 d829d029     (.).).).(.).).).
2000e340:	d829d028 d829d029 d829d028 d829d029     (.).).).(.).).).
2000e350:	d829d028 e029d029 0020b027 00200020     (.).).).'. . . .
2000e360:	00200020 00200020 00200020 00200020      . . . . . . . .
2000e370:	00200020 00200020 e82a8025 d829d029      . . . .%.*.).).
2000e380:	d829d028 d829d029 d829d028 d829d029     (.).).).(.).).).
2000e390:	d829d028 d829d029 d829d028 d829d029     (.).).).(.).).).
2000e3a0:	0020b828 00200020 00200020 10210020     (. . . . . . .!.
2000e3b0:	d829e829 d829d029 d829d028 d829d029     ).).).).(.).).).
2000e3c0:	d029d028 00200020 00200020 00000020     (.). . . . . ...
	...
2000e400:	00200000 00200020 00200020 d829d829     .. . . . . .).).
2000e410:	d029d829 d029d829 d029d829 d829d829     ).).).).).).).).
2000e420:	00200020 00200020 00200020 08210020      . . . . . . .!.
2000e430:	d029f02a d029d829 d029d829 d029d829     *.).).).).).).).
2000e440:	d029d829 d029d829 d029d829 d029d829     ).).).).).).).).
2000e450:	d029d829 b828e82a 00200020 00200020     ).).*.(. . . . .
2000e460:	00200020 00200020 00200020 00200020      . . . . . . . .
2000e470:	00200020 00200020 70250020 d029f02a      . . . . .%p*.).
2000e480:	d029d829 d029d829 d029d829 d029d829     ).).).).).).).).
2000e490:	d029d829 d029d829 d029d829 e02ad829     ).).).).).).).*.
2000e4a0:	00200020 00200020 00200020 00200020      . . . . . . . .
2000e4b0:	d029d029 d029d829 d029d829 d029d829     ).).).).).).).).
2000e4c0:	b027d829 00200020 00200020 00000020     ).'. . . . . ...
	...
2000e500:	00200000 00200020 00200020 d8299826     .. . . . . .&.).
2000e510:	d829d029 d829d028 d829d029 9026d829     ).).(.).).).).&.
2000e520:	00200020 00200020 00200020 00200020      . . . . . . . .
2000e530:	f02a2021 d829d028 d829d029 d829d028     ! *.(.).).).(.).
2000e540:	d829d029 d829d028 d829d029 d829d028     ).).(.).).).(.).
2000e550:	f02ad029 00208025 00200020 00200020     ).*.%. . . . . .
2000e560:	00200020 00200020 00200020 00200020      . . . . . . . .
2000e570:	00200020 00200020 00200020 d8292021      . . . . . .! ).
2000e580:	d829e029 d829d028 d829d029 d829d028     ).).(.).).).(.).
2000e590:	d829d029 d829d028 e02ad029 0020c028     ).).(.).).*.(. .
2000e5a0:	00200020 00200020 00200020 00200020      . . . . . . . .
2000e5b0:	d8299026 d829d028 d829d029 d829d028     &.).(.).).).(.).
2000e5c0:	6824e029 00200020 00200020 00000000     ).$h . . . .....
	...
2000e600:	00200000 00200020 00200020 e8295024     .. . . . . .$P).
2000e610:	d029d829 d029d829 d029d829 4023e82a     ).).).).).).*.#@
2000e620:	00200020 00200020 00200020 00200020      . . . . . . . .
2000e630:	18210020 e029d829 d029d829 d029d829      .!.).).).).).).
2000e640:	d029d829 d029d829 d029d829 e029d829     ).).).).).).).).
2000e650:	4023e02a 00200020 00200020 18210020     *.#@ . . . . .!.
2000e660:	90265024 c028b828 c028c029 7025a827     $P&.(.(.).(.'.%p
2000e670:	00203823 00200020 00200020 00200020     #8 . . . . . . .
2000e680:	d8296825 d829e82a d029d829 d029d829     %h).*.).).).).).
2000e690:	d029d829 e029d829 7825f02a 00200020     ).).).).*.%x . .
2000e6a0:	00200020 00200020 00200020 00200020      . . . . . . . .
2000e6b0:	e82a3823 d029d829 d029d829 d029d829     #8*.).).).).).).
2000e6c0:	1821f02a 00200020 00200020 00000020     *.!. . . . . ...
	...
2000e704:	00200020 00200020 e02a0020 d829d028      . . . . .*.(.).
2000e714:	d829d029 d829d028 0020e029 00200020     ).).(.).). . . .
2000e724:	00200020 00200020 00200020 00200020      . . . . . . . .
2000e734:	78250020 e82ae029 d029d829 d029d028      .%x).*.).).(.).
2000e744:	d829d029 e82ae029 6024d029 00200020     ).).).*.).$` . .
2000e754:	00200020 48230020 e82ac028 d829e029      . . .#H(.*.).).
2000e764:	d829d029 d029d028 e029d029 e029e829     ).).(.).).).).).
2000e774:	10218825 00200020 00200020 00200020     %.!. . . . . . .
2000e784:	98274023 e02ad829 e82ae029 e02ae029     #@'.).*.).*.).*.
2000e794:	6825c028 00200020 00200020 00200020     (.%h . . . . . .
2000e7a4:	00200020 00200020 00200020 d8290020      . . . . . . .).
2000e7b4:	d829d029 d829d028 d829d029 0020b827     ).).(.).).).'. .
2000e7c4:	00200020 00200020 00000000 00000000      . . . .........
	...
2000e804:	00200020 00200020 78250020 d029e82a      . . . . .%x*.).
2000e814:	d029d829 d829d829 0020a027 00200020     ).).).).'. . . .
2000e824:	00200020 00200020 00200020 00200020      . . . . . . . .
2000e834:	00200020 40230020 c0289827 c828d029      . . .#@'.(.).(.
2000e844:	b027c829 28227025 00200020 00200020     ).'.%p"( . . . .
2000e854:	28220020 e82ad829 d029d829 d029d829      ."().*.).).).).
2000e864:	d029d829 d029d829 d029d829 d029d829     ).).).).).).).).
2000e874:	f02ae02a 00208826 00200020 00200020     *.*.&. . . . . .
2000e884:	00200020 08200020 20222822 00202022      . . . ."(" "  .
2000e894:	00200020 00200020 00200020 00200020      . . . . . . . .
2000e8a4:	00200020 00200020 00200020 80250020      . . . . . . .%.
2000e8b4:	d029e02a d029d829 e82ad829 00203022     *.).).).).*."0 .
2000e8c4:	00200020 00200020 00000000 00000000      . . . .........
	...
2000e904:	00200000 00200020 00200020 d829e829     .. . . . . .).).
2000e914:	d829d028 f02ad029 00202021 00200020     (.).).*.!  . . .
2000e924:	00200020 00200020 00200020 00200020      . . . . . . . .
2000e934:	00200020 00200020 00200020 00200020      . . . . . . . .
2000e944:	00200020 00200020 00200020 00200020      . . . . . . . .
2000e954:	f02a7025 d829d029 d829d028 d829d029     %p*.).).(.).).).
2000e964:	d829d028 d829d029 d829d028 d829d029     (.).).).(.).).).
2000e974:	d029d028 d029e029 00200820 00200020     (.).).). . . . .
2000e984:	00200020 00200020 00200020 00200020      . . . . . . . .
2000e994:	00200020 00200020 00200020 00200020      . . . . . . . .
2000e9a4:	00200020 00200020 00200020 10210020      . . . . . . .!.
2000e9b4:	d029f02a d829d029 a027d829 00200020     *.).).).).'. . .
2000e9c4:	00200020 00000020 00000000 00000000      . . ...........
	...
2000ea04:	00200000 00200020 00200020 f02a3823     .. . . . . .#8*.
2000ea14:	d029d829 a027e02a 00200020 00200020     ).).*.'. . . . .
2000ea24:	00200020 00200020 00200020 00200020      . . . . . . . .
2000ea34:	00200020 00200020 00200020 00200020      . . . . . . . .
2000ea44:	00200020 00200020 00200020 98270020      . . . . . . .'.
2000ea54:	d029f02a d029d829 d029d829 d029d829     *.).).).).).).).
2000ea64:	d029d829 d029d829 d029d829 d029d829     ).).).).).).).).
2000ea74:	d029d829 d829d829 2021f02a 00200020     ).).).).*.!  . .
2000ea84:	00200020 00200020 00200020 00200020      . . . . . . . .
2000ea94:	00200020 00200020 00200020 00200020      . . . . . . . .
2000eaa4:	00200020 00200020 00200020 00200020      . . . . . . . .
2000eab4:	e0298026 d829d829 0020d829 00200020     &.).).).). . . .
2000eac4:	00200020 00000020 00000000 00000000      . . ...........
	...
2000eb08:	00200020 00200020 68240020 e02af02a      . . . . .$h*.*.
2000eb18:	0020e029 00200020 00200020 00200020     ). . . . . . . .
2000eb28:	00200020 00200020 00200020 00200020      . . . . . . . .
2000eb38:	00200020 00200020 00200020 00200020      . . . . . . . .
2000eb48:	00200020 00200020 e02a8025 d829d029      . . . .%.*.).).
2000eb58:	d829d028 d829d029 d829d028 d829d029     (.).).).(.).).).
2000eb68:	d829d028 d829d029 d829d028 d829d029     (.).).).(.).).).
2000eb78:	d829d028 e82ad029 00200020 00200020     (.).).*. . . . .
2000eb88:	00200020 00200020 00200020 00200020      . . . . . . . .
2000eb98:	00200020 00200020 00200020 88263822      . . . . . ."8&.
2000eba8:	b828b827 10217825 00200020 a8270020     '.(.%x!. . . .'.
2000ebb8:	e029f02a 00200820 00200020 00200020     *.). . . . . . .
	...
2000ec08:	00200020 00200020 00200020 80255024      . . . . . .$P%.
2000ec18:	00200821 00200020 00200020 00200020     !. . . . . . . .
2000ec28:	00200020 00200020 00200020 00200020      . . . . . . . .
2000ec38:	00200020 00200020 00200020 00200020      . . . . . . . .
2000ec48:	00200020 40230020 d029f02a d029d829      . . .#@*.).).).
2000ec58:	d029d829 d029d829 d029d829 d029d829     ).).).).).).).).
2000ec68:	d029d829 d029d829 d029d829 d029d829     ).).).).).).).).
2000ec78:	d029d829 d029d829 0020c829 00200020     ).).).).). . . .
2000ec88:	00200020 00200020 00200020 00200020      . . . . . . . .
2000ec98:	00200020 00200020 d0294823 d829e82a      . . . .#H).*.).
2000eca8:	d029d829 f02ae02a 00203823 00200020     ).).*.*.#8 . . .
2000ecb8:	00202822 00200020 00200020 00000020     "( . . . . . ...
	...
2000ed08:	00200000 00200020 00200020 00200020     .. . . . . . . .
2000ed18:	00200020 00200020 a0274823 a827a827      . . . .#H'.'.'.
2000ed28:	28226824 00200020 00200020 00200020     $h"( . . . . . .
2000ed38:	00200020 00200020 00200020 00200020      . . . . . . . .
2000ed48:	00200020 e02a0020 d829d029 d829d028      . . .*.).).(.).
2000ed58:	d829d029 d829d028 d829d029 d829d028     ).).(.).).).(.).
2000ed68:	d829d029 d829d028 d829d029 d829d028     ).).(.).).).(.).
2000ed78:	d829d029 d829d028 6024e029 00200020     ).).(.).).$` . .
2000ed88:	00200020 00200020 00200020 00200020      . . . . . . . .
2000ed98:	00200020 a8270020 d829e82a d829d028      . . .'.*.).(.).
2000eda8:	d829d029 d029d028 0020e029 00200020     ).).(.).). . . .
2000edb8:	00200020 00200020 00200020 00000020      . . . . . . ...
	...
2000ee0c:	00200020 00200020 00200020 00200020      . . . . . . . .
2000ee1c:	d8290820 d829e82a d029d829 e82ae02a      .).*.).).).*.*.
2000ee2c:	4823c829 00200020 00200020 00200020     ).#H . . . . . .
2000ee3c:	00200020 00200020 00200020 00200020      . . . . . . . .
2000ee4c:	e0296825 d029d829 d029d829 d029d829     %h).).).).).).).
2000ee5c:	d029d829 d029d829 d029d829 d029d829     ).).).).).).).).
2000ee6c:	d029d829 d029d829 d029d829 d029d829     ).).).).).).).).
2000ee7c:	d029d829 e029d829 00200020 00200020     ).).).). . . . .
2000ee8c:	00200020 00200020 00200020 20210020      . . . . . . .! 
2000ee9c:	d829e82a d029d829 d029d829 d029d829     *.).).).).).).).
2000eeac:	d029d829 6024e82a 00200020 00200020     ).).*.$` . . . .
2000eebc:	00200020 00200020 00000000 00000000      . . . .........
	...
2000ef0c:	00200020 00200020 00200020 00200020      . . . . . . . .
2000ef1c:	d829a827 d829d028 d829d029 d029d028     '.).(.).).).(.).
2000ef2c:	e82ad029 1821c828 00200020 00200020     ).*.(.!. . . . .
2000ef3c:	00200020 00200020 00200020 00200020      . . . . . . . .
2000ef4c:	d029c828 d829d028 d829d029 d829d028     (.).(.).).).(.).
2000ef5c:	d829d029 d829d028 d829d029 d829d028     ).).(.).).).(.).
2000ef6c:	d829d029 d829d028 d829d029 d829d028     ).).(.).).).(.).
2000ef7c:	d829d029 e82ad028 00204023 00200020     ).).(.*.#@ . . .
2000ef8c:	00200020 00200020 00200020 f02a4023      . . . . . .#@*.
2000ef9c:	d829d029 d829d028 d829d029 d829d028     ).).(.).).).(.).
2000efac:	d829d029 c828d028 00200020 00200020     ).).(.(. . . . .
2000efbc:	00200020 00200020 00000000 00000000      . . . .........
	...
2000f00c:	00200020 00200020 00200020 18210020      . . . . . . .!.
2000f01c:	d029f02a d029d829 d029d829 d029d829     *.).).).).).).).
2000f02c:	d029d829 e82ad829 00206825 00200020     ).).).*.%h . . .
2000f03c:	00200020 00200020 00200020 18210020      . . . . . . .!.
2000f04c:	d029f02a d029d829 d029d829 d029d829     *.).).).).).).).
2000f05c:	d029d829 d029d829 d029d829 d029d829     ).).).).).).).).
2000f06c:	d029d829 d029d829 d029d829 d029d829     ).).).).).).).).
2000f07c:	d029d829 d829d829 0020a027 00200020     ).).).).'. . . .
2000f08c:	00200020 00200020 50230020 d029f02a      . . . . .#P*.).
2000f09c:	d029d829 d029d829 d029d829 d029d829     ).).).).).).).).
2000f0ac:	d029d829 e82ad829 00200821 00200020     ).).).*.!. . . .
2000f0bc:	00200020 00000020 00000000 00000000      . . ...........
	...
2000f10c:	00200000 00200020 00200020 60240020     .. . . . . . .$`
2000f11c:	d829e029 d829d029 d829d028 d829d029     ).).).).(.).).).
2000f12c:	d829d028 d029d029 a827e829 00200020     (.).).).).'. . .
2000f13c:	00200020 00200020 00200020 50240020      . . . . . . .$P
2000f14c:	d829e029 d829d029 d829d028 d829d029     ).).).).(.).).).
2000f15c:	d829d028 d829d029 d829d028 d829d029     (.).).).(.).).).
2000f16c:	d829d028 d829d029 d829d028 d829d029     (.).).).(.).).).
2000f17c:	d829d028 d829d029 0020c828 00200020     (.).).).(. . . .
2000f18c:	00200020 00200020 f02a5023 d829d028      . . . .#P*.(.).
2000f19c:	d829d028 d829d029 d829d028 d829d029     (.).).).(.).).).
2000f1ac:	d829d028 e82ad029 00203822 00200020     (.).).*."8 . . .
2000f1bc:	00200020 00000020 00000000 00000000      . . ...........
	...
2000f20c:	00200000 00200020 00200020 90260020     .. . . . . . .&.
2000f21c:	d029d829 d029d829 d029d829 d029d829     ).).).).).).).).
2000f22c:	d029d829 d029d829 e029d829 0020c028     ).).).).).).(. .
2000f23c:	00200020 00200020 00200020 78250020      . . . . . . .%x
2000f24c:	d029e02a d029d829 d029d829 d029d829     *.).).).).).).).
2000f25c:	d029d829 d029d829 d029d829 d029d829     ).).).).).).).).
2000f26c:	d029d829 d029d829 d029d829 d029d829     ).).).).).).).).
2000f27c:	d029d829 d029d829 0820d829 00200020     ).).).).). . . .
2000f28c:	00200020 40230020 d029f02a d029d829      . . .#@*.).).).
2000f29c:	d029d829 d029d829 d029d829 d029d829     ).).).).).).).).
2000f2ac:	d029d829 e82ad829 00205824 00200020     ).).).*.$X . . .
2000f2bc:	00200020 00000020 00000000 00000000      . . ...........
	...
2000f30c:	00200000 00200020 00200020 a0270020     .. . . . . . .'.
2000f31c:	d829d829 d829d028 d829d029 d829d028     ).).(.).).).(.).
2000f32c:	d829d029 d829d028 d829d029 c028d829     ).).(.).).).).(.
2000f33c:	00200020 00200020 00200020 88260020      . . . . . . .&.
2000f34c:	d829d829 d829d028 d829d029 d829d028     ).).(.).).).(.).
2000f35c:	d829d029 d829d028 d829d029 d829d028     ).).(.).).).(.).
2000f36c:	d829d029 d829d028 d829d029 d829d028     ).).(.).).).(.).
2000f37c:	d829d029 d829d028 1021d829 00200020     ).).(.).).!. . .
2000f38c:	00200020 f02a1821 d829d028 d829d028      . .!.*.(.).(.).
2000f39c:	d829d029 d829d028 d829d029 d829d028     ).).(.).).).(.).
2000f3ac:	d829d029 e029d028 00207025 00200020     ).).(.).%p . . .
2000f3bc:	00200020 00000000 00000000 00000000      . .............
	...
2000f410:	00200020 00200020 a0270020 d029d829      . . . . .'.).).
2000f420:	d029d829 d029d829 d029d829 d029d829     ).).).).).).).).
2000f430:	d029d829 d029d829 e029d829 0020b028     ).).).).).).(. .
2000f440:	00200020 00200020 78250020 d029e02a      . . . . .%x*.).
2000f450:	d029d829 d029d829 d029d829 d029d829     ).).).).).).).).
2000f460:	d029d829 d029d829 d029d829 d029d829     ).).).).).).).).
2000f470:	d029d829 d029d829 d029d829 d029d829     ).).).).).).).).
2000f480:	d029d829 0820e02a 00200020 00200820     ).).*. . . . . .
2000f490:	d029d82a d029d829 d029d829 d029d829     *.).).).).).).).
2000f4a0:	d029d829 d029d829 d029d829 d029d829     ).).).).).).).).
2000f4b0:	e029d829 00208826 00200020 00200020     ).).&. . . . . .
	...
2000f510:	00200020 00200020 a0270020 d829d829      . . . . .'.).).
2000f520:	d829d029 d829d028 d829d029 d829d028     ).).(.).).).(.).
2000f530:	d829d029 d829d028 d829d029 7025e029     ).).(.).).).).%p
2000f540:	00200020 00200020 60240020 d829e029      . . . . .$`).).
2000f550:	d829d029 d829d028 d829d029 d829d028     ).).(.).).).(.).
2000f560:	d829d029 d829d028 d829d029 d829d028     ).).(.).).).(.).
2000f570:	d829d029 d829d028 d829d029 d829d028     ).).(.).).).(.).
2000f580:	d829d029 0020d028 00200020 88260020     ).).(. . . . .&.
2000f590:	d829d829 d829d028 d829d029 d829d028     ).).(.).).).(.).
2000f5a0:	d829d029 d829d028 d829d029 d829d028     ).).(.).).).(.).
2000f5b0:	e02ad029 00208025 00200020 00200020     ).*.%. . . . . .
	...
2000f610:	00200020 00200020 78250020 d029e02a      . . . . .%x*.).
2000f620:	d029d829 d029d829 d029d829 d029d829     ).).).).).).).).
2000f630:	d029d829 d029d829 d029d829 f02ad829     ).).).).).).).*.
2000f640:	00202022 00200020 28220020 d029f02a     "  . . . ."(*.).
2000f650:	d029d829 d029d829 d029d829 d029d829     ).).).).).).).).
2000f660:	d029d829 d029d829 d029d829 d029d829     ).).).).).).).).
2000f670:	d029d829 d029d829 d029d829 d029d829     ).).).).).).).).
2000f680:	d829d829 0020b828 00200020 f02a2022     ).).(. . . ." *.
2000f690:	d029d829 d029d829 d029d829 d029d829     ).).).).).).).).
2000f6a0:	d029d829 d029d829 d029d829 d029d829     ).).).).).).).).
2000f6b0:	e029d829 00207025 00200020 00000020     ).).%p . . . ...
	...
2000f710:	00200000 00200020 48230020 d829e029     .. . . . .#H).).
2000f720:	d829d028 d829d029 d829d028 d829d029     (.).).).(.).).).
2000f730:	d829d028 d829d029 d829d028 d829d029     (.).).).(.).).).
2000f740:	0020b027 00200020 00200020 d029d829     '. . . . . .).).
2000f750:	d829d028 d829d029 d829d028 d829d029     (.).).).(.).).).
2000f760:	d829d028 d829d029 d829d028 d829d029     (.).).).(.).).).
2000f770:	d829d028 d829d029 d829d028 d829d029     (.).).).(.).).).
2000f780:	e82ad028 00206024 00200020 d829a027     (.*.$` . . .'.).
2000f790:	d829d028 d829d029 d829d028 d829d029     (.).).).(.).).).
2000f7a0:	d829d028 d829d029 d829d028 d829d029     (.).).).(.).).).
2000f7b0:	e82ad028 00205023 00200020 00000020     (.*.#P . . . ...
	...
2000f810:	00200000 00200020 10210020 d029e82a     .. . . . .!.*.).
2000f820:	d029d829 d029d829 d029d829 d029d829     ).).).).).).).).
2000f830:	d029d829 d029d829 d029d829 d029d829     ).).).).).).).).
2000f840:	3022f02a 00200020 00200020 d8299026     *."0 . . . .&.).
2000f850:	d029d829 d029d829 d029d829 d029d829     ).).).).).).).).
2000f860:	d029d829 d029d829 d029d829 d029d829     ).).).).).).).).
2000f870:	d029d829 d029d829 d029d829 d029d829     ).).).).).).).).
2000f880:	e82ad829 00201021 18210020 d029f02a     ).*.!. . .!.*.).
2000f890:	d029d829 d029d829 d029d829 d029d829     ).).).).).).).).
2000f8a0:	d029d829 d029d829 d029d829 d029d829     ).).).).).).).).
2000f8b0:	e82ad829 00203022 00200020 00000020     ).*."0 . . . ...
	...
2000f910:	00200000 00200020 00200020 d029c828     .. . . . . .(.).
2000f920:	d829d029 d829d028 d829d029 d829d028     ).).(.).).).(.).
2000f930:	d829d029 d829d028 d829d029 d829d028     ).).(.).).).(.).
2000f940:	b028d029 00200020 00200020 f02a1020     ).(. . . . . .*.
2000f950:	d829d029 d829d028 d829d029 d829d028     ).).(.).).).(.).
2000f960:	d829d029 d829d028 d829d029 d829d028     ).).(.).).).(.).
2000f970:	d829d029 d829d028 d829d029 d829d028     ).).(.).).).(.).
2000f980:	9827d829 00200020 88260020 d829d829     ).'. . . .&.).).
2000f990:	d829d029 d829d028 d829d029 d829d028     ).).(.).).).(.).
2000f9a0:	d829d029 d829d028 d829d029 d829d028     ).).(.).).).(.).
2000f9b0:	e82ad029 00200020 00200020 00000020     ).*. . . . . ...
	...
2000fa10:	00200000 00200020 00200020 e0297025     .. . . . . .%p).
2000fa20:	d029d829 d029d829 d029d829 d029d829     ).).).).).).).).
2000fa30:	d029d829 d029d829 d029d829 d029d829     ).).).).).).).).
2000fa40:	e82ad829 00201021 00200020 80250020     ).*.!. . . . .%.
2000fa50:	d029e82a d029d829 d029d829 d029d829     *.).).).).).).).
2000fa60:	d029d829 d029d829 d029d829 d029d829     ).).).).).).).).
2000fa70:	d029d829 d029d829 d029d829 d029d829     ).).).).).).).).
2000fa80:	0820e82a 00200020 d8290020 d029d829     *. . . . .).).).
2000fa90:	d029d829 d029d829 d029d829 d029d829     ).).).).).).).).
2000faa0:	d029d829 d029d829 d029d829 d029d829     ).).).).).).).).
2000fab0:	a827d829 00200020 00200020 00000020     ).'. . . . . ...
	...
2000fb14:	00200020 00200020 e82a0820 d829d028      . . . . .*.(.).
2000fb24:	d829d029 d829d028 d829d029 d829d028     ).).(.).).).(.).
2000fb34:	d829d029 d829d028 d829d029 e029d028     ).).(.).).).(.).
2000fb44:	00206024 00200020 00200020 d829c828     $` . . . . .(.).
2000fb54:	d829d029 d829d028 d829d029 d829d028     ).).(.).).).(.).
2000fb64:	d829d029 d829d028 d829d029 d829d028     ).).(.).).).(.).
2000fb74:	d829d029 d829d028 f02ad028 00204022     ).).(.).(.*."@ .
2000fb84:	00200020 e82a2821 d829d029 d829d028      . .!(*.).).(.).
2000fb94:	d829d029 d829d028 d829d029 d829d028     ).).(.).).).(.).
2000fba4:	d829d029 d829d028 d829d029 4023e829     ).).(.).).).).#@
2000fbb4:	00200020 00200020 00000000 00000000      . . . .........
	...
2000fc14:	00200020 00200020 a0270020 d029e029      . . . . .'.).).
2000fc24:	d029d829 d029d829 d029d829 d029d829     ).).).).).).).).
2000fc34:	d029d829 d029d829 d029d829 d829d829     ).).).).).).).).
2000fc44:	0020a828 00200020 00200020 d8290020     (. . . . . . .).
2000fc54:	d029e02a d029d829 d029d829 d029d829     *.).).).).).).).
2000fc64:	d029d829 d029d829 d029d829 d029d829     ).).).).).).).).
2000fc74:	d029d829 d029d829 6825f82a 00200020     ).).).).*.%h . .
2000fc84:	00200020 d8297825 d029d829 d029d829      . .%x).).).).).
2000fc94:	d029d829 d029d829 d029d829 d029d829     ).).).).).).).).
2000fca4:	d029d829 d029d829 d029d829 0020d029     ).).).).).).). .
2000fcb4:	00200020 00200020 00000000 00000000      . . . .........
	...
2000fd14:	00200000 00200020 10210020 d029e82a     .. . . . .!.*.).
2000fd24:	d829d028 d829d029 d829d028 d829d029     (.).).).(.).).).
2000fd34:	d829d028 d829d029 d829d028 d829d029     (.).).).(.).).).
2000fd44:	0020d829 00200020 00200020 00200020     ). . . . . . . .
2000fd54:	e029c828 d829d029 d829d028 d829d029     (.).).).(.).).).
2000fd64:	d829d028 d829d029 d829d028 d829d029     (.).).).(.).).).
2000fd74:	d829d028 f02ad029 00205824 00200020     (.).).*.$X . . .
2000fd84:	00200020 d829b027 d829d028 d829d029      . .'.).(.).).).
2000fd94:	d829d028 d829d029 d829d028 d829d029     (.).).).(.).).).
2000fda4:	d829d028 d829d029 f02ad028 00202821     (.).).).(.*.!( .
2000fdb4:	00200020 00000020 00000000 00000000      . . ...........
	...
2000fe14:	00200000 00200020 00200020 e82a7025     .. . . . . .%p*.
2000fe24:	d029d829 d029d829 d029d829 d029d829     ).).).).).).).).
2000fe34:	d029d829 d029d829 d029d829 d029d829     ).).).).).).).).
2000fe44:	1020e82a 00200020 00200020 00200020     *. . . . . . . .
2000fe54:	80260020 d829f82b d029d829 d029d829      .&.+.).).).).).
2000fe64:	d029d829 d029d829 d029d829 d029d829     ).).).).).).).).
2000fe74:	e029d829 2022e02a 00200020 00200020     ).).*."  . . . .
2000fe84:	00200020 d829d829 d029d829 d029d829      . .).).).).).).
2000fe94:	d029d829 d029d829 d029d829 d029d829     ).).).).).).).).
2000fea4:	d029d829 d029d829 7825e82a 00200020     ).).).).*.%x . .
2000feb4:	00200020 00000020 00000000 00000000      . . ...........
	...
2000ff18:	00200020 00200020 a8270020 d829e029      . . . . .'.).).
2000ff28:	d829d028 d829d029 d829d028 d829d029     (.).).).(.).).).
2000ff38:	d829d028 d829d029 d829d028 2822e029     (.).).).(.).)."(
2000ff48:	00200020 00200020 00200020 00200020      . . . . . . . .
2000ff58:	a8271821 e02ae829 d029d028 d829d029     !.'.).*.(.).).).
2000ff68:	d829d028 d829d029 e82ad829 6024d829     (.).).).).*.).$`
2000ff78:	00200020 00200020 00200020 00200020      . . . . . . . .
2000ff88:	d029e029 d829d029 d829d028 d829d029     ).).).).(.).).).
2000ff98:	d829d028 d829d029 d829d028 d829d029     (.).).).(.).).).
2000ffa8:	d829d028 0020b027 00200020 00200020     (.).'. . . . . .
	...
20010018:	00200020 00200020 00200020 e029c029      . . . . . .).).
20010028:	d029d829 d029d829 d029d829 d029d829     ).).).).).).).).
20010038:	d029d829 d029d829 d029d829 2022e82a     ).).).).).).*." 
20010048:	00200020 00200020 00200020 00200020      . . . . . . . .
20010058:	00200020 60241821 d029b028 e82ae82a      . .!.$`(.).*.*.
20010068:	e82af02a c828e02a 38229026 00200020     *.*.*.(.&."8 . .
20010078:	00200020 00200020 00200020 00200020      . . . . . . . .
20010088:	d029e82a d029d829 d029d829 d029d829     *.).).).).).).).
20010098:	d029d829 d029d829 d029d829 d029d829     ).).).).).).).).
200100a8:	c828e029 00200020 00200020 00200020     ).(. . . . . . .
	...
20010118:	00200000 00200020 00200020 b0280020     .. . . . . . .(.
20010128:	d029e029 d829d028 d829d029 d829d028     ).).(.).).).(.).
20010138:	d829d029 d829d028 d829d029 1021e029     ).).(.).).).).!.
20010148:	00200020 00200020 00200020 00200020      . . . . . . . .
20010158:	00200020 00200020 00200020 18210020      . . . . . . .!.
20010168:	10211821 00200020 00200020 00200020     !.!. . . . . . .
20010178:	00200020 00200020 00200020 00200020      . . . . . . . .
20010188:	d829e029 d829d028 d829d029 d829d028     ).).(.).).).(.).
20010198:	d829d029 d829d028 d829d029 e029d028     ).).(.).).).(.).
200101a8:	0020c828 00200020 00200020 00000020     (. . . . . . ...
	...
2001021c:	00200020 00200020 00200020 f02a8826      . . . . . .&.*.
2001022c:	d029d829 d029d829 d029d829 d029d829     ).).).).).).).).
2001023c:	d029d829 d029d829 0020e029 00200020     ).).).).). . . .
2001024c:	00200020 00200020 00200020 00200020      . . . . . . . .
2001025c:	00200020 00200020 00200020 00200020      . . . . . . . .
2001026c:	00200020 00200020 00200020 00200020      . . . . . . . .
2001027c:	00200020 00200020 00200020 d829c028      . . . . . .(.).
2001028c:	d029d829 d029d829 d029d829 d029d829     ).).).).).).).).
2001029c:	d029d829 d029d829 a027e82a 00200020     ).).).).*.'. . .
200102ac:	00200020 00200020 00000000 00000000      . . . .........
	...
2001031c:	00200000 00200020 00200020 30220020     .. . . . . . ."0
2001032c:	e82ad029 d829d028 d829d029 d829d028     ).*.(.).).).(.).
2001033c:	d829d029 e82ad028 00207825 00200020     ).).(.*.%x . . .
2001034c:	00200020 00200020 00200020 00200020      . . . . . . . .
2001035c:	00200020 00200020 00200020 00200020      . . . . . . . .
2001036c:	00200020 00200020 00200020 00200020      . . . . . . . .
2001037c:	00200020 00200020 00200020 e82a6824      . . . . . .$h*.
2001038c:	d829d029 d829d028 d829d029 d829d028     ).).(.).).).(.).
2001039c:	d829d029 f02ad829 00205824 00200020     ).).).*.$X . . .
200103ac:	00200020 00000020 00000000 00000000      . . ...........
	...
20010420:	00200020 00200020 00200020 50230020      . . . . . . .#P
20010430:	e82ac829 d829e02a d029d829 d829d829     ).*.*.).).).).).
20010440:	b828e82a 00200020 00200020 00200020     *.(. . . . . . .
20010450:	00200020 00200020 00200020 00200020      . . . . . . . .
20010460:	00200020 00200020 00200020 00200020      . . . . . . . .
20010470:	00200020 00200020 00200020 00200020      . . . . . . . .
20010480:	00200020 00200020 c8280020 d029e02a      . . . . .(.*.).
20010490:	d029d829 d029d829 d029d829 e82ae82a     ).).).).).).*.*.
200104a0:	00209026 00200020 00200020 00200020     &. . . . . . . .
	...
20010520:	00200000 00200020 00200020 00200020     .. . . . . . . .
20010530:	28220020 a8276824 c829b828 a027b827      ."($h'.(.).'.'.
20010540:	00204022 00200020 00200020 00200020     "@ . . . . . . .
20010550:	00200020 00200020 00200020 38231021      . . . . . .!.#8
20010560:	88265823 a8279826 b828a827 a027a827     #X&.&.'.'.(.'.'.
20010570:	60248026 18213822 00200020 00200020     &.$`"8!. . . . .
20010580:	00200020 00200020 00200020 d0297024      . . . . . .$p).
20010590:	e82ae82a f02ae829 b828e029 08215824     *.*.).*.).(.$X!.
200105a0:	00200020 00200020 00200020 00000020      . . . . . . ...
	...
20010624:	00200020 00200020 00200020 00200020      . . . . . . . .
20010634:	00200020 00200020 00200020 00200020      . . . . . . . .
20010644:	00200020 00200020 00200020 00200020      . . . . . . . .
20010654:	48230820 d829a027 e82ae82a d829e82a      .#H'.).*.*.*.).
20010664:	d029d829 d029d829 d829d829 e029e02a     ).).).).).).*.).
20010674:	e029e82a 9026e02a 00204023 00200020     *.).*.&.#@ . . .
20010684:	00200020 00200020 00200020 20210821      . . . . . .!.! 
20010694:	10212822 00200020 00200020 00200020     "(!. . . . . . .
200106a4:	00200020 00000020 00000000 00000000      . . ...........
	...
20010728:	00200020 00200020 00200020 00200020      . . . . . . . .
20010738:	00200020 00200020 00200020 00200020      . . . . . . . .
20010748:	00200020 00200020 98261821 e82ae829      . . . .!.&.).*.
20010758:	d829d829 d829d029 d829d028 d829d029     ).).).).(.).).).
20010768:	d829d028 d829d029 d829d028 d829d029     (.).).).(.).).).
20010778:	d829d028 d829e829 00206024 00200020     (.).).).$` . . .
20010788:	00200020 00200020 00200020 00200020      . . . . . . . .
20010798:	00200020 00200020 00200020 00200020      . . . . . . . .
	...
2001082c:	00200020 00200020 00200020 00200020      . . . . . . . .
2001083c:	00200020 00200020 00200020 00200020      . . . . . . . .
2001084c:	80260020 d829f02a d029d829 d029d829      .&.*.).).).).).
2001085c:	d029d829 d029d829 d029d829 d029d829     ).).).).).).).).
2001086c:	d029d829 d029d829 d029d829 d029d829     ).).).).).).).).
2001087c:	d029d829 c028e82a 00200020 00200020     ).).*.(. . . . .
2001088c:	00200020 00200020 00200020 00200020      . . . . . . . .
2001089c:	00200020 00200020 00000000 00000000      . . . .........
	...
20010930:	00200020 00200020 00200020 00200020      . . . . . . . .
20010940:	00200020 00200020 00200020 e82aa027      . . . . . .'.*.
20010950:	d829d029 d829d028 d829d029 d829d028     ).).(.).).).(.).
20010960:	d829d029 d829d028 d829d029 d829d028     ).).(.).).).(.).
20010970:	d829d029 d829d028 d829d029 d829d028     ).).(.).).).(.).
20010980:	e82ad029 00208025 00200020 00200020     ).*.%. . . . . .
20010990:	00200020 00200020 00200020 00200020      . . . . . . . .
	...
20010a30:	00200000 00200020 00200020 00200020     .. . . . . . . .
20010a40:	00200020 00200020 18210020 d029f02a      . . . . .!.*.).
20010a50:	d029d829 d029d829 d029d829 d029d829     ).).).).).).).).
20010a60:	d029d829 d029d829 d029d829 d029d829     ).).).).).).).).
20010a70:	d029d829 d029d829 d029d829 d029d829     ).).).).).).).).
20010a80:	e029d829 00209827 00200020 00200020     ).).'. . . . . .
20010a90:	00200020 00200020 00200020 00000020      . . . . . . ...
	...
20010b34:	00200000 00200020 00200020 00200020     .. . . . . . . .
20010b44:	00200020 00200020 d029e029 d829d028      . . . .).).(.).
20010b54:	d829d029 d829d028 d829d029 d829d028     ).).(.).).).(.).
20010b64:	d829d029 d829d028 d829d029 d829d028     ).).(.).).).(.).
20010b74:	d829d029 d829d028 d829d029 f02ad028     ).).(.).).).(.*.
20010b84:	00202021 00200020 00200020 00200020     !  . . . . . . .
20010b94:	00200020 00000020 00000000 00000000      . . ...........
	...
20010c38:	00200020 00200020 00200020 00200020      . . . . . . . .
20010c48:	00200020 f02a5824 d029d829 d029d829      . .$X*.).).).).
20010c58:	d029d829 d029d829 d029d829 d029d829     ).).).).).).).).
20010c68:	d029d829 d029d829 d029d829 d029d829     ).).).).).).).).
20010c78:	d029d829 d029d829 7825e82a 00200020     ).).).).*.%x . .
20010c88:	00200020 00200020 00200020 00200020      . . . . . . . .
	...
20010d3c:	00200020 00200020 00200020 00200020      . . . . . . . .
20010d4c:	78250020 d029e82a d829d028 d829d029      .%x*.).(.).).).
20010d5c:	d829d028 d829d029 d829d028 d829d029     (.).).).(.).).).
20010d6c:	d829d028 d829d029 d829d028 d829d029     (.).).).(.).).).
20010d7c:	e82ad028 00209026 00200020 00200020     (.*.&. . . . . .
20010d8c:	00200020 00200020 00000000 00000000      . . . .........
	...
20010e40:	00200020 00200020 00200020 00200020      . . . . . . . .
20010e50:	f02a6825 d029d829 d029d829 d029d829     %h*.).).).).).).
20010e60:	d029d829 d029d829 d029d829 d029d829     ).).).).).).).).
20010e70:	d029d829 d029d829 d029d829 7825f02a     ).).).).).).*.%x
20010e80:	00200020 00200020 00200020 00200020      . . . . . . . .
	...
20010f44:	00200000 00200020 00200020 28220020     .. . . . . . ."(
20010f54:	e82ad829 d829d028 d829d029 d829d028     ).*.(.).).).(.).
20010f64:	d829d029 d829d028 d829d029 d829d028     ).).(.).).).(.).
20010f74:	d829d029 e82ad829 00204022 00200020     ).).).*."@ . . .
20010f84:	00200020 00200020 00000000 00000000      . . . .........
	...
20011048:	00200020 00200020 00200020 70250020      . . . . . . .%p
20011058:	e029e82a d029d829 d029d829 d029d829     *.).).).).).).).
20011068:	d029d829 d029d829 d029d829 e82ae02a     ).).).).).).*.*.
20011078:	00209026 00200020 00200020 00200020     &. . . . . . . .
	...
20011148:	00200000 00200020 00200020 00200020     .. . . . . . . .
20011158:	78250020 e82ad829 d829e029 d829d028      .%x).*.).).(.).
20011168:	d829d029 e029d829 e02ae829 10218825     ).).).).).*.%.!.
20011178:	00200020 00200020 00200020 00000000      . . . . . .....
	...
2001124c:	00200020 00200020 00200020 00200820      . . . . . . . .
2001125c:	30220020 a8277025 d829d029 d029d829      ."0%p'.).).).).
2001126c:	7825b028 00203823 00200020 00200020     (.%x#8 . . . . .
2001127c:	00200020 00000020 00000000 00000000      . . ...........
	...
20011350:	00200020 00200020 00200020 00200020      . . . . . . . .
20011360:	00200020 00200020 00200020 00200020      . . . . . . . .
20011370:	00200020 00200020 00200020 00200020      . . . . . . . .
	...
20011454:	00200020 00200020 00200020 00200020      . . . . . . . .
20011464:	00200020 00200020 00200020 00200020      . . . . . . . .
20011474:	00200020 00200020 00000020 00000000      . . . . .......
	...
20011558:	00200020 00200020 00200020 00200020      . . . . . . . .
20011568:	00200020 00200020 00200020 00200020      . . . . . . . .
	...
2001165c:	00200020 00200020 00200020 00200020      . . . . . . . .
2001166c:	00200020 00000020 00000000 00000000      . . ...........
	...
200116e8:	0022005d 001e0061 001a0064 00180067     ].".a...d...g...
200116f8:	0015006a 0013006c 0012006d 0012006d     j...l...m...m...
20011708:	0012006d 0012006d 0012006d 0012006d     m...m...m...m...
20011718:	0012006d 0012006d 8012006d 8013006c     m...m...m...l...
20011728:	8012006c 8013006c 8013006c 8014006b     l...l...l...k...
20011738:	8014006b 8014006b 8014006a 8015006a     k...k...j...j...
20011748:	80160069 80160069 80170068 80170068     i...i...h...h...
20011758:	80180066 801a0065 801a0065 801b0064     f...e...e...d...
20011768:	801c0063 801e0061 801e0060 801f005f     c...a...`..._...
20011778:	8022005d 8021005e 801f0060 801e0061     ].".^.!.`...a...
20011788:	801d0062 801c0063 801b0064 801a0065     b...c...d...e...
20011798:	80190065 80190066 80180066 80180067     e...f...f...g...
200117a8:	80180067 80170067 80170068 80170068     g...g...h...h...
200117b8:	80170068 80170068 80170068 80170068     h...h...h...h...
200117c8:	80170068 80160069 8015006a 8014006b     h...i...j...k...
200117d8:	8013006c 8012006d 8011006e 8010006f     l...m...n...o...
200117e8:	8010006f 800f0070 800f0070 800e0071     o...p...p...q...
200117f8:	800e0071 800e0071 800d0071 800d0072     q...q...q...r...
20011808:	800d0072 800d0072 800d0072 800d0072     r...r...r...r...
20011818:	800d0072 800d0072 800d0071 800e0071     r...r...q...q...
20011828:	800e0071 800e0071 800f0070 800f0070     q...q...p...p...
20011838:	8010006f 8011006e 8011006d 8012006d     o...n...m...m...
20011848:	8012006c 8013006c 8013006c 8013006c     l...l...l...l...
20011858:	8014006b 8014006b 8014006b 8015006a     k...k...k...j...
20011868:	8015006a 8015006a 8015006a 80160069     j...j...j...i...
20011878:	80160069 80160069 80170068 80170068     i...i...h...h...
20011888:	80180067 80190066 80190066 801a0065     g...f...f...e...
20011898:	801b0064 801c0063 801d0062 801f0060     d...c...b...`...
200118a8:	8020005f 8023005c 8024005b 80250059     _. .\.#.[.$.Y.%.
200118b8:	80270058 80290056 802a0054 802c0052     X.'.V.).T.*.R.,.
200118c8:	802f0050 8030004e 8032004d 8033004c     P./.N.0.M.2.L.3.
200118d8:	8034004b 80360049 80380047 803c0043     K.4.I.6.G.8.C.<.

200118e8 <striped_spin_lock_num>:
200118e8:	00000010                                ....

200118ec <irq_handler_chain_slots>:
200118ec:	00000000 	.word	0x00000000
200118f0:	00010000 	.word	0x00010000
	...
200118fc:	00020000 	.word	0x00020000
	...
20011908:	00030000 	.word	0x00030000
	...
20011914:	00ff0000 	.word	0x00ff0000
20011918:	00000000 	.word	0x00000000

2001191c <irq_handler_chain_first_slot>:
2001191c:	b500      	push	{lr}
2001191e:	6848      	ldr	r0, [r1, #4]
20011920:	3101      	adds	r1, #1
20011922:	468e      	mov	lr, r1
20011924:	4700      	bx	r0

20011926 <irq_handler_chain_remove_tail>:
20011926:	4670      	mov	r0, lr
20011928:	3809      	subs	r0, #9
2001192a:	4901      	ldr	r1, [pc, #4]	; (20011930 <irq_handler_chain_remove_tail+0xa>)
2001192c:	4788      	blx	r1
2001192e:	bd00      	pop	{pc}
20011930:	10000c09 	.word	0x10000c09

20011934 <default_alarm_pool>:
20011934:	2001194c 00000000 200121f8 20012388     L.. .....!. .#. 
	...

2001194c <default_alarm_pool_heap>:
2001194c:	20012398 00000000 00000000 00000010     .#. ............
2001195c:	00000000                                ....

20011960 <aeabi_bits_funcs>:
20011960:	00003350 	.word	0x00003350
20011964:	0000334c 	.word	0x0000334c
20011968:	00003354 	.word	0x00003354
2001196c:	00003352 	.word	0x00003352

20011970 <aeabi_bits_funcs_end>:
20011970:	0000534d 	.word	0x0000534d
20011974:	0000434d 	.word	0x0000434d
20011978:	00003453 	.word	0x00003453
2001197c:	00003443 	.word	0x00003443

20011980 <stdio_uart>:
20011980:	10002c25 00000000 10002c71 00000000     %,......q,......
20011990:	00000100                                ....

20011994 <_impure_ptr>:
20011994:	20011998                                ... 

20011998 <impure_data>:
20011998:	00000000 20011c84 20011cec 20011d54     ....... ... T.. 
	...
20011a40:	00000001 00000000 abcd330e e66d1234     .........3..4.m.
20011a50:	0005deec 0000000b 00000000 00000000     ................
	...

20011dc0 <__malloc_av_>:
	...
20011dc8:	20011dc0 20011dc0 20011dc8 20011dc8     ... ... ... ... 
20011dd8:	20011dd0 20011dd0 20011dd8 20011dd8     ... ... ... ... 
20011de8:	20011de0 20011de0 20011de8 20011de8     ... ... ... ... 
20011df8:	20011df0 20011df0 20011df8 20011df8     ... ... ... ... 
20011e08:	20011e00 20011e00 20011e08 20011e08     ... ... ... ... 
20011e18:	20011e10 20011e10 20011e18 20011e18     ... ... ... ... 
20011e28:	20011e20 20011e20 20011e28 20011e28      ..  .. (.. (.. 
20011e38:	20011e30 20011e30 20011e38 20011e38     0.. 0.. 8.. 8.. 
20011e48:	20011e40 20011e40 20011e48 20011e48     @.. @.. H.. H.. 
20011e58:	20011e50 20011e50 20011e58 20011e58     P.. P.. X.. X.. 
20011e68:	20011e60 20011e60 20011e68 20011e68     `.. `.. h.. h.. 
20011e78:	20011e70 20011e70 20011e78 20011e78     p.. p.. x.. x.. 
20011e88:	20011e80 20011e80 20011e88 20011e88     ... ... ... ... 
20011e98:	20011e90 20011e90 20011e98 20011e98     ... ... ... ... 
20011ea8:	20011ea0 20011ea0 20011ea8 20011ea8     ... ... ... ... 
20011eb8:	20011eb0 20011eb0 20011eb8 20011eb8     ... ... ... ... 
20011ec8:	20011ec0 20011ec0 20011ec8 20011ec8     ... ... ... ... 
20011ed8:	20011ed0 20011ed0 20011ed8 20011ed8     ... ... ... ... 
20011ee8:	20011ee0 20011ee0 20011ee8 20011ee8     ... ... ... ... 
20011ef8:	20011ef0 20011ef0 20011ef8 20011ef8     ... ... ... ... 
20011f08:	20011f00 20011f00 20011f08 20011f08     ... ... ... ... 
20011f18:	20011f10 20011f10 20011f18 20011f18     ... ... ... ... 
20011f28:	20011f20 20011f20 20011f28 20011f28      ..  .. (.. (.. 
20011f38:	20011f30 20011f30 20011f38 20011f38     0.. 0.. 8.. 8.. 
20011f48:	20011f40 20011f40 20011f48 20011f48     @.. @.. H.. H.. 
20011f58:	20011f50 20011f50 20011f58 20011f58     P.. P.. X.. X.. 
20011f68:	20011f60 20011f60 20011f68 20011f68     `.. `.. h.. h.. 
20011f78:	20011f70 20011f70 20011f78 20011f78     p.. p.. x.. x.. 
20011f88:	20011f80 20011f80 20011f88 20011f88     ... ... ... ... 
20011f98:	20011f90 20011f90 20011f98 20011f98     ... ... ... ... 
20011fa8:	20011fa0 20011fa0 20011fa8 20011fa8     ... ... ... ... 
20011fb8:	20011fb0 20011fb0 20011fb8 20011fb8     ... ... ... ... 
20011fc8:	20011fc0 20011fc0 20011fc8 20011fc8     ... ... ... ... 
20011fd8:	20011fd0 20011fd0 20011fd8 20011fd8     ... ... ... ... 
20011fe8:	20011fe0 20011fe0 20011fe8 20011fe8     ... ... ... ... 
20011ff8:	20011ff0 20011ff0 20011ff8 20011ff8     ... ... ... ... 
20012008:	20012000 20012000 20012008 20012008     . . . . . . . . 
20012018:	20012010 20012010 20012018 20012018     . . . . . . . . 
20012028:	20012020 20012020 20012028 20012028       .   . ( . ( . 
20012038:	20012030 20012030 20012038 20012038     0 . 0 . 8 . 8 . 
20012048:	20012040 20012040 20012048 20012048     @ . @ . H . H . 
20012058:	20012050 20012050 20012058 20012058     P . P . X . X . 
20012068:	20012060 20012060 20012068 20012068     ` . ` . h . h . 
20012078:	20012070 20012070 20012078 20012078     p . p . x . x . 
20012088:	20012080 20012080 20012088 20012088     . . . . . . . . 
20012098:	20012090 20012090 20012098 20012098     . . . . . . . . 
200120a8:	200120a0 200120a0 200120a8 200120a8     . . . . . . . . 
200120b8:	200120b0 200120b0 200120b8 200120b8     . . . . . . . . 
200120c8:	200120c0 200120c0 200120c8 200120c8     . . . . . . . . 
200120d8:	200120d0 200120d0 200120d8 200120d8     . . . . . . . . 
200120e8:	200120e0 200120e0 200120e8 200120e8     . . . . . . . . 
200120f8:	200120f0 200120f0 200120f8 200120f8     . . . . . . . . 
20012108:	20012100 20012100 20012108 20012108     .!. .!. .!. .!. 
20012118:	20012110 20012110 20012118 20012118     .!. .!. .!. .!. 
20012128:	20012120 20012120 20012128 20012128      !.  !. (!. (!. 
20012138:	20012130 20012130 20012138 20012138     0!. 0!. 8!. 8!. 
20012148:	20012140 20012140 20012148 20012148     @!. @!. H!. H!. 
20012158:	20012150 20012150 20012158 20012158     P!. P!. X!. X!. 
20012168:	20012160 20012160 20012168 20012168     `!. `!. h!. h!. 
20012178:	20012170 20012170 20012178 20012178     p!. p!. x!. x!. 
20012188:	20012180 20012180 20012188 20012188     .!. .!. .!. .!. 
20012198:	20012190 20012190 20012198 20012198     .!. .!. .!. .!. 
200121a8:	200121a0 200121a0 200121a8 200121a8     .!. .!. .!. .!. 
200121b8:	200121b0 200121b0 200121b8 200121b8     .!. .!. .!. .!. 

200121c8 <__malloc_sbrk_base>:
200121c8:	ffffffff                                ....

200121cc <__malloc_trim_threshold>:
200121cc:	00020000                                ....

200121d0 <malloc_mutex>:
	...

200121d8 <print_mutex>:
	...

200121e0 <__mutex_array_end>:
200121e0:	10002949 	.word	0x10002949
200121e4:	100021d5 	.word	0x100021d5
200121e8:	1000271d 	.word	0x1000271d
200121ec:	1000283d 	.word	0x1000283d

200121f0 <__frame_dummy_init_array_entry>:
200121f0:	100002ed                                ....

Disassembly of section .scratch_x:

20040000 <tmds_encode_loop_16bpp>:
20040000:	b5f0      	push	{r4, r5, r6, r7, lr}
20040002:	0092      	lsls	r2, r2, #2
20040004:	440a      	add	r2, r1
20040006:	4694      	mov	ip, r2
20040008:	4a08      	ldr	r2, [pc, #32]	; (2004002c <tmds_encode_loop_16bpp+0x2c>)
2004000a:	e00b      	b.n	20040024 <tmds_encode_loop_16bpp+0x24>
2004000c:	c850      	ldmia	r0!, {r4, r6}
2004000e:	6014      	str	r4, [r2, #0]
20040010:	6a14      	ldr	r4, [r2, #32]
20040012:	6824      	ldr	r4, [r4, #0]
20040014:	6a55      	ldr	r5, [r2, #36]	; 0x24
20040016:	682d      	ldr	r5, [r5, #0]
20040018:	6016      	str	r6, [r2, #0]
2004001a:	6a16      	ldr	r6, [r2, #32]
2004001c:	6836      	ldr	r6, [r6, #0]
2004001e:	6a57      	ldr	r7, [r2, #36]	; 0x24
20040020:	683f      	ldr	r7, [r7, #0]
20040022:	c1f0      	stmia	r1!, {r4, r5, r6, r7}
20040024:	4561      	cmp	r1, ip
20040026:	d1f1      	bne.n	2004000c <tmds_encode_loop_16bpp+0xc>
20040028:	bdf0      	pop	{r4, r5, r6, r7, pc}
2004002a:	0000      	.short	0x0000
2004002c:	d0000080 	.word	0xd0000080

20040030 <tmds_encode_loop_16bpp_leftshift>:
20040030:	b5f0      	push	{r4, r5, r6, r7, lr}
20040032:	0092      	lsls	r2, r2, #2
20040034:	440a      	add	r2, r1
20040036:	4694      	mov	ip, r2
20040038:	4a09      	ldr	r2, [pc, #36]	; (20040060 <tmds_encode_loop_16bpp_leftshift+0x30>)
2004003a:	e00d      	b.n	20040058 <tmds_encode_loop_16bpp_leftshift+0x28>
2004003c:	c850      	ldmia	r0!, {r4, r6}
2004003e:	409c      	lsls	r4, r3
20040040:	6014      	str	r4, [r2, #0]
20040042:	6a14      	ldr	r4, [r2, #32]
20040044:	6824      	ldr	r4, [r4, #0]
20040046:	6a55      	ldr	r5, [r2, #36]	; 0x24
20040048:	682d      	ldr	r5, [r5, #0]
2004004a:	409e      	lsls	r6, r3
2004004c:	6016      	str	r6, [r2, #0]
2004004e:	6a16      	ldr	r6, [r2, #32]
20040050:	6836      	ldr	r6, [r6, #0]
20040052:	6a57      	ldr	r7, [r2, #36]	; 0x24
20040054:	683f      	ldr	r7, [r7, #0]
20040056:	c1f0      	stmia	r1!, {r4, r5, r6, r7}
20040058:	4561      	cmp	r1, ip
2004005a:	d1ef      	bne.n	2004003c <tmds_encode_loop_16bpp_leftshift+0xc>
2004005c:	bdf0      	pop	{r4, r5, r6, r7, pc}
2004005e:	0000      	.short	0x0000
20040060:	d0000080 	.word	0xd0000080

20040064 <tmds_table>:
20040064:	0007fd00 00040dfc 00041df8 0007ed04     ................
20040074:	00043df0 0007cd0c 0007dd08 00042df4     .=...........-..
20040084:	00047de0 00078d1c 00079d18 00046de4     .}...........m..
20040094:	0007bd10 00044dec 00045de8 000afa41     .....M...]..A...
200400a4:	0004fdc0 00070d3c 00071d38 0004edc4     ....<...8.......
200400b4:	00073d30 0004cdcc 0004ddc8 000a7a61     0=..........az..
200400c4:	00077d20 00048ddc 00049dd8 000a3a71      }..........q:..
200400d4:	0004bdd0 000a1a79 000a0a7d 0009fa81     ....y...}.......
200400e4:	0005fd80 00060d7c 00061d78 0005ed84     ....|...x.......
200400f4:	00063d70 0005cd8c 0005dd88 000b7a21     p=..........!z..
20040104:	00067d60 00058d9c 00059d98 000b3a31     `}..........1:..
20040114:	0005bd90 000b1a39 000b0a3d 0008fac1     ....9...=.......
20040124:	0006fd40 00050dbc 00051db8 000bba11     @...............
20040134:	00053db0 000b9a19 000b8a1d 00087ae1     .=...........z..
20040144:	00057da0 000bda09 000bca0d 00083af1     .}...........:..
20040154:	000bea05 00081af9 00080afd 000bfa01     ................
